

Microchip Technology PIC18 LITE Macro Assembler V1.35 build -356382666 
                                                                                               Thu Mar 16 17:21:58 2017

Microchip Technology Omniscient Code Generator v1.35 (Free mode) build 201507080246
     1                           	processor	18F4480
     2                           	fnconf	param0,??,?,0
     3                           	opt	pw 120
     4                           	opt	lm
     5                           	psect	idataCOMRAM,global,class=CODE,delta=1
     6                           	psect	nvBANK0,global,class=BANK0,space=1,delta=1
     7                           	psect	smallconst,global,reloc=2,class=SMALLCONST,delta=1
     8                           	psect	cinit,global,reloc=2,class=CODE,delta=1
     9                           	psect	bssCOMRAM,global,class=COMRAM,space=1,delta=1
    10                           	psect	dataCOMRAM,global,class=COMRAM,space=1,delta=1
    11                           	psect	bssBANK0,global,class=BANK0,space=1,delta=1
    12                           	psect	bssBANK1,global,class=BANK1,space=1,delta=1
    13                           	psect	cstackBANK1,global,class=BANK1,space=1,delta=1
    14                           	psect	cstackBANK0,global,class=BANK0,space=1,delta=1
    15                           	psect	cstackCOMRAM,global,class=COMRAM,space=1,delta=1
    16                           	psect	text0,global,reloc=2,class=CODE,delta=1
    17                           	psect	text1,global,reloc=2,class=CODE,delta=1
    18                           	psect	text2,global,reloc=2,class=CODE,delta=1
    19                           	psect	text3,global,reloc=2,class=CODE,delta=1
    20                           	psect	text4,global,reloc=2,class=CODE,delta=1
    21                           	psect	text5,global,reloc=2,class=CODE,delta=1
    22                           	psect	text6,global,reloc=2,class=CODE,delta=1
    23                           	psect	text7,global,reloc=2,class=CODE,delta=1
    24                           	psect	text8,global,reloc=2,class=CODE,delta=1
    25                           	psect	text9,global,reloc=2,class=CODE,delta=1
    26                           	psect	text10,global,reloc=2,class=CODE,delta=1
    27                           	psect	text11,global,reloc=2,class=CODE,delta=1
    28                           	psect	text12,global,reloc=2,class=CODE,delta=1
    29                           	psect	intcodelo,global,reloc=2,class=CODE,delta=1
    30                           	psect	text14,global,reloc=2,class=CODE,delta=1
    31                           	psect	text15,global,reloc=2,class=CODE,delta=1
    32                           	psect	text16,global,reloc=2,class=CODE,delta=1
    33                           	psect	text17,global,reloc=2,class=CODE,delta=1
    34                           	psect	text18,global,reloc=2,class=CODE,delta=1
    35                           	psect	text19,global,reloc=2,class=CODE,delta=1
    36                           	psect	text20,global,reloc=2,class=CODE,delta=1
    37                           	psect	text21,global,reloc=2,class=CODE,delta=1
    38                           	psect	text22,global,reloc=2,class=CODE,delta=1
    39                           	psect	text23,global,reloc=2,class=CODE,delta=1
    40                           	psect	text24,global,reloc=2,class=CODE,delta=1
    41                           	psect	text25,global,reloc=2,class=CODE,delta=1
    42                           	psect	text26,global,reloc=2,class=CODE,delta=1
    43                           	psect	intcode,global,reloc=2,class=CODE,delta=1
    44                           	psect	intcode_body,global,reloc=2,class=CODE,delta=1
    45                           	psect	text28,global,reloc=2,class=CODE,delta=1
    46                           	psect	text29,global,reloc=2,class=CODE,delta=1
    47                           	psect	text30,global,reloc=2,class=CODE,delta=1
    48                           	psect	text31,global,reloc=2,class=CODE,delta=1
    49                           	psect	text32,global,reloc=2,class=CODE,delta=1
    50                           	psect	text33,global,reloc=2,class=CODE,delta=1
    51                           	psect	text34,global,reloc=2,class=CODE,delta=1
    52                           	psect	text35,global,reloc=2,class=CODE,delta=1
    53                           	psect	text36,global,reloc=2,class=CODE,delta=1
    54                           	psect	text37,global,reloc=2,class=CODE,delta=1
    55                           	psect	text38,global,reloc=2,class=CODE,delta=1
    56                           	psect	text39,global,reloc=2,class=CODE,delta=1
    57                           	psect	text40,global,reloc=2,class=CODE,delta=1
    58                           	psect	text41,global,reloc=2,class=CODE,delta=1
    59                           	psect	text42,global,reloc=2,class=CODE,delta=1
    60                           	psect	intsave_regs,global,class=BIGRAM,space=1,delta=1
    61                           	psect	param0,global,class=BANK0,space=1,delta=1
    62                           	psect	temp,global,ovrld,common,class=COMRAM,space=1,delta=1
    63  0000                     
    64                           	psect	idataCOMRAM
    65  00308A                     __pidataCOMRAM:
    66                           	opt stack 0
    67                           
    68                           ;initializer for _en_udp
    69  00308A  01                 	db	1
    70                           
    71                           ;initializer for _wind_dirH
    72  00308B  20                 	db	32
    73                           
    74                           ;initializer for _wind_dirL
    75  00308C  20                 	db	32
    76                           
    77                           	psect	nvBANK0
    78  0000E5                     __pnvBANK0:
    79                           	opt stack 0
    80  0000E5                     _wind_vel:
    81                           	opt stack 0
    82  0000E5                     	ds	3
    83  0000E8                     _hum_data:
    84                           	opt stack 0
    85  0000E8                     	ds	3
    86  0000EB                     _temp_data:
    87                           	opt stack 0
    88  0000EB                     	ds	3
    89  0000                     _TMR0	set	4054
    90  0000                     _TMR1	set	4046
    91  0000                     _ADCON0bits	set	4034
    92  0000                     _ADCON1bits	set	4033
    93  0000                     _ADCON2bits	set	4032
    94  0000                     _ADRESH	set	4036
    95  0000                     _ADRESL	set	4035
    96  0000                     _BAUDCON	set	4024
    97  0000                     _INTCON2bits	set	4081
    98  0000                     _INTCON3bits	set	4080
    99  0000                     _INTCONbits	set	4082
   100  0000                     _IPR1	set	3999
   101  0000                     _IPR3	set	4005
   102  0000                     _LATE	set	3981
   103  0000                     _PIE1	set	3997
   104  0000                     _PIE3	set	4003
   105  0000                     _PIR1	set	3998
   106  0000                     _PIR1bits	set	3998
   107  0000                     _PORTBbits	set	3969
   108  0000                     _PORTCbits	set	3970
   109  0000                     _PORTD	set	3971
   110  0000                     _PORTEbits	set	3972
   111  0000                     _PR2	set	4043
   112  0000                     _RCON	set	4048
   113  0000                     _RCSTA	set	4011
   114  0000                     _SPBRG	set	4015
   115  0000                     _SSPADD	set	4040
   116  0000                     _SSPBUF	set	4041
   117  0000                     _SSPCON1bits	set	4038
   118  0000                     _SSPCON2bits	set	4037
   119  0000                     _SSPSTATbits	set	4039
   120  0000                     _T0CON	set	4053
   121  0000                     _T0CONbits	set	4053
   122  0000                     _T1CON	set	4045
   123  0000                     _T1CONbits	set	4045
   124  0000                     _T2CONbits	set	4042
   125  0000                     _T3CONbits	set	4017
   126  0000                     _TMR2	set	4044
   127  0000                     _TRISAbits	set	3986
   128  0000                     _TRISBbits	set	3987
   129  0000                     _TRISCbits	set	3988
   130  0000                     _TRISD	set	3989
   131  0000                     _TRISEbits	set	3990
   132  0000                     _TXREG	set	4013
   133  0000                     _TXSTA	set	4012
   134  0000                     _TXSTAbits	set	4012
   135                           
   136                           	psect	smallconst
   137  000300                     __psmallconst:
   138                           	opt stack 0
   139  000300  00                 	db	0
   140  000301                     STR_4:
   141  000301  42                 	db	66	;'B'
   142  000302  6F                 	db	111	;'o'
   143  000303  6F                 	db	111	;'o'
   144  000304  74                 	db	116	;'t'
   145  000305  69                 	db	105	;'i'
   146  000306  6E                 	db	110	;'n'
   147  000307  67                 	db	103	;'g'
   148  000308  20                 	db	32
   149  000309  2E                 	db	46
   150  00030A  2E                 	db	46
   151  00030B  2E                 	db	46
   152  00030C  2E                 	db	46
   153  00030D  2E                 	db	46
   154  00030E  2E                 	db	46
   155  00030F  2E                 	db	46
   156  000310  2E                 	db	46
   157  000311  00                 	db	0
   158  000312                     STR_3:
   159  000312  42                 	db	66	;'B'
   160  000313  6F                 	db	111	;'o'
   161  000314  6F                 	db	111	;'o'
   162  000315  74                 	db	116	;'t'
   163  000316  69                 	db	105	;'i'
   164  000317  6E                 	db	110	;'n'
   165  000318  67                 	db	103	;'g'
   166  000319  20                 	db	32
   167  00031A  2E                 	db	46
   168  00031B  2E                 	db	46
   169  00031C  2E                 	db	46
   170  00031D  2E                 	db	46
   171  00031E  00                 	db	0
   172  00031F                     STR_2:
   173  00031F  42                 	db	66	;'B'
   174  000320  6F                 	db	111	;'o'
   175  000321  6F                 	db	111	;'o'
   176  000322  74                 	db	116	;'t'
   177  000323  69                 	db	105	;'i'
   178  000324  6E                 	db	110	;'n'
   179  000325  67                 	db	103	;'g'
   180  000326  20                 	db	32
   181  000327  2E                 	db	46
   182  000328  2E                 	db	46
   183  000329  00                 	db	0
   184  00032A                     STR_1:
   185  00032A  42                 	db	66	;'B'
   186  00032B  6F                 	db	111	;'o'
   187  00032C  6F                 	db	111	;'o'
   188  00032D  74                 	db	116	;'t'
   189  00032E  69                 	db	105	;'i'
   190  00032F  6E                 	db	110	;'n'
   191  000330  67                 	db	103	;'g'
   192  000331  20                 	db	32
   193  000332  00                 	db	0
   194  000333                     STR_5:
   195  000333  4E                 	db	78	;'N'
   196  000334  6F                 	db	111	;'o'
   197  000335  20                 	db	32
   198  000336  44                 	db	68	;'D'
   199  000337  61                 	db	97	;'a'
   200  000338  74                 	db	116	;'t'
   201  000339  61                 	db	97	;'a'
   202  00033A  00                 	db	0
   203  00033B                     STR_6:
   204  00033B  20                 	db	32
   205  00033C  57                 	db	87	;'W'
   206  00033D  69                 	db	105	;'i'
   207  00033E  6E                 	db	110	;'n'
   208  00033F  64                 	db	100	;'d'
   209  000340  3D                 	db	61	;'='
   210  000341  00                 	db	0
   211  000342                     STR_7:
   212  000342  6D                 	db	109	;'m'
   213  000343  2F                 	db	47
   214  000344  73                 	db	115	;'s'
   215  000345  2C                 	db	44
   216  000346  00                 	db	0
   217  000347                     STR_9:
   218  000347  52                 	db	82	;'R'
   219  000348  48                 	db	72	;'H'
   220  000349  3D                 	db	61	;'='
   221  00034A  00                 	db	0
   222  00034B                     STR_8:
   223  00034B  54                 	db	84	;'T'
   224  00034C  3D                 	db	61	;'='
   225  00034D  00                 	db	0
   226                           
   227                           ; #config settings
   228  00034E  00                 	db	0	; dummy byte at the end
   229  0000                     
   230                           	psect	cinit
   231  002C76                     __pcinit:
   232                           	opt stack 0
   233  002C76                     start_initialization:
   234                           	opt stack 0
   235  002C76                     __initialization:
   236                           	opt stack 0
   237                           
   238                           ; Clear objects allocated to BANK1 (211 bytes)
   239  002C76  EE01  F000         	lfsr	0,__pbssBANK1
   240  002C7A  0ED3               	movlw	211
   241  002C7C                     clear_0:
   242  002C7C  6AEE               	clrf	postinc0,c
   243  002C7E  06E8               	decf	wreg,f,c
   244  002C80  E1FD               	bnz	clear_0
   245                           
   246                           ; Clear objects allocated to BANK0 (29 bytes)
   247  002C82  EE00  F0C8         	lfsr	0,__pbssBANK0
   248  002C86  0E1D               	movlw	29
   249  002C88                     clear_1:
   250  002C88  6AEE               	clrf	postinc0,c
   251  002C8A  06E8               	decf	wreg,f,c
   252  002C8C  E1FD               	bnz	clear_1
   253                           
   254                           ; Clear objects allocated to COMRAM (28 bytes)
   255  002C8E  EE00  F022         	lfsr	0,__pbssCOMRAM
   256  002C92  0E1C               	movlw	28
   257  002C94                     clear_2:
   258  002C94  6AEE               	clrf	postinc0,c
   259  002C96  06E8               	decf	wreg,f,c
   260  002C98  E1FD               	bnz	clear_2
   261                           
   262                           ; Initialize objects allocated to COMRAM (3 bytes)
   263                           ; load TBLPTR registers with __pidataCOMRAM
   264  002C9A  0E8A               	movlw	low __pidataCOMRAM
   265  002C9C  6EF6               	movwf	tblptrl,c
   266  002C9E  0E30               	movlw	high __pidataCOMRAM
   267  002CA0  6EF7               	movwf	tblptrh,c
   268  002CA2  0E00               	movlw	low (__pidataCOMRAM shr (0+16))
   269  002CA4  6EF8               	movwf	tblptru,c
   270  002CA6  0009               	tblrd		*+	;fetch initializer
   271  002CA8  CFF5 F03E          	movff	tablat,__pdataCOMRAM
   272  002CAC  0009               	tblrd		*+	;fetch initializer
   273  002CAE  CFF5 F03F          	movff	tablat,__pdataCOMRAM+1
   274  002CB2  0009               	tblrd		*+	;fetch initializer
   275  002CB4  CFF5 F040          	movff	tablat,__pdataCOMRAM+2
   276  002CB8                     end_of_initialization:
   277                           	opt stack 0
   278  002CB8                     __end_of__initialization:
   279                           	opt stack 0
   280  002CB8  9041               	bcf	int$flags,0,c	;clear compiler interrupt flag (level 1)
   281  002CBA  9241               	bcf	int$flags,1,c	;clear compiler interrupt flag (level 2)
   282  002CBC  0E00               	movlw	low (__Lsmallconst shr (0+16))
   283  002CBE  6EF8               	movwf	tblptru,c
   284  002CC0  0E03               	movlw	high __Lsmallconst
   285  002CC2  6EF7               	movwf	tblptrh,c
   286  002CC4  0100               	movlb	0
   287  002CC6  EFE5  F00C         	goto	_main	;jump to C main() function
   288                           tblptru	equ	0xFF8
   289                           tblptrh	equ	0xFF7
   290                           tblptrl	equ	0xFF6
   291                           tablat	equ	0xFF5
   292                           postinc0	equ	0xFEE
   293                           wreg	equ	0xFE8
   294                           
   295                           	psect	bssCOMRAM
   296  000022                     __pbssCOMRAM:
   297                           	opt stack 0
   298  000022                     _checksum:
   299                           	opt stack 0
   300  000022                     	ds	2
   301  000024                     _inte_data_counter:
   302                           	opt stack 0
   303  000024                     	ds	2
   304  000026                     _dew_data_f:
   305                           	opt stack 0
   306  000026                     	ds	1
   307  000027                     _dew_data_l:
   308                           	opt stack 0
   309  000027                     	ds	1
   310  000028                     _dew_data_m:
   311                           	opt stack 0
   312  000028                     	ds	1
   313  000029                     _dew_sign:
   314                           	opt stack 0
   315  000029                     	ds	1
   316  00002A                     _hum_data_h:
   317                           	opt stack 0
   318  00002A                     	ds	1
   319  00002B                     _hum_data_l:
   320                           	opt stack 0
   321  00002B                     	ds	1
   322  00002C                     _hum_data_m:
   323                           	opt stack 0
   324  00002C                     	ds	1
   325  00002D                     _temp_data_f:
   326                           	opt stack 0
   327  00002D                     	ds	1
   328  00002E                     _temp_data_h:
   329                           	opt stack 0
   330  00002E                     	ds	1
   331  00002F                     _temp_data_l:
   332                           	opt stack 0
   333  00002F                     	ds	1
   334  000030                     _temp_data_m:
   335                           	opt stack 0
   336  000030                     	ds	1
   337  000031                     _temp_sign:
   338                           	opt stack 0
   339  000031                     	ds	1
   340  000032                     _tx_char:
   341                           	opt stack 0
   342  000032                     	ds	1
   343  000033                     _wind_dir_data_h:
   344                           	opt stack 0
   345  000033                     	ds	1
   346  000034                     _wind_dir_data_l:
   347                           	opt stack 0
   348  000034                     	ds	1
   349  000035                     _wind_dir_data_m:
   350                           	opt stack 0
   351  000035                     	ds	1
   352  000036                     _wind_vel_data_f:
   353                           	opt stack 0
   354  000036                     	ds	1
   355  000037                     _wind_vel_data_h:
   356                           	opt stack 0
   357  000037                     	ds	1
   358  000038                     _wind_vel_data_l:
   359                           	opt stack 0
   360  000038                     	ds	1
   361  000039                     _dsth01_status:
   362                           	opt stack 0
   363  000039                     	ds	1
   364  00003A                     _humH:
   365                           	opt stack 0
   366  00003A                     	ds	1
   367  00003B                     _humL:
   368                           	opt stack 0
   369  00003B                     	ds	1
   370  00003C                     _tempH:
   371                           	opt stack 0
   372  00003C                     	ds	1
   373  00003D                     _tempL:
   374                           	opt stack 0
   375  00003D                     	ds	1
   376                           tblptru	equ	0xFF8
   377                           tblptrh	equ	0xFF7
   378                           tblptrl	equ	0xFF6
   379                           tablat	equ	0xFF5
   380                           postinc0	equ	0xFEE
   381                           wreg	equ	0xFE8
   382                           
   383                           	psect	dataCOMRAM
   384  00003E                     __pdataCOMRAM:
   385                           	opt stack 0
   386  00003E                     _en_udp:
   387                           	opt stack 0
   388  00003E                     	ds	1
   389  00003F                     _wind_dirH:
   390                           	opt stack 0
   391  00003F                     	ds	1
   392  000040                     _wind_dirL:
   393                           	opt stack 0
   394  000040                     	ds	1
   395                           tblptru	equ	0xFF8
   396                           tblptrh	equ	0xFF7
   397                           tblptrl	equ	0xFF6
   398                           tablat	equ	0xFF5
   399                           postinc0	equ	0xFEE
   400                           wreg	equ	0xFE8
   401                           
   402                           	psect	bssBANK0
   403  0000C8                     __pbssBANK0:
   404                           	opt stack 0
   405  0000C8                     _dew_data:
   406                           	opt stack 0
   407  0000C8                     	ds	3
   408  0000CB                     _temp_buffer_instant:
   409                           	opt stack 0
   410  0000CB                     	ds	3
   411  0000CE                     _wind_dir_voltage:
   412                           	opt stack 0
   413  0000CE                     	ds	3
   414  0000D1                     _hum_buffer_instant:
   415                           	opt stack 0
   416  0000D1                     	ds	2
   417  0000D3                     _hum_word:
   418                           	opt stack 0
   419  0000D3                     	ds	2
   420  0000D5                     _temp_word:
   421                           	opt stack 0
   422  0000D5                     	ds	2
   423  0000D7                     _wind_dir_data:
   424                           	opt stack 0
   425  0000D7                     	ds	2
   426  0000D9                     _wind_dir_instant:
   427                           	opt stack 0
   428  0000D9                     	ds	2
   429  0000DB                     _dew_data_h:
   430                           	opt stack 0
   431  0000DB                     	ds	1
   432  0000DC                     _dsth_error:
   433                           	opt stack 0
   434  0000DC                     	ds	1
   435  0000DD                     _inte_sample_counter:
   436                           	opt stack 0
   437  0000DD                     	ds	1
   438  0000DE                     _rain_:
   439                           	opt stack 0
   440  0000DE                     	ds	1
   441  0000DF                     _rain_count:
   442                           	opt stack 0
   443  0000DF                     	ds	2
   444  0000E1                     _wind_count:
   445                           	opt stack 0
   446  0000E1                     	ds	2
   447  0000E3                     _wind_dir_dec:
   448                           	opt stack 0
   449  0000E3                     	ds	2
   450                           tblptru	equ	0xFF8
   451                           tblptrh	equ	0xFF7
   452                           tblptrl	equ	0xFF6
   453                           tablat	equ	0xFF5
   454                           postinc0	equ	0xFEE
   455                           wreg	equ	0xFE8
   456                           
   457                           	psect	bssBANK1
   458  000100                     __pbssBANK1:
   459                           	opt stack 0
   460  000100                     _temp_buffer:
   461                           	opt stack 0
   462  000100                     	ds	75
   463  00014B                     _hum_buffer:
   464                           	opt stack 0
   465  00014B                     	ds	50
   466  00017D                     _wind_dir_buffer:
   467                           	opt stack 0
   468  00017D                     	ds	50
   469  0001AF                     _extend_timer:
   470                           	opt stack 0
   471  0001AF                     	ds	2
   472  0001B1                     _ptr_lcd_string:
   473                           	opt stack 0
   474  0001B1                     	ds	2
   475  0001B3                     _lcd_string:
   476                           	opt stack 0
   477  0001B3                     	ds	32
   478                           tblptru	equ	0xFF8
   479                           tblptrh	equ	0xFF7
   480                           tblptrl	equ	0xFF6
   481                           tablat	equ	0xFF5
   482                           postinc0	equ	0xFEE
   483                           wreg	equ	0xFE8
   484                           
   485                           	psect	cstackBANK1
   486  0001D3                     __pcstackBANK1:
   487                           	opt stack 0
   488  0001D3                     ?___wmul:
   489                           	opt stack 0
   490  0001D3                     ?___awdiv:
   491                           	opt stack 0
   492  0001D3                     init@temporary_i:
   493                           	opt stack 0
   494  0001D3                     ___wmul@multiplier:
   495                           	opt stack 0
   496  0001D3                     ___awdiv@dividend:
   497                           	opt stack 0
   498  0001D3                     strcpy@to:
   499                           	opt stack 0
   500                           
   501                           ; 2 bytes @ 0x0
   502  0001D3                     	ds	2
   503  0001D5                     ___wmul@multiplicand:
   504                           	opt stack 0
   505  0001D5                     ___awdiv@divisor:
   506                           	opt stack 0
   507  0001D5                     strcpy@from:
   508                           	opt stack 0
   509                           
   510                           ; 2 bytes @ 0x2
   511  0001D5                     	ds	2
   512  0001D7                     ___awdiv@counter:
   513                           	opt stack 0
   514  0001D7                     ___wmul@product:
   515                           	opt stack 0
   516  0001D7                     strcpy@cp:
   517                           	opt stack 0
   518                           
   519                           ; 2 bytes @ 0x4
   520  0001D7                     	ds	1
   521  0001D8                     ___awdiv@sign:
   522                           	opt stack 0
   523                           
   524                           ; 1 bytes @ 0x5
   525  0001D8                     	ds	1
   526  0001D9                     delay_ms@t_delay:
   527                           	opt stack 0
   528  0001D9                     ___awdiv@quotient:
   529                           	opt stack 0
   530                           
   531                           ; 2 bytes @ 0x6
   532  0001D9                     	ds	2
   533  0001DB                     ??_delay_ms:
   534  0001DB                     delay_us@t_delay:
   535                           	opt stack 0
   536                           
   537                           ; 2 bytes @ 0x8
   538  0001DB                     	ds	1
   539  0001DC                     delay_ms@c:
   540                           	opt stack 0
   541                           
   542                           ; 2 bytes @ 0x9
   543  0001DC                     	ds	1
   544  0001DD                     ??_delay_us:
   545                           
   546                           ; 0 bytes @ 0xA
   547  0001DD                     	ds	1
   548  0001DE                     delay_us@c:
   549                           	opt stack 0
   550                           
   551                           ; 2 bytes @ 0xB
   552  0001DE                     	ds	2
   553  0001E0                     write_com_lcd@c:
   554                           	opt stack 0
   555  0001E0                     write_str_lcd@ptr_char:
   556                           	opt stack 0
   557                           
   558                           ; 2 bytes @ 0xD
   559  0001E0                     	ds	2
   560  0001E2                     write_str_lcd@count_char:
   561                           	opt stack 0
   562                           
   563                           ; 1 bytes @ 0xF
   564  0001E2                     	ds	1
   565  0001E3                     main@c:
   566                           	opt stack 0
   567                           
   568                           ; 1 bytes @ 0x10
   569  0001E3                     	ds	1
   570                           tblptru	equ	0xFF8
   571                           tblptrh	equ	0xFF7
   572                           tblptrl	equ	0xFF6
   573                           tablat	equ	0xFF5
   574                           postinc0	equ	0xFEE
   575                           wreg	equ	0xFE8
   576                           
   577                           	psect	cstackBANK0
   578  000060                     __pcstackBANK0:
   579                           	opt stack 0
   580  000060                     ?i2___lwdiv:
   581                           	opt stack 0
   582  000060                     ?___ftpack:
   583                           	opt stack 0
   584  000060                     ?___ftneg:
   585                           	opt stack 0
   586  000060                     i2c_write@i2c_data:
   587                           	opt stack 0
   588  000060                     i2c_read@i2c_data:
   589                           	opt stack 0
   590  000060                     i2___lwdiv@dividend:
   591                           	opt stack 0
   592  000060                     ___ftpack@arg:
   593                           	opt stack 0
   594  000060                     ___ftge@ff1:
   595                           	opt stack 0
   596  000060                     ___ftneg@f1:
   597                           	opt stack 0
   598                           
   599                           ; 3 bytes @ 0x0
   600  000060                     	ds	1
   601  000061                     i2c_write@i2c_add:
   602                           	opt stack 0
   603                           
   604                           ; 1 bytes @ 0x1
   605  000061                     	ds	1
   606  000062                     i2c_read@i2c_add:
   607                           	opt stack 0
   608  000062                     i2___lwdiv@divisor:
   609                           	opt stack 0
   610                           
   611                           ; 2 bytes @ 0x2
   612  000062                     	ds	1
   613  000063                     ___ftpack@exp:
   614                           	opt stack 0
   615  000063                     ___ftge@ff2:
   616                           	opt stack 0
   617                           
   618                           ; 3 bytes @ 0x3
   619  000063                     	ds	1
   620  000064                     ___ftpack@sign:
   621                           	opt stack 0
   622  000064                     i2___lwdiv@counter:
   623                           	opt stack 0
   624                           
   625                           ; 1 bytes @ 0x4
   626  000064                     	ds	1
   627  000065                     ??___ftpack:
   628  000065                     i2___lwdiv@quotient:
   629                           	opt stack 0
   630                           
   631                           ; 2 bytes @ 0x5
   632  000065                     	ds	1
   633  000066                     ??___ftge:
   634                           
   635                           ; 0 bytes @ 0x6
   636  000066                     	ds	1
   637  000067                     ?i2___lwmod:
   638                           	opt stack 0
   639  000067                     i2___lwmod@dividend:
   640                           	opt stack 0
   641                           
   642                           ; 2 bytes @ 0x7
   643  000067                     	ds	1
   644  000068                     ?___lwtoft:
   645                           	opt stack 0
   646  000068                     ___lwtoft@c:
   647                           	opt stack 0
   648                           
   649                           ; 2 bytes @ 0x8
   650  000068                     	ds	1
   651  000069                     i2___lwmod@divisor:
   652                           	opt stack 0
   653                           
   654                           ; 2 bytes @ 0x9
   655  000069                     	ds	2
   656  00006B                     ?___ftmul:
   657                           	opt stack 0
   658  00006B                     i2___lwmod@counter:
   659                           	opt stack 0
   660  00006B                     ___ftmul@f1:
   661                           	opt stack 0
   662                           
   663                           ; 3 bytes @ 0xB
   664  00006B                     	ds	3
   665  00006E                     ___ftmul@f2:
   666                           	opt stack 0
   667                           
   668                           ; 3 bytes @ 0xE
   669  00006E                     	ds	3
   670  000071                     ??___ftmul:
   671                           
   672                           ; 0 bytes @ 0x11
   673  000071                     	ds	3
   674  000074                     ___ftmul@exp:
   675                           	opt stack 0
   676                           
   677                           ; 1 bytes @ 0x14
   678  000074                     	ds	1
   679  000075                     ___ftmul@f3_as_product:
   680                           	opt stack 0
   681                           
   682                           ; 3 bytes @ 0x15
   683  000075                     	ds	3
   684  000078                     ___ftmul@cntr:
   685                           	opt stack 0
   686                           
   687                           ; 1 bytes @ 0x18
   688  000078                     	ds	1
   689  000079                     ___ftmul@sign:
   690                           	opt stack 0
   691                           
   692                           ; 1 bytes @ 0x19
   693  000079                     	ds	1
   694  00007A                     ?___ftdiv:
   695                           	opt stack 0
   696  00007A                     ___ftdiv@f1:
   697                           	opt stack 0
   698                           
   699                           ; 3 bytes @ 0x1A
   700  00007A                     	ds	3
   701  00007D                     ___ftdiv@f2:
   702                           	opt stack 0
   703                           
   704                           ; 3 bytes @ 0x1D
   705  00007D                     	ds	3
   706  000080                     ??___ftdiv:
   707                           
   708                           ; 0 bytes @ 0x20
   709  000080                     	ds	3
   710  000083                     ___ftdiv@cntr:
   711                           	opt stack 0
   712                           
   713                           ; 1 bytes @ 0x23
   714  000083                     	ds	1
   715  000084                     ___ftdiv@f3:
   716                           	opt stack 0
   717                           
   718                           ; 3 bytes @ 0x24
   719  000084                     	ds	3
   720  000087                     ___ftdiv@exp:
   721                           	opt stack 0
   722                           
   723                           ; 1 bytes @ 0x27
   724  000087                     	ds	1
   725  000088                     ___ftdiv@sign:
   726                           	opt stack 0
   727                           
   728                           ; 1 bytes @ 0x28
   729  000088                     	ds	1
   730  000089                     ?___ftadd:
   731                           	opt stack 0
   732  000089                     ___ftadd@f1:
   733                           	opt stack 0
   734                           
   735                           ; 3 bytes @ 0x29
   736  000089                     	ds	3
   737  00008C                     ___ftadd@f2:
   738                           	opt stack 0
   739                           
   740                           ; 3 bytes @ 0x2C
   741  00008C                     	ds	3
   742  00008F                     ??___ftadd:
   743                           
   744                           ; 0 bytes @ 0x2F
   745  00008F                     	ds	3
   746  000092                     ___ftadd@sign:
   747                           	opt stack 0
   748                           
   749                           ; 1 bytes @ 0x32
   750  000092                     	ds	1
   751  000093                     ___ftadd@exp2:
   752                           	opt stack 0
   753                           
   754                           ; 1 bytes @ 0x33
   755  000093                     	ds	1
   756  000094                     ___ftadd@exp1:
   757                           	opt stack 0
   758                           
   759                           ; 1 bytes @ 0x34
   760  000094                     	ds	1
   761  000095                     ?___fttol:
   762                           	opt stack 0
   763  000095                     ___fttol@f1:
   764                           	opt stack 0
   765                           
   766                           ; 3 bytes @ 0x35
   767  000095                     	ds	4
   768  000099                     ??___fttol:
   769                           
   770                           ; 0 bytes @ 0x39
   771  000099                     	ds	5
   772  00009E                     ___fttol@sign1:
   773                           	opt stack 0
   774                           
   775                           ; 1 bytes @ 0x3E
   776  00009E                     	ds	1
   777  00009F                     ___fttol@lval:
   778                           	opt stack 0
   779                           
   780                           ; 4 bytes @ 0x3F
   781  00009F                     	ds	4
   782  0000A3                     ___fttol@exp1:
   783                           	opt stack 0
   784                           
   785                           ; 1 bytes @ 0x43
   786  0000A3                     	ds	1
   787  0000A4                     ?i2___awdiv:
   788                           	opt stack 0
   789  0000A4                     i2___awdiv@dividend:
   790                           	opt stack 0
   791                           
   792                           ; 2 bytes @ 0x44
   793  0000A4                     	ds	2
   794  0000A6                     i2___awdiv@divisor:
   795                           	opt stack 0
   796                           
   797                           ; 2 bytes @ 0x46
   798  0000A6                     	ds	2
   799  0000A8                     i2___awdiv@counter:
   800                           	opt stack 0
   801                           
   802                           ; 1 bytes @ 0x48
   803  0000A8                     	ds	1
   804  0000A9                     i2___awdiv@sign:
   805                           	opt stack 0
   806                           
   807                           ; 1 bytes @ 0x49
   808  0000A9                     	ds	1
   809  0000AA                     i2___awdiv@quotient:
   810                           	opt stack 0
   811                           
   812                           ; 2 bytes @ 0x4A
   813  0000AA                     	ds	2
   814  0000AC                     ?___awmod:
   815                           	opt stack 0
   816  0000AC                     ___awmod@dividend:
   817                           	opt stack 0
   818                           
   819                           ; 2 bytes @ 0x4C
   820  0000AC                     	ds	2
   821  0000AE                     ___awmod@divisor:
   822                           	opt stack 0
   823                           
   824                           ; 2 bytes @ 0x4E
   825  0000AE                     	ds	2
   826  0000B0                     ___awmod@counter:
   827                           	opt stack 0
   828                           
   829                           ; 1 bytes @ 0x50
   830  0000B0                     	ds	1
   831  0000B1                     ___awmod@sign:
   832                           	opt stack 0
   833                           
   834                           ; 1 bytes @ 0x51
   835  0000B1                     	ds	1
   836  0000B2                     ??_high_isr:
   837                           
   838                           ; 0 bytes @ 0x52
   839  0000B2                     	ds	18
   840  0000C4                     _high_isr$2251:
   841                           	opt stack 0
   842                           
   843                           ; 3 bytes @ 0x64
   844  0000C4                     	ds	3
   845  0000C7                     high_isr@temporary_i:
   846                           	opt stack 0
   847                           
   848                           ; 1 bytes @ 0x67
   849  0000C7                     	ds	1
   850                           tblptru	equ	0xFF8
   851                           tblptrh	equ	0xFF7
   852                           tblptrl	equ	0xFF6
   853                           tablat	equ	0xFF5
   854                           postinc0	equ	0xFEE
   855                           wreg	equ	0xFE8
   856                           
   857                           	psect	cstackCOMRAM
   858  000001                     __pcstackCOMRAM:
   859                           	opt stack 0
   860  000001                     ?___lwdiv:
   861                           	opt stack 0
   862  000001                     ?i1___wmul:
   863                           	opt stack 0
   864  000001                     ?i1___awdiv:
   865                           	opt stack 0
   866  000001                     ___lwdiv@dividend:
   867                           	opt stack 0
   868  000001                     i1___wmul@multiplier:
   869                           	opt stack 0
   870  000001                     i1___awdiv@dividend:
   871                           	opt stack 0
   872  000001                     i1strcpy@to:
   873                           	opt stack 0
   874                           
   875                           ; 2 bytes @ 0x0
   876  000001                     	ds	2
   877  000003                     ___lwdiv@divisor:
   878                           	opt stack 0
   879  000003                     i1___wmul@multiplicand:
   880                           	opt stack 0
   881  000003                     i1___awdiv@divisor:
   882                           	opt stack 0
   883  000003                     i1strcpy@from:
   884                           	opt stack 0
   885                           
   886                           ; 2 bytes @ 0x2
   887  000003                     	ds	2
   888  000005                     i1___awdiv@counter:
   889                           	opt stack 0
   890  000005                     ___lwdiv@quotient:
   891                           	opt stack 0
   892  000005                     i1___wmul@product:
   893                           	opt stack 0
   894  000005                     i1strcpy@cp:
   895                           	opt stack 0
   896                           
   897                           ; 2 bytes @ 0x4
   898  000005                     	ds	1
   899  000006                     i1___awdiv@sign:
   900                           	opt stack 0
   901                           
   902                           ; 1 bytes @ 0x5
   903  000006                     	ds	1
   904  000007                     ___lwdiv@counter:
   905                           	opt stack 0
   906  000007                     i1delay_ms@t_delay:
   907                           	opt stack 0
   908  000007                     i1___awdiv@quotient:
   909                           	opt stack 0
   910                           
   911                           ; 2 bytes @ 0x6
   912  000007                     	ds	1
   913  000008                     ?___lwmod:
   914                           	opt stack 0
   915  000008                     ___lwmod@dividend:
   916                           	opt stack 0
   917                           
   918                           ; 2 bytes @ 0x7
   919  000008                     	ds	1
   920  000009                     ??i1_delay_ms:
   921  000009                     i1delay_us@t_delay:
   922                           	opt stack 0
   923                           
   924                           ; 2 bytes @ 0x8
   925  000009                     	ds	1
   926  00000A                     ___lwmod@divisor:
   927                           	opt stack 0
   928  00000A                     i1delay_ms@c:
   929                           	opt stack 0
   930                           
   931                           ; 2 bytes @ 0x9
   932  00000A                     	ds	1
   933  00000B                     ??i1_delay_us:
   934                           
   935                           ; 0 bytes @ 0xA
   936  00000B                     	ds	1
   937  00000C                     ___lwmod@counter:
   938                           	opt stack 0
   939  00000C                     i1delay_us@c:
   940                           	opt stack 0
   941                           
   942                           ; 2 bytes @ 0xB
   943  00000C                     	ds	1
   944  00000D                     
   945                           ; 0 bytes @ 0xC
   946  00000D                     	ds	1
   947  00000E                     write_char_lcd@c:
   948                           	opt stack 0
   949  00000E                     i1write_com_lcd@c:
   950                           	opt stack 0
   951  00000E                     i1write_str_lcd@ptr_char:
   952                           	opt stack 0
   953                           
   954                           ; 2 bytes @ 0xD
   955  00000E                     	ds	2
   956  000010                     i1write_str_lcd@count_char:
   957                           	opt stack 0
   958                           
   959                           ; 1 bytes @ 0xF
   960  000010                     	ds	1
   961  000011                     ??_low_isr:
   962                           
   963                           ; 0 bytes @ 0x10
   964  000011                     	ds	17
   965                           tblptru	equ	0xFF8
   966                           tblptrh	equ	0xFF7
   967                           tblptrl	equ	0xFF6
   968                           tablat	equ	0xFF5
   969                           postinc0	equ	0xFEE
   970                           wreg	equ	0xFE8
   971                           
   972 ;;
   973 ;;Main: autosize = 0, tempsize = 0, incstack = 0, save=0
   974 ;;
   975 ;; *************** function _main *****************
   976 ;; Defined at:
   977 ;;		line 219 in file "weather-v2.c"
   978 ;; Parameters:    Size  Location     Type
   979 ;;		None
   980 ;; Auto vars:     Size  Location     Type
   981 ;;  c               1   16[BANK1 ] unsigned char 
   982 ;; Return value:  Size  Location     Type
   983 ;;		None               void
   984 ;; Registers used:
   985 ;;		wreg, fsr2l, fsr2h, status,2, status,0, tblptrl, tblptrh, tblptru, prodl, prodh, cstack
   986 ;; Tracked objects:
   987 ;;		On entry : 0/0
   988 ;;		On exit  : 0/0
   989 ;;		Unchanged: 0/0
   990 ;; Data sizes:     COMRAM   BANK0   BANK1   BANK2
   991 ;;      Params:         0       0       0       0
   992 ;;      Locals:         0       0       1       0
   993 ;;      Temps:          0       0       0       0
   994 ;;      Totals:         0       0       1       0
   995 ;;Total ram usage:        1 bytes
   996 ;; Hardware stack levels required when called:   11
   997 ;; This function calls:
   998 ;;		_i2c_init
   999 ;;		_init
  1000 ;;		_init_lcd
  1001 ;;		_rs232_init
  1002 ;;		_setint
  1003 ;;		_strcpy
  1004 ;;		_write_com_lcd
  1005 ;;		_write_str_lcd
  1006 ;; This function is called by:
  1007 ;;		Startup code after reset
  1008 ;; This function uses a non-reentrant model
  1009 ;;
  1010                           
  1011                           	psect	text0
  1012  0019CA                     __ptext0:
  1013                           	opt stack 0
  1014  0019CA                     _main:
  1015                           	opt stack 20
  1016                           
  1017                           ;weather-v2.c: 221: unsigned char c =0;
  1018                           
  1019                           ;incstack = 0
  1020  0019CA  0E00               	movlw	0
  1021  0019CC  0101               	movlb	1	; () banked
  1022  0019CE  6FE3               	movwf	main@c& (0+255),b
  1023                           
  1024                           ; BSR set to: 1
  1025                           ;weather-v2.c: 222: init();
  1026  0019D0  EC5F  F00E         	call	_init	;wreg free
  1027                           
  1028                           ;weather-v2.c: 223: init_lcd();
  1029  0019D4  ECA6  F00D         	call	_init_lcd	;wreg free
  1030                           
  1031                           ;weather-v2.c: 224: rs232_init() ;
  1032  0019D8  EC3A  F018         	call	_rs232_init	;wreg free
  1033                           
  1034                           ;weather-v2.c: 225: i2c_init();
  1035  0019DC  EC29  F018         	call	_i2c_init	;wreg free
  1036                           
  1037                           ;weather-v2.c: 226: setint() ;
  1038  0019E0  EC04  F017         	call	_setint	;wreg free
  1039                           
  1040                           ;weather-v2.c: 229: write_com_lcd(0x0C);
  1041  0019E4  0E0C               	movlw	12
  1042  0019E6  EC0C  F016         	call	_write_com_lcd
  1043                           
  1044                           ;weather-v2.c: 231: strcpy(lcd_string,"Booting ");
  1045  0019EA  0EB3               	movlw	low _lcd_string
  1046  0019EC  0101               	movlb	1	; () banked
  1047  0019EE  6FD3               	movwf	strcpy@to& (0+255),b
  1048  0019F0  0E01               	movlw	high _lcd_string
  1049  0019F2  0101               	movlb	1	; () banked
  1050  0019F4  6FD4               	movwf	(strcpy@to+1)& (0+255),b
  1051  0019F6  0E2A               	movlw	low STR_1
  1052  0019F8  0101               	movlb	1	; () banked
  1053  0019FA  6FD5               	movwf	strcpy@from& (0+255),b
  1054  0019FC  0E03               	movlw	high STR_1
  1055  0019FE  0101               	movlb	1	; () banked
  1056  001A00  6FD6               	movwf	(strcpy@from+1)& (0+255),b
  1057  001A02  EC9D  F017         	call	_strcpy	;wreg free
  1058                           
  1059                           ;weather-v2.c: 233: write_str_lcd(&lcd_string);
  1060  001A06  0EB3               	movlw	low _lcd_string
  1061  001A08  0101               	movlb	1	; () banked
  1062  001A0A  6FE0               	movwf	write_str_lcd@ptr_char& (0+255),b
  1063  001A0C  0E01               	movlw	high _lcd_string
  1064  001A0E  0101               	movlb	1	; () banked
  1065  001A10  6FE1               	movwf	(write_str_lcd@ptr_char+1)& (0+255),b
  1066  001A12  EC2D  F015         	call	_write_str_lcd	;wreg free
  1067                           
  1068                           ;weather-v2.c: 236: for(extend_timer = 0 ;extend_timer<1001;extend_timer++)
  1069  001A16  0E00               	movlw	0
  1070  001A18  0101               	movlb	1	; () banked
  1071  001A1A  6FB0               	movwf	(_extend_timer+1)& (0+255),b
  1072  001A1C  0E00               	movlw	0
  1073  001A1E  6FAF               	movwf	_extend_timer& (0+255),b
  1074  001A20                     l6382:
  1075                           
  1076                           ; BSR set to: 1
  1077  001A20  0EE9               	movlw	233
  1078  001A22  0101               	movlb	1	; () banked
  1079  001A24  5DAF               	subwf	_extend_timer& (0+255),w,b
  1080  001A26  0E03               	movlw	3
  1081  001A28  0101               	movlb	1	; () banked
  1082  001A2A  59B0               	subwfb	(_extend_timer+1)& (0+255),w,b
  1083  001A2C  B0D8               	btfsc	status,0,c
  1084  001A2E  D06E               	goto	l6418
  1085                           
  1086                           ; BSR set to: 1
  1087                           ;weather-v2.c: 237: {
  1088                           ;weather-v2.c: 238: T2CONbits.TMR2ON = 0;
  1089                           
  1090                           ; BSR set to: 1
  1091  001A30  94CA               	bcf	4042,2,c	;volatile
  1092                           
  1093                           ;weather-v2.c: 239: PIR1bits.TMR2IF = 0;
  1094  001A32  929E               	bcf	3998,1,c	;volatile
  1095                           
  1096                           ; BSR set to: 1
  1097                           ;weather-v2.c: 240: TMR2 = 0 ;
  1098  001A34  0E00               	movlw	0
  1099  001A36  6ECC               	movwf	4044,c	;volatile
  1100                           
  1101                           ; BSR set to: 1
  1102                           ;weather-v2.c: 241: T2CONbits.TMR2ON = 1;
  1103  001A38  84CA               	bsf	4042,2,c	;volatile
  1104  001A3A                     l219:
  1105  001A3A  A29E               	btfss	3998,1,c	;volatile
  1106  001A3C  D7FE               	goto	l219
  1107                           
  1108                           ;weather-v2.c: 244: if(extend_timer == 250)
  1109  001A3E  0EFA               	movlw	250
  1110  001A40  0101               	movlb	1	; () banked
  1111  001A42  19AF               	xorwf	_extend_timer& (0+255),w,b
  1112  001A44  0101               	movlb	1	; () banked
  1113  001A46  11B0               	iorwf	(_extend_timer+1)& (0+255),w,b
  1114  001A48  A4D8               	btfss	status,2,c
  1115  001A4A  D019               	goto	l6398
  1116                           
  1117                           ; BSR set to: 1
  1118                           ;weather-v2.c: 245: {
  1119                           ;weather-v2.c: 246: write_com_lcd(0x01);
  1120  001A4C  0E01               	movlw	1
  1121  001A4E  EC0C  F016         	call	_write_com_lcd
  1122                           
  1123                           ;weather-v2.c: 247: strcpy(lcd_string,"Booting ..");
  1124  001A52  0EB3               	movlw	low _lcd_string
  1125  001A54  0101               	movlb	1	; () banked
  1126  001A56  6FD3               	movwf	strcpy@to& (0+255),b
  1127  001A58  0E01               	movlw	high _lcd_string
  1128  001A5A  0101               	movlb	1	; () banked
  1129  001A5C  6FD4               	movwf	(strcpy@to+1)& (0+255),b
  1130  001A5E  0E1F               	movlw	low STR_2
  1131  001A60  0101               	movlb	1	; () banked
  1132  001A62  6FD5               	movwf	strcpy@from& (0+255),b
  1133  001A64  0E03               	movlw	high STR_2
  1134  001A66  0101               	movlb	1	; () banked
  1135  001A68  6FD6               	movwf	(strcpy@from+1)& (0+255),b
  1136  001A6A  EC9D  F017         	call	_strcpy	;wreg free
  1137                           
  1138                           ;weather-v2.c: 248: write_str_lcd(&lcd_string);
  1139  001A6E  0EB3               	movlw	low _lcd_string
  1140  001A70  0101               	movlb	1	; () banked
  1141  001A72  6FE0               	movwf	write_str_lcd@ptr_char& (0+255),b
  1142  001A74  0E01               	movlw	high _lcd_string
  1143  001A76  0101               	movlb	1	; () banked
  1144  001A78  6FE1               	movwf	(write_str_lcd@ptr_char+1)& (0+255),b
  1145  001A7A  EC2D  F015         	call	_write_str_lcd	;wreg free
  1146  001A7E                     l6398:
  1147                           
  1148                           ;weather-v2.c: 249: }
  1149                           ;weather-v2.c: 250: if(extend_timer ==500)
  1150  001A7E  0EF4               	movlw	244
  1151  001A80  0101               	movlb	1	; () banked
  1152  001A82  19AF               	xorwf	_extend_timer& (0+255),w,b
  1153  001A84  E11D               	bnz	l6406
  1154  001A86  0101               	movlb	1	; () banked
  1155  001A88  05B0               	decf	(_extend_timer+1)& (0+255),w,b
  1156  001A8A  A4D8               	btfss	status,2,c
  1157  001A8C  D019               	goto	l6406
  1158                           
  1159                           ; BSR set to: 1
  1160                           ;weather-v2.c: 251: {
  1161                           ;weather-v2.c: 252: write_com_lcd(0x01);
  1162  001A8E  0E01               	movlw	1
  1163  001A90  EC0C  F016         	call	_write_com_lcd
  1164                           
  1165                           ;weather-v2.c: 253: strcpy(lcd_string,"Booting ....");
  1166  001A94  0EB3               	movlw	low _lcd_string
  1167  001A96  0101               	movlb	1	; () banked
  1168  001A98  6FD3               	movwf	strcpy@to& (0+255),b
  1169  001A9A  0E01               	movlw	high _lcd_string
  1170  001A9C  0101               	movlb	1	; () banked
  1171  001A9E  6FD4               	movwf	(strcpy@to+1)& (0+255),b
  1172  001AA0  0E12               	movlw	low STR_3
  1173  001AA2  0101               	movlb	1	; () banked
  1174  001AA4  6FD5               	movwf	strcpy@from& (0+255),b
  1175  001AA6  0E03               	movlw	high STR_3
  1176  001AA8  0101               	movlb	1	; () banked
  1177  001AAA  6FD6               	movwf	(strcpy@from+1)& (0+255),b
  1178  001AAC  EC9D  F017         	call	_strcpy	;wreg free
  1179                           
  1180                           ;weather-v2.c: 254: write_str_lcd(&lcd_string);
  1181  001AB0  0EB3               	movlw	low _lcd_string
  1182  001AB2  0101               	movlb	1	; () banked
  1183  001AB4  6FE0               	movwf	write_str_lcd@ptr_char& (0+255),b
  1184  001AB6  0E01               	movlw	high _lcd_string
  1185  001AB8  0101               	movlb	1	; () banked
  1186  001ABA  6FE1               	movwf	(write_str_lcd@ptr_char+1)& (0+255),b
  1187  001ABC  EC2D  F015         	call	_write_str_lcd	;wreg free
  1188  001AC0                     l6406:
  1189                           
  1190                           ;weather-v2.c: 255: }
  1191                           ;weather-v2.c: 257: if(extend_timer == 750)
  1192  001AC0  0EEE               	movlw	238
  1193  001AC2  0101               	movlb	1	; () banked
  1194  001AC4  19AF               	xorwf	_extend_timer& (0+255),w,b
  1195  001AC6  E11E               	bnz	l6414
  1196  001AC8  0E02               	movlw	2
  1197  001ACA  0101               	movlb	1	; () banked
  1198  001ACC  19B0               	xorwf	(_extend_timer+1)& (0+255),w,b
  1199  001ACE  A4D8               	btfss	status,2,c
  1200  001AD0  D019               	goto	l6414
  1201                           
  1202                           ; BSR set to: 1
  1203                           ;weather-v2.c: 258: {
  1204                           ;weather-v2.c: 259: write_com_lcd(0x01);
  1205  001AD2  0E01               	movlw	1
  1206  001AD4  EC0C  F016         	call	_write_com_lcd
  1207                           
  1208                           ;weather-v2.c: 260: strcpy(lcd_string,"Booting ........");
  1209  001AD8  0EB3               	movlw	low _lcd_string
  1210  001ADA  0101               	movlb	1	; () banked
  1211  001ADC  6FD3               	movwf	strcpy@to& (0+255),b
  1212  001ADE  0E01               	movlw	high _lcd_string
  1213  001AE0  0101               	movlb	1	; () banked
  1214  001AE2  6FD4               	movwf	(strcpy@to+1)& (0+255),b
  1215  001AE4  0E01               	movlw	low STR_4
  1216  001AE6  0101               	movlb	1	; () banked
  1217  001AE8  6FD5               	movwf	strcpy@from& (0+255),b
  1218  001AEA  0E03               	movlw	high STR_4
  1219  001AEC  0101               	movlb	1	; () banked
  1220  001AEE  6FD6               	movwf	(strcpy@from+1)& (0+255),b
  1221  001AF0  EC9D  F017         	call	_strcpy	;wreg free
  1222                           
  1223                           ;weather-v2.c: 261: write_str_lcd(&lcd_string);
  1224  001AF4  0EB3               	movlw	low _lcd_string
  1225  001AF6  0101               	movlb	1	; () banked
  1226  001AF8  6FE0               	movwf	write_str_lcd@ptr_char& (0+255),b
  1227  001AFA  0E01               	movlw	high _lcd_string
  1228  001AFC  0101               	movlb	1	; () banked
  1229  001AFE  6FE1               	movwf	(write_str_lcd@ptr_char+1)& (0+255),b
  1230  001B00  EC2D  F015         	call	_write_str_lcd	;wreg free
  1231  001B04                     l6414:
  1232  001B04  0101               	movlb	1	; () banked
  1233  001B06  4BAF               	infsnz	_extend_timer& (0+255),f,b
  1234  001B08  2BB0               	incf	(_extend_timer+1)& (0+255),f,b
  1235  001B0A  D78A               	goto	l6382
  1236  001B0C                     l6418:
  1237                           
  1238                           ; BSR set to: 1
  1239                           ;weather-v2.c: 262: }
  1240                           ;weather-v2.c: 264: }
  1241                           ;weather-v2.c: 270: write_com_lcd(0x01);
  1242  001B0C  0E01               	movlw	1
  1243  001B0E  EC0C  F016         	call	_write_com_lcd
  1244                           
  1245                           ;weather-v2.c: 272: strcpy(lcd_string,"No Data");
  1246  001B12  0EB3               	movlw	low _lcd_string
  1247  001B14  0101               	movlb	1	; () banked
  1248  001B16  6FD3               	movwf	strcpy@to& (0+255),b
  1249  001B18  0E01               	movlw	high _lcd_string
  1250  001B1A  0101               	movlb	1	; () banked
  1251  001B1C  6FD4               	movwf	(strcpy@to+1)& (0+255),b
  1252  001B1E  0E33               	movlw	low STR_5
  1253  001B20  0101               	movlb	1	; () banked
  1254  001B22  6FD5               	movwf	strcpy@from& (0+255),b
  1255  001B24  0E03               	movlw	high STR_5
  1256  001B26  0101               	movlb	1	; () banked
  1257  001B28  6FD6               	movwf	(strcpy@from+1)& (0+255),b
  1258  001B2A  EC9D  F017         	call	_strcpy	;wreg free
  1259                           
  1260                           ;weather-v2.c: 274: write_str_lcd(&lcd_string);
  1261  001B2E  0EB3               	movlw	low _lcd_string
  1262  001B30  0101               	movlb	1	; () banked
  1263  001B32  6FE0               	movwf	write_str_lcd@ptr_char& (0+255),b
  1264  001B34  0E01               	movlw	high _lcd_string
  1265  001B36  0101               	movlb	1	; () banked
  1266  001B38  6FE1               	movwf	(write_str_lcd@ptr_char+1)& (0+255),b
  1267  001B3A  EC2D  F015         	call	_write_str_lcd	;wreg free
  1268                           
  1269                           ;weather-v2.c: 276: PORTCbits.RC2 = 0 ;
  1270  001B3E  9482               	bcf	3970,2,c	;volatile
  1271                           
  1272                           ;weather-v2.c: 278: SSPCON1bits.SSPEN = 1 ;
  1273  001B40  8AC6               	bsf	4038,5,c	;volatile
  1274                           
  1275                           ;weather-v2.c: 280: ADCON0bits.ADON = 1 ;
  1276  001B42  80C2               	bsf	4034,0,c	;volatile
  1277                           
  1278                           ;weather-v2.c: 281: T0CONbits.TMR0ON = 1 ;
  1279  001B44  8ED5               	bsf	4053,7,c	;volatile
  1280                           
  1281                           ;weather-v2.c: 282: T1CONbits.TMR1ON = 1 ;
  1282  001B46  80CD               	bsf	4045,0,c	;volatile
  1283  001B48                     l225:
  1284  001B48  0004               	clrwdt		;# 
  1285  001B4A  D7FE               	goto	l225
  1286  001B4C                     __end_of_main:
  1287                           	opt stack 0
  1288                           tblptru	equ	0xFF8
  1289                           tblptrh	equ	0xFF7
  1290                           tblptrl	equ	0xFF6
  1291                           tablat	equ	0xFF5
  1292                           postinc0	equ	0xFEE
  1293                           wreg	equ	0xFE8
  1294                           status	equ	0xFD8
  1295                           
  1296 ;; *************** function _write_str_lcd *****************
  1297 ;; Defined at:
  1298 ;;		line 315 in file "weather-v2.c"
  1299 ;; Parameters:    Size  Location     Type
  1300 ;;  ptr_char        2   13[BANK1 ] PTR unsigned char 
  1301 ;;		 -> lcd_string(32), 
  1302 ;; Auto vars:     Size  Location     Type
  1303 ;;  count_char      1   15[BANK1 ] unsigned char 
  1304 ;; Return value:  Size  Location     Type
  1305 ;;		None               void
  1306 ;; Registers used:
  1307 ;;		wreg, fsr2l, fsr2h, status,2, status,0, prodl, prodh, cstack
  1308 ;; Tracked objects:
  1309 ;;		On entry : 0/0
  1310 ;;		On exit  : 0/0
  1311 ;;		Unchanged: 0/0
  1312 ;; Data sizes:     COMRAM   BANK0   BANK1   BANK2
  1313 ;;      Params:         0       0       2       0
  1314 ;;      Locals:         0       0       1       0
  1315 ;;      Temps:          0       0       0       0
  1316 ;;      Totals:         0       0       3       0
  1317 ;;Total ram usage:        3 bytes
  1318 ;; Hardware stack levels used:    1
  1319 ;; Hardware stack levels required when called:   10
  1320 ;; This function calls:
  1321 ;;		_delay_us
  1322 ;; This function is called by:
  1323 ;;		_main
  1324 ;; This function uses a non-reentrant model
  1325 ;;
  1326                           
  1327                           	psect	text1
  1328  002A5A                     __ptext1:
  1329                           	opt stack 0
  1330  002A5A                     _write_str_lcd:
  1331                           	opt stack 20
  1332                           
  1333                           ;weather-v2.c: 317: char count_char;
  1334                           ;weather-v2.c: 318: for(count_char=0;count_char<32;count_char++)
  1335                           
  1336                           ;incstack = 0
  1337  002A5A  0E00               	movlw	0
  1338  002A5C  0101               	movlb	1	; () banked
  1339  002A5E  6FE2               	movwf	write_str_lcd@count_char& (0+255),b
  1340  002A60                     l5968:
  1341                           
  1342                           ; BSR set to: 1
  1343  002A60  0E1F               	movlw	31
  1344  002A62  0101               	movlb	1	; () banked
  1345  002A64  65E2               	cpfsgt	write_str_lcd@count_char& (0+255),b
  1346  002A66  D001               	goto	l5972
  1347  002A68  0012               	return	
  1348  002A6A                     l5972:
  1349                           
  1350                           ; BSR set to: 1
  1351                           ;weather-v2.c: 319: {
  1352                           ;weather-v2.c: 320: if(*(ptr_char+count_char)=='\0')
  1353  002A6A  0101               	movlb	1	; () banked
  1354  002A6C  51E2               	movf	write_str_lcd@count_char& (0+255),w,b
  1355  002A6E  0D01               	mullw	1
  1356  002A70  50F3               	movf	prodl,w,c
  1357  002A72  0101               	movlb	1	; () banked
  1358  002A74  25E0               	addwf	write_str_lcd@ptr_char& (0+255),w,b
  1359  002A76  6ED9               	movwf	fsr2l,c
  1360  002A78  50F4               	movf	prodh,w,c
  1361  002A7A  0101               	movlb	1	; () banked
  1362  002A7C  21E1               	addwfc	(write_str_lcd@ptr_char+1)& (0+255),w,b
  1363  002A7E  6EDA               	movwf	fsr2h,c
  1364  002A80  50DF               	movf	indf2,w,c
  1365  002A82  B4D8               	btfsc	status,2,c
  1366  002A84  0012               	return	
  1367                           
  1368                           ; BSR set to: 1
  1369                           ;weather-v2.c: 322: PORTBbits.RB4 = 0 ;
  1370                           
  1371                           ; BSR set to: 1
  1372                           ;weather-v2.c: 321: break;
  1373  002A86  9881               	bcf	3969,4,c	;volatile
  1374                           
  1375                           ;weather-v2.c: 323: PORTBbits.RB3 = 1 ;
  1376  002A88  8681               	bsf	3969,3,c	;volatile
  1377                           
  1378                           ; BSR set to: 1
  1379                           ;weather-v2.c: 324: delay_us(100);
  1380  002A8A  0E00               	movlw	0
  1381  002A8C  0101               	movlb	1	; () banked
  1382  002A8E  6FDC               	movwf	(delay_us@t_delay+1)& (0+255),b
  1383  002A90  0E64               	movlw	100
  1384  002A92  6FDB               	movwf	delay_us@t_delay& (0+255),b
  1385  002A94  EC65  F016         	call	_delay_us	;wreg free
  1386                           
  1387                           ;weather-v2.c: 325: PORTD = *(ptr_char+count_char);
  1388  002A98  0101               	movlb	1	; () banked
  1389  002A9A  51E2               	movf	write_str_lcd@count_char& (0+255),w,b
  1390  002A9C  0D01               	mullw	1
  1391  002A9E  50F3               	movf	prodl,w,c
  1392  002AA0  0101               	movlb	1	; () banked
  1393  002AA2  25E0               	addwf	write_str_lcd@ptr_char& (0+255),w,b
  1394  002AA4  6ED9               	movwf	fsr2l,c
  1395  002AA6  50F4               	movf	prodh,w,c
  1396  002AA8  0101               	movlb	1	; () banked
  1397  002AAA  21E1               	addwfc	(write_str_lcd@ptr_char+1)& (0+255),w,b
  1398  002AAC  6EDA               	movwf	fsr2h,c
  1399  002AAE  50DF               	movf	indf2,w,c
  1400  002AB0  6E83               	movwf	3971,c	;volatile
  1401                           
  1402                           ; BSR set to: 1
  1403                           ;weather-v2.c: 326: PORTCbits.RC1 = 1 ;
  1404  002AB2  8282               	bsf	3970,1,c	;volatile
  1405                           
  1406                           ; BSR set to: 1
  1407                           ;weather-v2.c: 327: delay_us(100);
  1408  002AB4  0E00               	movlw	0
  1409  002AB6  0101               	movlb	1	; () banked
  1410  002AB8  6FDC               	movwf	(delay_us@t_delay+1)& (0+255),b
  1411  002ABA  0E64               	movlw	100
  1412  002ABC  6FDB               	movwf	delay_us@t_delay& (0+255),b
  1413  002ABE  EC65  F016         	call	_delay_us	;wreg free
  1414                           
  1415                           ;weather-v2.c: 328: PORTCbits.RC1 = 0 ;
  1416  002AC2  9282               	bcf	3970,1,c	;volatile
  1417                           
  1418                           ;weather-v2.c: 329: delay_us(40);
  1419  002AC4  0E00               	movlw	0
  1420  002AC6  0101               	movlb	1	; () banked
  1421  002AC8  6FDC               	movwf	(delay_us@t_delay+1)& (0+255),b
  1422  002ACA  0E28               	movlw	40
  1423  002ACC  6FDB               	movwf	delay_us@t_delay& (0+255),b
  1424  002ACE  EC65  F016         	call	_delay_us	;wreg free
  1425  002AD2  0101               	movlb	1	; () banked
  1426  002AD4  2BE2               	incf	write_str_lcd@count_char& (0+255),f,b
  1427  002AD6  D7C4               	goto	l5968
  1428  002AD8                     __end_of_write_str_lcd:
  1429                           	opt stack 0
  1430                           tblptru	equ	0xFF8
  1431                           tblptrh	equ	0xFF7
  1432                           tblptrl	equ	0xFF6
  1433                           tablat	equ	0xFF5
  1434                           prodh	equ	0xFF4
  1435                           prodl	equ	0xFF3
  1436                           postinc0	equ	0xFEE
  1437                           wreg	equ	0xFE8
  1438                           indf2	equ	0xFDF
  1439                           fsr2h	equ	0xFDA
  1440                           fsr2l	equ	0xFD9
  1441                           status	equ	0xFD8
  1442                           
  1443 ;; *************** function _write_com_lcd *****************
  1444 ;; Defined at:
  1445 ;;		line 332 in file "weather-v2.c"
  1446 ;; Parameters:    Size  Location     Type
  1447 ;;  c               1    wreg     unsigned char 
  1448 ;; Auto vars:     Size  Location     Type
  1449 ;;  c               1   13[BANK1 ] unsigned char 
  1450 ;; Return value:  Size  Location     Type
  1451 ;;		None               void
  1452 ;; Registers used:
  1453 ;;		wreg, status,2, status,0, prodl, prodh, cstack
  1454 ;; Tracked objects:
  1455 ;;		On entry : 0/0
  1456 ;;		On exit  : 0/0
  1457 ;;		Unchanged: 0/0
  1458 ;; Data sizes:     COMRAM   BANK0   BANK1   BANK2
  1459 ;;      Params:         0       0       0       0
  1460 ;;      Locals:         0       0       1       0
  1461 ;;      Temps:          0       0       0       0
  1462 ;;      Totals:         0       0       1       0
  1463 ;;Total ram usage:        1 bytes
  1464 ;; Hardware stack levels used:    1
  1465 ;; Hardware stack levels required when called:   10
  1466 ;; This function calls:
  1467 ;;		_delay_ms
  1468 ;;		_delay_us
  1469 ;; This function is called by:
  1470 ;;		_main
  1471 ;; This function uses a non-reentrant model
  1472 ;;
  1473                           
  1474                           	psect	text2
  1475  002C18                     __ptext2:
  1476                           	opt stack 0
  1477  002C18                     _write_com_lcd:
  1478                           	opt stack 20
  1479                           
  1480                           ; BSR set to: 1
  1481                           ;incstack = 0
  1482                           ;write_com_lcd@c stored from wreg
  1483  002C18  0101               	movlb	1	; () banked
  1484  002C1A  6FE0               	movwf	write_com_lcd@c& (0+255),b
  1485                           
  1486                           ;weather-v2.c: 334: PORTBbits.RB4 = 0 ;
  1487  002C1C  9881               	bcf	3969,4,c	;volatile
  1488                           
  1489                           ;weather-v2.c: 335: PORTBbits.RB3 = 0 ;
  1490  002C1E  9681               	bcf	3969,3,c	;volatile
  1491                           
  1492                           ;weather-v2.c: 336: delay_us(100);
  1493  002C20  0E00               	movlw	0
  1494  002C22  0101               	movlb	1	; () banked
  1495  002C24  6FDC               	movwf	(delay_us@t_delay+1)& (0+255),b
  1496  002C26  0E64               	movlw	100
  1497  002C28  6FDB               	movwf	delay_us@t_delay& (0+255),b
  1498  002C2A  EC65  F016         	call	_delay_us	;wreg free
  1499                           
  1500                           ;weather-v2.c: 337: PORTD = c;
  1501  002C2E  C1E0  FF83         	movff	write_com_lcd@c,3971	;volatile
  1502                           
  1503                           ;weather-v2.c: 338: PORTCbits.RC1 = 1 ;
  1504  002C32  8282               	bsf	3970,1,c	;volatile
  1505                           
  1506                           ;weather-v2.c: 339: delay_us(100);
  1507  002C34  0E00               	movlw	0
  1508  002C36  0101               	movlb	1	; () banked
  1509  002C38  6FDC               	movwf	(delay_us@t_delay+1)& (0+255),b
  1510  002C3A  0E64               	movlw	100
  1511  002C3C  6FDB               	movwf	delay_us@t_delay& (0+255),b
  1512  002C3E  EC65  F016         	call	_delay_us	;wreg free
  1513                           
  1514                           ;weather-v2.c: 340: PORTCbits.RC1 = 0 ;
  1515  002C42  9282               	bcf	3970,1,c	;volatile
  1516                           
  1517                           ;weather-v2.c: 341: if(c==0x01 || c == 0x03)
  1518  002C44  0101               	movlb	1	; () banked
  1519  002C46  05E0               	decf	write_com_lcd@c& (0+255),w,b
  1520  002C48  B4D8               	btfsc	status,2,c
  1521  002C4A  D005               	goto	l5956
  1522                           
  1523                           ; BSR set to: 1
  1524  002C4C  0E03               	movlw	3
  1525  002C4E  0101               	movlb	1	; () banked
  1526  002C50  19E0               	xorwf	write_com_lcd@c& (0+255),w,b
  1527  002C52  A4D8               	btfss	status,2,c
  1528  002C54  D008               	goto	l5958
  1529  002C56                     l5956:
  1530                           
  1531                           ; BSR set to: 1
  1532                           ;weather-v2.c: 342: delay_ms(5);
  1533  002C56  0E00               	movlw	0
  1534  002C58  0101               	movlb	1	; () banked
  1535  002C5A  6FDA               	movwf	(delay_ms@t_delay+1)& (0+255),b
  1536  002C5C  0E05               	movlw	5
  1537  002C5E  6FD9               	movwf	delay_ms@t_delay& (0+255),b
  1538  002C60  ECDF  F016         	call	_delay_ms	;wreg free
  1539  002C64  0012               	return	
  1540  002C66                     l5958:
  1541                           
  1542                           ;weather-v2.c: 343: else
  1543                           ;weather-v2.c: 344: delay_us(40);
  1544  002C66  0E00               	movlw	0
  1545  002C68  0101               	movlb	1	; () banked
  1546  002C6A  6FDC               	movwf	(delay_us@t_delay+1)& (0+255),b
  1547  002C6C  0E28               	movlw	40
  1548  002C6E  6FDB               	movwf	delay_us@t_delay& (0+255),b
  1549  002C70  EC65  F016         	call	_delay_us	;wreg free
  1550  002C74  0012               	return	
  1551  002C76                     __end_of_write_com_lcd:
  1552                           	opt stack 0
  1553                           tblptru	equ	0xFF8
  1554                           tblptrh	equ	0xFF7
  1555                           tblptrl	equ	0xFF6
  1556                           tablat	equ	0xFF5
  1557                           prodh	equ	0xFF4
  1558                           prodl	equ	0xFF3
  1559                           postinc0	equ	0xFEE
  1560                           wreg	equ	0xFE8
  1561                           indf2	equ	0xFDF
  1562                           fsr2h	equ	0xFDA
  1563                           fsr2l	equ	0xFD9
  1564                           status	equ	0xFD8
  1565                           
  1566 ;; *************** function _strcpy *****************
  1567 ;; Defined at:
  1568 ;;		line 8 in file "C:\Program Files\Microchip\xc8\v1.35\sources\common\strcpy.c"
  1569 ;; Parameters:    Size  Location     Type
  1570 ;;  to              2    0[BANK1 ] PTR unsigned char 
  1571 ;;		 -> lcd_string(32), 
  1572 ;;  from            2    2[BANK1 ] PTR const unsigned char 
  1573 ;;		 -> STR_9(4), STR_8(3), STR_7(5), STR_6(7), 
  1574 ;;		 -> STR_5(8), STR_4(17), STR_3(13), STR_2(11), 
  1575 ;;		 -> STR_1(9), 
  1576 ;; Auto vars:     Size  Location     Type
  1577 ;;  cp              2    4[BANK1 ] PTR unsigned char 
  1578 ;;		 -> lcd_string(32), 
  1579 ;; Return value:  Size  Location     Type
  1580 ;;                  2    0[BANK1 ] PTR unsigned char 
  1581 ;; Registers used:
  1582 ;;		wreg, fsr2l, fsr2h, status,2, status,0, tblptrl, tblptrh, tblptru
  1583 ;; Tracked objects:
  1584 ;;		On entry : 0/0
  1585 ;;		On exit  : 0/0
  1586 ;;		Unchanged: 0/0
  1587 ;; Data sizes:     COMRAM   BANK0   BANK1   BANK2
  1588 ;;      Params:         0       0       4       0
  1589 ;;      Locals:         0       0       2       0
  1590 ;;      Temps:          0       0       0       0
  1591 ;;      Totals:         0       0       6       0
  1592 ;;Total ram usage:        6 bytes
  1593 ;; Hardware stack levels used:    1
  1594 ;; Hardware stack levels required when called:    8
  1595 ;; This function calls:
  1596 ;;		Nothing
  1597 ;; This function is called by:
  1598 ;;		_main
  1599 ;; This function uses a non-reentrant model
  1600 ;;
  1601                           
  1602                           	psect	text3
  1603  002F3A                     __ptext3:
  1604                           	opt stack 0
  1605  002F3A                     _strcpy:
  1606                           	opt stack 22
  1607                           
  1608                           ;incstack = 0
  1609  002F3A  C1D3  F1D7         	movff	strcpy@to,strcpy@cp
  1610  002F3E  C1D4  F1D8         	movff	strcpy@to+1,strcpy@cp+1
  1611  002F42  D006               	goto	l5964
  1612  002F44                     l5962:
  1613  002F44  0101               	movlb	1	; () banked
  1614  002F46  4BD7               	infsnz	strcpy@cp& (0+255),f,b
  1615  002F48  2BD8               	incf	(strcpy@cp+1)& (0+255),f,b
  1616  002F4A  0101               	movlb	1	; () banked
  1617  002F4C  4BD5               	infsnz	strcpy@from& (0+255),f,b
  1618  002F4E  2BD6               	incf	(strcpy@from+1)& (0+255),f,b
  1619  002F50                     l5964:
  1620  002F50  C1D5  FFF6         	movff	strcpy@from,tblptrl
  1621  002F54  C1D6  FFF7         	movff	strcpy@from+1,tblptrh
  1622  002F58                     	if	0	;tblptru may be non-zero
  1623  002F58                     	endif
  1624  002F58                     	if	0	;tblptru may be non-zero
  1625  002F58                     	endif
  1626  002F58  C1D7  FFD9         	movff	strcpy@cp,fsr2l
  1627  002F5C  C1D8  FFDA         	movff	strcpy@cp+1,fsr2h
  1628  002F60  0008               	tblrd		*
  1629  002F62  CFF5 FFDF          	movff	tablat,indf2
  1630  002F66  50DF               	movf	indf2,w,c
  1631  002F68  B4D8               	btfsc	status,2,c
  1632  002F6A  0012               	return	
  1633  002F6C  D7EB               	goto	l5962
  1634  002F6E                     __end_of_strcpy:
  1635                           	opt stack 0
  1636                           tblptru	equ	0xFF8
  1637                           tblptrh	equ	0xFF7
  1638                           tblptrl	equ	0xFF6
  1639                           tablat	equ	0xFF5
  1640                           prodh	equ	0xFF4
  1641                           prodl	equ	0xFF3
  1642                           postinc0	equ	0xFEE
  1643                           wreg	equ	0xFE8
  1644                           indf2	equ	0xFDF
  1645                           fsr2h	equ	0xFDA
  1646                           fsr2l	equ	0xFD9
  1647                           status	equ	0xFD8
  1648                           
  1649 ;; *************** function _setint *****************
  1650 ;; Defined at:
  1651 ;;		line 626 in file "weather-v2.c"
  1652 ;; Parameters:    Size  Location     Type
  1653 ;;		None
  1654 ;; Auto vars:     Size  Location     Type
  1655 ;;		None
  1656 ;; Return value:  Size  Location     Type
  1657 ;;		None               void
  1658 ;; Registers used:
  1659 ;;		wreg, status,2
  1660 ;; Tracked objects:
  1661 ;;		On entry : 0/0
  1662 ;;		On exit  : 0/0
  1663 ;;		Unchanged: 0/0
  1664 ;; Data sizes:     COMRAM   BANK0   BANK1   BANK2
  1665 ;;      Params:         0       0       0       0
  1666 ;;      Locals:         0       0       0       0
  1667 ;;      Temps:          0       0       0       0
  1668 ;;      Totals:         0       0       0       0
  1669 ;;Total ram usage:        0 bytes
  1670 ;; Hardware stack levels used:    1
  1671 ;; Hardware stack levels required when called:    8
  1672 ;; This function calls:
  1673 ;;		Nothing
  1674 ;; This function is called by:
  1675 ;;		_main
  1676 ;; This function uses a non-reentrant model
  1677 ;;
  1678                           
  1679                           	psect	text4
  1680  002E08                     __ptext4:
  1681                           	opt stack 0
  1682  002E08                     _setint:
  1683                           	opt stack 22
  1684                           
  1685                           ;weather-v2.c: 630: INTCONbits.GIE = 1 ;
  1686                           
  1687                           ;incstack = 0
  1688  002E08  8EF2               	bsf	intcon,7,c	;volatile
  1689                           
  1690                           ;weather-v2.c: 631: INTCONbits.PEIE = 1 ;
  1691  002E0A  8CF2               	bsf	intcon,6,c	;volatile
  1692                           
  1693                           ;weather-v2.c: 632: INTCONbits.TMR0IE = 1 ;
  1694  002E0C  8AF2               	bsf	intcon,5,c	;volatile
  1695                           
  1696                           ;weather-v2.c: 633: INTCONbits.INT0E = 1 ;
  1697  002E0E  88F2               	bsf	intcon,4,c	;volatile
  1698                           
  1699                           ;weather-v2.c: 634: INTCONbits.RBIE = 0 ;
  1700  002E10  96F2               	bcf	intcon,3,c	;volatile
  1701                           
  1702                           ;weather-v2.c: 635: INTCONbits.T0IF = 0 ;
  1703  002E12  94F2               	bcf	intcon,2,c	;volatile
  1704                           
  1705                           ;weather-v2.c: 636: INTCONbits.INT0F = 0 ;
  1706  002E14  92F2               	bcf	intcon,1,c	;volatile
  1707                           
  1708                           ;weather-v2.c: 637: INTCONbits.RBIF = 0 ;
  1709  002E16  90F2               	bcf	intcon,0,c	;volatile
  1710                           
  1711                           ;weather-v2.c: 641: INTCON2bits.RBPU = 0 ;
  1712  002E18  9EF1               	bcf	intcon2,7,c	;volatile
  1713                           
  1714                           ;weather-v2.c: 642: INTCON2bits.INTEDG0 = 0 ;
  1715  002E1A  9CF1               	bcf	intcon2,6,c	;volatile
  1716                           
  1717                           ;weather-v2.c: 643: INTCON2bits.INTEDG1 = 0 ;
  1718  002E1C  9AF1               	bcf	intcon2,5,c	;volatile
  1719                           
  1720                           ;weather-v2.c: 644: INTCON2bits.INTEDG2 = 0 ;
  1721  002E1E  98F1               	bcf	intcon2,4,c	;volatile
  1722                           
  1723                           ;weather-v2.c: 645: INTCON2bits.TMR0IP = 1 ;
  1724  002E20  84F1               	bsf	intcon2,2,c	;volatile
  1725                           
  1726                           ;weather-v2.c: 646: INTCON2bits.RBIP = 0 ;
  1727  002E22  90F1               	bcf	intcon2,0,c	;volatile
  1728                           
  1729                           ;weather-v2.c: 650: INTCON3bits.INT2IP = 0 ;
  1730  002E24  9EF0               	bcf	intcon3,7,c	;volatile
  1731                           
  1732                           ;weather-v2.c: 651: INTCON3bits.INT1IP = 1 ;
  1733  002E26  8CF0               	bsf	intcon3,6,c	;volatile
  1734                           
  1735                           ;weather-v2.c: 652: INTCON3bits.INT2IE = 0 ;
  1736  002E28  98F0               	bcf	intcon3,4,c	;volatile
  1737                           
  1738                           ;weather-v2.c: 653: INTCON3bits.INT1IE = 1 ;
  1739  002E2A  86F0               	bsf	intcon3,3,c	;volatile
  1740                           
  1741                           ;weather-v2.c: 654: INTCON3bits.INT2IF = 0 ;
  1742  002E2C  92F0               	bcf	intcon3,1,c	;volatile
  1743                           
  1744                           ;weather-v2.c: 655: INTCON3bits.INT1IF = 0 ;
  1745  002E2E  90F0               	bcf	intcon3,0,c	;volatile
  1746                           
  1747                           ;weather-v2.c: 658: PIR1 = 0b00000000 ;
  1748  002E30  0E00               	movlw	0
  1749  002E32  6E9E               	movwf	3998,c	;volatile
  1750                           
  1751                           ;weather-v2.c: 664: PIE1 = 0b00000001 ;
  1752  002E34  0E01               	movlw	1
  1753  002E36  6E9D               	movwf	3997,c	;volatile
  1754                           
  1755                           ;weather-v2.c: 670: PIE3 = 0b00000000 ;
  1756  002E38  0E00               	movlw	0
  1757  002E3A  6EA3               	movwf	4003,c	;volatile
  1758                           
  1759                           ;weather-v2.c: 673: IPR1 = 0b00000000 ;
  1760  002E3C  0E00               	movlw	0
  1761  002E3E  6E9F               	movwf	3999,c	;volatile
  1762                           
  1763                           ;weather-v2.c: 677: IPR3 = 0b00000000 ;
  1764  002E40  0E00               	movlw	0
  1765  002E42  6EA5               	movwf	4005,c	;volatile
  1766                           
  1767                           ;weather-v2.c: 679: RCON = 0b10000000 ;
  1768  002E44  0E80               	movlw	128
  1769  002E46  6ED0               	movwf	4048,c	;volatile
  1770  002E48  0012               	return		;funcret
  1771  002E4A                     __end_of_setint:
  1772                           	opt stack 0
  1773                           tblptru	equ	0xFF8
  1774                           tblptrh	equ	0xFF7
  1775                           tblptrl	equ	0xFF6
  1776                           tablat	equ	0xFF5
  1777                           prodh	equ	0xFF4
  1778                           prodl	equ	0xFF3
  1779                           intcon	equ	0xFF2
  1780                           intcon2	equ	0xFF1
  1781                           intcon3	equ	0xFF0
  1782                           postinc0	equ	0xFEE
  1783                           wreg	equ	0xFE8
  1784                           indf2	equ	0xFDF
  1785                           fsr2h	equ	0xFDA
  1786                           fsr2l	equ	0xFD9
  1787                           status	equ	0xFD8
  1788                           
  1789 ;; *************** function _rs232_init *****************
  1790 ;; Defined at:
  1791 ;;		line 613 in file "weather-v2.c"
  1792 ;; Parameters:    Size  Location     Type
  1793 ;;		None
  1794 ;; Auto vars:     Size  Location     Type
  1795 ;;		None
  1796 ;; Return value:  Size  Location     Type
  1797 ;;		None               void
  1798 ;; Registers used:
  1799 ;;		wreg, status,2
  1800 ;; Tracked objects:
  1801 ;;		On entry : 0/0
  1802 ;;		On exit  : 0/0
  1803 ;;		Unchanged: 0/0
  1804 ;; Data sizes:     COMRAM   BANK0   BANK1   BANK2
  1805 ;;      Params:         0       0       0       0
  1806 ;;      Locals:         0       0       0       0
  1807 ;;      Temps:          0       0       0       0
  1808 ;;      Totals:         0       0       0       0
  1809 ;;Total ram usage:        0 bytes
  1810 ;; Hardware stack levels used:    1
  1811 ;; Hardware stack levels required when called:    8
  1812 ;; This function calls:
  1813 ;;		Nothing
  1814 ;; This function is called by:
  1815 ;;		_main
  1816 ;; This function uses a non-reentrant model
  1817 ;;
  1818                           
  1819                           	psect	text5
  1820  003074                     __ptext5:
  1821                           	opt stack 0
  1822  003074                     _rs232_init:
  1823                           	opt stack 22
  1824                           
  1825                           ;weather-v2.c: 616: TRISCbits.TRISC7 = 1 ;
  1826                           
  1827                           ;incstack = 0
  1828  003074  8E94               	bsf	3988,7,c	;volatile
  1829                           
  1830                           ;weather-v2.c: 617: TRISCbits.TRISC6 = 0 ;
  1831  003076  9C94               	bcf	3988,6,c	;volatile
  1832                           
  1833                           ;weather-v2.c: 619: TXSTA = 0b10100100 ;
  1834  003078  0EA4               	movlw	164
  1835  00307A  6EAC               	movwf	4012,c	;volatile
  1836                           
  1837                           ;weather-v2.c: 620: RCSTA = 0b10010000 ;
  1838  00307C  0E90               	movlw	144
  1839  00307E  6EAB               	movwf	4011,c	;volatile
  1840                           
  1841                           ;weather-v2.c: 621: BAUDCON = 0b00000000 ;
  1842  003080  0E00               	movlw	0
  1843  003082  6EB8               	movwf	4024,c	;volatile
  1844                           
  1845                           ;weather-v2.c: 623: SPBRG = 31 ;
  1846  003084  0E1F               	movlw	31
  1847  003086  6EAF               	movwf	4015,c	;volatile
  1848  003088  0012               	return		;funcret
  1849  00308A                     __end_of_rs232_init:
  1850                           	opt stack 0
  1851                           tblptru	equ	0xFF8
  1852                           tblptrh	equ	0xFF7
  1853                           tblptrl	equ	0xFF6
  1854                           tablat	equ	0xFF5
  1855                           prodh	equ	0xFF4
  1856                           prodl	equ	0xFF3
  1857                           intcon	equ	0xFF2
  1858                           intcon2	equ	0xFF1
  1859                           intcon3	equ	0xFF0
  1860                           postinc0	equ	0xFEE
  1861                           wreg	equ	0xFE8
  1862                           indf2	equ	0xFDF
  1863                           fsr2h	equ	0xFDA
  1864                           fsr2l	equ	0xFD9
  1865                           status	equ	0xFD8
  1866                           
  1867 ;; *************** function _init_lcd *****************
  1868 ;; Defined at:
  1869 ;;		line 347 in file "weather-v2.c"
  1870 ;; Parameters:    Size  Location     Type
  1871 ;;		None
  1872 ;; Auto vars:     Size  Location     Type
  1873 ;;		None
  1874 ;; Return value:  Size  Location     Type
  1875 ;;		None               void
  1876 ;; Registers used:
  1877 ;;		wreg, status,2, status,0, prodl, prodh, cstack
  1878 ;; Tracked objects:
  1879 ;;		On entry : 0/0
  1880 ;;		On exit  : 0/0
  1881 ;;		Unchanged: 0/0
  1882 ;; Data sizes:     COMRAM   BANK0   BANK1   BANK2
  1883 ;;      Params:         0       0       0       0
  1884 ;;      Locals:         0       0       0       0
  1885 ;;      Temps:          0       0       0       0
  1886 ;;      Totals:         0       0       0       0
  1887 ;;Total ram usage:        0 bytes
  1888 ;; Hardware stack levels used:    1
  1889 ;; Hardware stack levels required when called:   10
  1890 ;; This function calls:
  1891 ;;		_delay_ms
  1892 ;;		_delay_us
  1893 ;; This function is called by:
  1894 ;;		_main
  1895 ;; This function uses a non-reentrant model
  1896 ;;
  1897                           
  1898                           	psect	text6
  1899  001B4C                     __ptext6:
  1900                           	opt stack 0
  1901  001B4C                     _init_lcd:
  1902                           	opt stack 20
  1903                           
  1904                           ;weather-v2.c: 349: ptr_lcd_string = lcd_string ;
  1905                           
  1906                           ;incstack = 0
  1907  001B4C  0EB3               	movlw	low _lcd_string
  1908  001B4E  0101               	movlb	1	; () banked
  1909  001B50  6FB1               	movwf	_ptr_lcd_string& (0+255),b
  1910  001B52  0E01               	movlw	high _lcd_string
  1911  001B54  0101               	movlb	1	; () banked
  1912  001B56  6FB2               	movwf	(_ptr_lcd_string+1)& (0+255),b
  1913                           
  1914                           ; BSR set to: 1
  1915                           ;weather-v2.c: 367: delay_ms(20);
  1916  001B58  0E00               	movlw	0
  1917  001B5A  0101               	movlb	1	; () banked
  1918  001B5C  6FDA               	movwf	(delay_ms@t_delay+1)& (0+255),b
  1919  001B5E  0E14               	movlw	20
  1920  001B60  6FD9               	movwf	delay_ms@t_delay& (0+255),b
  1921  001B62  ECDF  F016         	call	_delay_ms	;wreg free
  1922                           
  1923                           ;weather-v2.c: 369: PORTBbits.RB4 = 0 ;
  1924  001B66  9881               	bcf	3969,4,c	;volatile
  1925                           
  1926                           ;weather-v2.c: 370: PORTBbits.RB3 = 0 ;
  1927  001B68  9681               	bcf	3969,3,c	;volatile
  1928                           
  1929                           ;weather-v2.c: 371: delay_us(1);
  1930  001B6A  0E00               	movlw	0
  1931  001B6C  0101               	movlb	1	; () banked
  1932  001B6E  6FDC               	movwf	(delay_us@t_delay+1)& (0+255),b
  1933  001B70  0E01               	movlw	1
  1934  001B72  6FDB               	movwf	delay_us@t_delay& (0+255),b
  1935  001B74  EC65  F016         	call	_delay_us	;wreg free
  1936                           
  1937                           ;weather-v2.c: 372: PORTD = 0x30 ;
  1938  001B78  0E30               	movlw	48
  1939  001B7A  6E83               	movwf	3971,c	;volatile
  1940                           
  1941                           ;weather-v2.c: 373: PORTCbits.RC1 = 1 ;
  1942  001B7C  8282               	bsf	3970,1,c	;volatile
  1943                           
  1944                           ;weather-v2.c: 374: delay_us(1);
  1945  001B7E  0E00               	movlw	0
  1946  001B80  0101               	movlb	1	; () banked
  1947  001B82  6FDC               	movwf	(delay_us@t_delay+1)& (0+255),b
  1948  001B84  0E01               	movlw	1
  1949  001B86  6FDB               	movwf	delay_us@t_delay& (0+255),b
  1950  001B88  EC65  F016         	call	_delay_us	;wreg free
  1951                           
  1952                           ;weather-v2.c: 375: PORTCbits.RC1 = 0 ;
  1953  001B8C  9282               	bcf	3970,1,c	;volatile
  1954                           
  1955                           ;weather-v2.c: 376: delay_ms(10);
  1956  001B8E  0E00               	movlw	0
  1957  001B90  0101               	movlb	1	; () banked
  1958  001B92  6FDA               	movwf	(delay_ms@t_delay+1)& (0+255),b
  1959  001B94  0E0A               	movlw	10
  1960  001B96  6FD9               	movwf	delay_ms@t_delay& (0+255),b
  1961  001B98  ECDF  F016         	call	_delay_ms	;wreg free
  1962                           
  1963                           ;weather-v2.c: 378: PORTBbits.RB4 = 0 ;
  1964  001B9C  9881               	bcf	3969,4,c	;volatile
  1965                           
  1966                           ;weather-v2.c: 379: PORTBbits.RB3 = 0 ;
  1967  001B9E  9681               	bcf	3969,3,c	;volatile
  1968                           
  1969                           ;weather-v2.c: 380: delay_us(1);
  1970  001BA0  0E00               	movlw	0
  1971  001BA2  0101               	movlb	1	; () banked
  1972  001BA4  6FDC               	movwf	(delay_us@t_delay+1)& (0+255),b
  1973  001BA6  0E01               	movlw	1
  1974  001BA8  6FDB               	movwf	delay_us@t_delay& (0+255),b
  1975  001BAA  EC65  F016         	call	_delay_us	;wreg free
  1976                           
  1977                           ;weather-v2.c: 381: PORTD = 0x30 ;
  1978  001BAE  0E30               	movlw	48
  1979  001BB0  6E83               	movwf	3971,c	;volatile
  1980                           
  1981                           ;weather-v2.c: 382: PORTCbits.RC1 = 1 ;
  1982  001BB2  8282               	bsf	3970,1,c	;volatile
  1983                           
  1984                           ;weather-v2.c: 383: delay_us(1);
  1985  001BB4  0E00               	movlw	0
  1986  001BB6  0101               	movlb	1	; () banked
  1987  001BB8  6FDC               	movwf	(delay_us@t_delay+1)& (0+255),b
  1988  001BBA  0E01               	movlw	1
  1989  001BBC  6FDB               	movwf	delay_us@t_delay& (0+255),b
  1990  001BBE  EC65  F016         	call	_delay_us	;wreg free
  1991                           
  1992                           ;weather-v2.c: 384: PORTCbits.RC1 = 0 ;
  1993  001BC2  9282               	bcf	3970,1,c	;volatile
  1994                           
  1995                           ;weather-v2.c: 385: delay_us(100);
  1996  001BC4  0E00               	movlw	0
  1997  001BC6  0101               	movlb	1	; () banked
  1998  001BC8  6FDC               	movwf	(delay_us@t_delay+1)& (0+255),b
  1999  001BCA  0E64               	movlw	100
  2000  001BCC  6FDB               	movwf	delay_us@t_delay& (0+255),b
  2001  001BCE  EC65  F016         	call	_delay_us	;wreg free
  2002                           
  2003                           ;weather-v2.c: 387: PORTBbits.RB4 = 0 ;
  2004  001BD2  9881               	bcf	3969,4,c	;volatile
  2005                           
  2006                           ;weather-v2.c: 388: PORTBbits.RB3 = 0 ;
  2007  001BD4  9681               	bcf	3969,3,c	;volatile
  2008                           
  2009                           ;weather-v2.c: 389: delay_us(1);
  2010  001BD6  0E00               	movlw	0
  2011  001BD8  0101               	movlb	1	; () banked
  2012  001BDA  6FDC               	movwf	(delay_us@t_delay+1)& (0+255),b
  2013  001BDC  0E01               	movlw	1
  2014  001BDE  6FDB               	movwf	delay_us@t_delay& (0+255),b
  2015  001BE0  EC65  F016         	call	_delay_us	;wreg free
  2016                           
  2017                           ;weather-v2.c: 390: PORTD = 0x30 ;
  2018  001BE4  0E30               	movlw	48
  2019  001BE6  6E83               	movwf	3971,c	;volatile
  2020                           
  2021                           ;weather-v2.c: 391: PORTCbits.RC1 = 1 ;
  2022  001BE8  8282               	bsf	3970,1,c	;volatile
  2023                           
  2024                           ;weather-v2.c: 392: delay_us(1);
  2025  001BEA  0E00               	movlw	0
  2026  001BEC  0101               	movlb	1	; () banked
  2027  001BEE  6FDC               	movwf	(delay_us@t_delay+1)& (0+255),b
  2028  001BF0  0E01               	movlw	1
  2029  001BF2  6FDB               	movwf	delay_us@t_delay& (0+255),b
  2030  001BF4  EC65  F016         	call	_delay_us	;wreg free
  2031                           
  2032                           ;weather-v2.c: 393: PORTCbits.RC1 = 0 ;
  2033  001BF8  9282               	bcf	3970,1,c	;volatile
  2034                           
  2035                           ;weather-v2.c: 394: delay_ms(10);
  2036  001BFA  0E00               	movlw	0
  2037  001BFC  0101               	movlb	1	; () banked
  2038  001BFE  6FDA               	movwf	(delay_ms@t_delay+1)& (0+255),b
  2039  001C00  0E0A               	movlw	10
  2040  001C02  6FD9               	movwf	delay_ms@t_delay& (0+255),b
  2041  001C04  ECDF  F016         	call	_delay_ms	;wreg free
  2042                           
  2043                           ;weather-v2.c: 396: PORTD = 0x38;
  2044  001C08  0E38               	movlw	56
  2045  001C0A  6E83               	movwf	3971,c	;volatile
  2046                           
  2047                           ;weather-v2.c: 397: PORTCbits.RC1 = 1 ;
  2048  001C0C  8282               	bsf	3970,1,c	;volatile
  2049                           
  2050                           ;weather-v2.c: 398: delay_us(1);
  2051  001C0E  0E00               	movlw	0
  2052  001C10  0101               	movlb	1	; () banked
  2053  001C12  6FDC               	movwf	(delay_us@t_delay+1)& (0+255),b
  2054  001C14  0E01               	movlw	1
  2055  001C16  6FDB               	movwf	delay_us@t_delay& (0+255),b
  2056  001C18  EC65  F016         	call	_delay_us	;wreg free
  2057                           
  2058                           ;weather-v2.c: 399: PORTCbits.RC1 = 0 ;
  2059  001C1C  9282               	bcf	3970,1,c	;volatile
  2060                           
  2061                           ;weather-v2.c: 400: delay_us(40);
  2062  001C1E  0E00               	movlw	0
  2063  001C20  0101               	movlb	1	; () banked
  2064  001C22  6FDC               	movwf	(delay_us@t_delay+1)& (0+255),b
  2065  001C24  0E28               	movlw	40
  2066  001C26  6FDB               	movwf	delay_us@t_delay& (0+255),b
  2067  001C28  EC65  F016         	call	_delay_us	;wreg free
  2068                           
  2069                           ;weather-v2.c: 402: PORTD = 0x08;
  2070  001C2C  0E08               	movlw	8
  2071  001C2E  6E83               	movwf	3971,c	;volatile
  2072                           
  2073                           ;weather-v2.c: 403: PORTCbits.RC1 = 1 ;
  2074  001C30  8282               	bsf	3970,1,c	;volatile
  2075                           
  2076                           ;weather-v2.c: 404: delay_us(1);
  2077  001C32  0E00               	movlw	0
  2078  001C34  0101               	movlb	1	; () banked
  2079  001C36  6FDC               	movwf	(delay_us@t_delay+1)& (0+255),b
  2080  001C38  0E01               	movlw	1
  2081  001C3A  6FDB               	movwf	delay_us@t_delay& (0+255),b
  2082  001C3C  EC65  F016         	call	_delay_us	;wreg free
  2083                           
  2084                           ;weather-v2.c: 405: PORTCbits.RC1 = 0 ;
  2085  001C40  9282               	bcf	3970,1,c	;volatile
  2086                           
  2087                           ;weather-v2.c: 406: delay_us(40);
  2088  001C42  0E00               	movlw	0
  2089  001C44  0101               	movlb	1	; () banked
  2090  001C46  6FDC               	movwf	(delay_us@t_delay+1)& (0+255),b
  2091  001C48  0E28               	movlw	40
  2092  001C4A  6FDB               	movwf	delay_us@t_delay& (0+255),b
  2093  001C4C  EC65  F016         	call	_delay_us	;wreg free
  2094                           
  2095                           ;weather-v2.c: 408: PORTD = 0x01;
  2096  001C50  0E01               	movlw	1
  2097  001C52  6E83               	movwf	3971,c	;volatile
  2098                           
  2099                           ;weather-v2.c: 409: PORTCbits.RC1 = 1 ;
  2100  001C54  8282               	bsf	3970,1,c	;volatile
  2101                           
  2102                           ;weather-v2.c: 410: delay_us(1);
  2103  001C56  0E00               	movlw	0
  2104  001C58  0101               	movlb	1	; () banked
  2105  001C5A  6FDC               	movwf	(delay_us@t_delay+1)& (0+255),b
  2106  001C5C  0E01               	movlw	1
  2107  001C5E  6FDB               	movwf	delay_us@t_delay& (0+255),b
  2108  001C60  EC65  F016         	call	_delay_us	;wreg free
  2109                           
  2110                           ;weather-v2.c: 411: PORTCbits.RC1 = 0 ;
  2111  001C64  9282               	bcf	3970,1,c	;volatile
  2112                           
  2113                           ;weather-v2.c: 412: delay_ms(10);
  2114  001C66  0E00               	movlw	0
  2115  001C68  0101               	movlb	1	; () banked
  2116  001C6A  6FDA               	movwf	(delay_ms@t_delay+1)& (0+255),b
  2117  001C6C  0E0A               	movlw	10
  2118  001C6E  6FD9               	movwf	delay_ms@t_delay& (0+255),b
  2119  001C70  ECDF  F016         	call	_delay_ms	;wreg free
  2120                           
  2121                           ;weather-v2.c: 414: PORTD = 0x06;
  2122  001C74  0E06               	movlw	6
  2123  001C76  6E83               	movwf	3971,c	;volatile
  2124                           
  2125                           ;weather-v2.c: 415: PORTCbits.RC1 = 1 ;
  2126  001C78  8282               	bsf	3970,1,c	;volatile
  2127                           
  2128                           ;weather-v2.c: 416: delay_us(1);
  2129  001C7A  0E00               	movlw	0
  2130  001C7C  0101               	movlb	1	; () banked
  2131  001C7E  6FDC               	movwf	(delay_us@t_delay+1)& (0+255),b
  2132  001C80  0E01               	movlw	1
  2133  001C82  6FDB               	movwf	delay_us@t_delay& (0+255),b
  2134  001C84  EC65  F016         	call	_delay_us	;wreg free
  2135                           
  2136                           ;weather-v2.c: 417: PORTCbits.RC1 = 0 ;
  2137  001C88  9282               	bcf	3970,1,c	;volatile
  2138                           
  2139                           ;weather-v2.c: 418: delay_us(40);
  2140  001C8A  0E00               	movlw	0
  2141  001C8C  0101               	movlb	1	; () banked
  2142  001C8E  6FDC               	movwf	(delay_us@t_delay+1)& (0+255),b
  2143  001C90  0E28               	movlw	40
  2144  001C92  6FDB               	movwf	delay_us@t_delay& (0+255),b
  2145  001C94  EC65  F016         	call	_delay_us	;wreg free
  2146                           
  2147                           ;weather-v2.c: 420: PORTD = 0x0e;
  2148  001C98  0E0E               	movlw	14
  2149  001C9A  6E83               	movwf	3971,c	;volatile
  2150                           
  2151                           ;weather-v2.c: 421: PORTCbits.RC1 = 1 ;
  2152  001C9C  8282               	bsf	3970,1,c	;volatile
  2153                           
  2154                           ;weather-v2.c: 422: delay_us(1);
  2155  001C9E  0E00               	movlw	0
  2156  001CA0  0101               	movlb	1	; () banked
  2157  001CA2  6FDC               	movwf	(delay_us@t_delay+1)& (0+255),b
  2158  001CA4  0E01               	movlw	1
  2159  001CA6  6FDB               	movwf	delay_us@t_delay& (0+255),b
  2160  001CA8  EC65  F016         	call	_delay_us	;wreg free
  2161                           
  2162                           ;weather-v2.c: 423: PORTCbits.RC1 = 0 ;
  2163  001CAC  9282               	bcf	3970,1,c	;volatile
  2164                           
  2165                           ;weather-v2.c: 424: delay_us(40);
  2166  001CAE  0E00               	movlw	0
  2167  001CB0  0101               	movlb	1	; () banked
  2168  001CB2  6FDC               	movwf	(delay_us@t_delay+1)& (0+255),b
  2169  001CB4  0E28               	movlw	40
  2170  001CB6  6FDB               	movwf	delay_us@t_delay& (0+255),b
  2171  001CB8  EC65  F016         	call	_delay_us	;wreg free
  2172  001CBC  0012               	return		;funcret
  2173  001CBE                     __end_of_init_lcd:
  2174                           	opt stack 0
  2175                           tblptru	equ	0xFF8
  2176                           tblptrh	equ	0xFF7
  2177                           tblptrl	equ	0xFF6
  2178                           tablat	equ	0xFF5
  2179                           prodh	equ	0xFF4
  2180                           prodl	equ	0xFF3
  2181                           intcon	equ	0xFF2
  2182                           intcon2	equ	0xFF1
  2183                           intcon3	equ	0xFF0
  2184                           postinc0	equ	0xFEE
  2185                           wreg	equ	0xFE8
  2186                           indf2	equ	0xFDF
  2187                           fsr2h	equ	0xFDA
  2188                           fsr2l	equ	0xFD9
  2189                           status	equ	0xFD8
  2190                           
  2191 ;; *************** function _delay_us *****************
  2192 ;; Defined at:
  2193 ;;		line 296 in file "weather-v2.c"
  2194 ;; Parameters:    Size  Location     Type
  2195 ;;  t_delay         2    8[BANK1 ] int 
  2196 ;; Auto vars:     Size  Location     Type
  2197 ;;  c               2   11[BANK1 ] int 
  2198 ;; Return value:  Size  Location     Type
  2199 ;;		None               void
  2200 ;; Registers used:
  2201 ;;		wreg, status,2, status,0, cstack
  2202 ;; Tracked objects:
  2203 ;;		On entry : 0/0
  2204 ;;		On exit  : 0/0
  2205 ;;		Unchanged: 0/0
  2206 ;; Data sizes:     COMRAM   BANK0   BANK1   BANK2
  2207 ;;      Params:         0       0       2       0
  2208 ;;      Locals:         0       0       2       0
  2209 ;;      Temps:          0       0       1       0
  2210 ;;      Totals:         0       0       5       0
  2211 ;;Total ram usage:        5 bytes
  2212 ;; Hardware stack levels used:    1
  2213 ;; Hardware stack levels required when called:    9
  2214 ;; This function calls:
  2215 ;;		___awdiv
  2216 ;; This function is called by:
  2217 ;;		_write_str_lcd
  2218 ;;		_write_com_lcd
  2219 ;;		_init_lcd
  2220 ;; This function uses a non-reentrant model
  2221 ;;
  2222                           
  2223                           	psect	text7
  2224  002CCA                     __ptext7:
  2225                           	opt stack 0
  2226  002CCA                     _delay_us:
  2227                           	opt stack 20
  2228                           
  2229                           ;weather-v2.c: 298: int c;
  2230                           ;weather-v2.c: 299: t_delay = t_delay/10;
  2231                           
  2232                           ;incstack = 0
  2233  002CCA  C1DB  F1D3         	movff	delay_us@t_delay,___awdiv@dividend
  2234  002CCE  C1DC  F1D4         	movff	delay_us@t_delay+1,___awdiv@dividend+1
  2235  002CD2  0E00               	movlw	0
  2236  002CD4  0101               	movlb	1	; () banked
  2237  002CD6  6FD6               	movwf	(___awdiv@divisor+1)& (0+255),b
  2238  002CD8  0E0A               	movlw	10
  2239  002CDA  6FD5               	movwf	___awdiv@divisor& (0+255),b
  2240  002CDC  ECDC  F013         	call	___awdiv	;wreg free
  2241  002CE0  C1D3  F1DB         	movff	?___awdiv,delay_us@t_delay
  2242  002CE4  C1D4  F1DC         	movff	?___awdiv+1,delay_us@t_delay+1
  2243                           
  2244                           ;weather-v2.c: 300: for(c=0;c<t_delay;c++);
  2245  002CE8  0E00               	movlw	0
  2246  002CEA  0101               	movlb	1	; () banked
  2247  002CEC  6FDF               	movwf	(delay_us@c+1)& (0+255),b
  2248  002CEE  0E00               	movlw	0
  2249  002CF0  6FDE               	movwf	delay_us@c& (0+255),b
  2250  002CF2  D003               	goto	l5466
  2251  002CF4                     l5464:
  2252                           
  2253                           ; BSR set to: 1
  2254  002CF4  0101               	movlb	1	; () banked
  2255  002CF6  4BDE               	infsnz	delay_us@c& (0+255),f,b
  2256  002CF8  2BDF               	incf	(delay_us@c+1)& (0+255),f,b
  2257  002CFA                     l5466:
  2258                           
  2259                           ; BSR set to: 1
  2260  002CFA  0101               	movlb	1	; () banked
  2261  002CFC  51DB               	movf	delay_us@t_delay& (0+255),w,b
  2262  002CFE  0101               	movlb	1	; () banked
  2263  002D00  5DDE               	subwf	delay_us@c& (0+255),w,b
  2264  002D02  0101               	movlb	1	; () banked
  2265  002D04  51DF               	movf	(delay_us@c+1)& (0+255),w,b
  2266  002D06  0A80               	xorlw	128
  2267  002D08  0101               	movlb	1	; () banked
  2268  002D0A  6FDD               	movwf	??_delay_us& (0+255),b
  2269  002D0C  0101               	movlb	1	; () banked
  2270  002D0E  51DC               	movf	(delay_us@t_delay+1)& (0+255),w,b
  2271  002D10  0A80               	xorlw	128
  2272  002D12  0101               	movlb	1	; () banked
  2273  002D14  59DD               	subwfb	??_delay_us& (0+255),w,b
  2274  002D16  B0D8               	btfsc	status,0,c
  2275  002D18  0012               	return	
  2276  002D1A  D7EC               	goto	l5464
  2277  002D1C                     __end_of_delay_us:
  2278                           	opt stack 0
  2279                           tblptru	equ	0xFF8
  2280                           tblptrh	equ	0xFF7
  2281                           tblptrl	equ	0xFF6
  2282                           tablat	equ	0xFF5
  2283                           prodh	equ	0xFF4
  2284                           prodl	equ	0xFF3
  2285                           intcon	equ	0xFF2
  2286                           intcon2	equ	0xFF1
  2287                           intcon3	equ	0xFF0
  2288                           postinc0	equ	0xFEE
  2289                           wreg	equ	0xFE8
  2290                           indf2	equ	0xFDF
  2291                           fsr2h	equ	0xFDA
  2292                           fsr2l	equ	0xFD9
  2293                           status	equ	0xFD8
  2294                           
  2295 ;; *************** function ___awdiv *****************
  2296 ;; Defined at:
  2297 ;;		line 8 in file "C:\Program Files\Microchip\xc8\v1.35\sources\common\awdiv.c"
  2298 ;; Parameters:    Size  Location     Type
  2299 ;;  dividend        2    0[BANK1 ] int 
  2300 ;;  divisor         2    2[BANK1 ] int 
  2301 ;; Auto vars:     Size  Location     Type
  2302 ;;  quotient        2    6[BANK1 ] int 
  2303 ;;  sign            1    5[BANK1 ] unsigned char 
  2304 ;;  counter         1    4[BANK1 ] unsigned char 
  2305 ;; Return value:  Size  Location     Type
  2306 ;;                  2    0[BANK1 ] int 
  2307 ;; Registers used:
  2308 ;;		wreg, status,2, status,0
  2309 ;; Tracked objects:
  2310 ;;		On entry : 0/0
  2311 ;;		On exit  : 0/0
  2312 ;;		Unchanged: 0/0
  2313 ;; Data sizes:     COMRAM   BANK0   BANK1   BANK2
  2314 ;;      Params:         0       0       4       0
  2315 ;;      Locals:         0       0       4       0
  2316 ;;      Temps:          0       0       0       0
  2317 ;;      Totals:         0       0       8       0
  2318 ;;Total ram usage:        8 bytes
  2319 ;; Hardware stack levels used:    1
  2320 ;; Hardware stack levels required when called:    8
  2321 ;; This function calls:
  2322 ;;		Nothing
  2323 ;; This function is called by:
  2324 ;;		_delay_us
  2325 ;; This function uses a non-reentrant model
  2326 ;;
  2327                           
  2328                           	psect	text8
  2329  0027B8                     __ptext8:
  2330                           	opt stack 0
  2331  0027B8                     ___awdiv:
  2332                           	opt stack 20
  2333                           
  2334                           ; BSR set to: 1
  2335                           ;incstack = 0
  2336  0027B8  0E00               	movlw	0
  2337  0027BA  0101               	movlb	1	; () banked
  2338  0027BC  6FD8               	movwf	___awdiv@sign& (0+255),b
  2339                           
  2340                           ; BSR set to: 1
  2341  0027BE  0101               	movlb	1	; () banked
  2342  0027C0  AFD6               	btfss	(___awdiv@divisor+1)& (0+255),7,b
  2343  0027C2  D008               	goto	l5418
  2344                           
  2345                           ; BSR set to: 1
  2346  0027C4  0101               	movlb	1	; () banked
  2347  0027C6  6DD5               	negf	___awdiv@divisor& (0+255),b
  2348  0027C8  1FD6               	comf	(___awdiv@divisor+1)& (0+255),f,b
  2349  0027CA  B0D8               	btfsc	status,0,c
  2350  0027CC  2BD6               	incf	(___awdiv@divisor+1)& (0+255),f,b
  2351                           
  2352                           ; BSR set to: 1
  2353  0027CE  0E01               	movlw	1
  2354  0027D0  0101               	movlb	1	; () banked
  2355  0027D2  6FD8               	movwf	___awdiv@sign& (0+255),b
  2356  0027D4                     l5418:
  2357                           
  2358                           ; BSR set to: 1
  2359  0027D4  0101               	movlb	1	; () banked
  2360  0027D6  AFD4               	btfss	(___awdiv@dividend+1)& (0+255),7,b
  2361  0027D8  D008               	goto	l5424
  2362                           
  2363                           ; BSR set to: 1
  2364  0027DA  0101               	movlb	1	; () banked
  2365  0027DC  6DD3               	negf	___awdiv@dividend& (0+255),b
  2366  0027DE  1FD4               	comf	(___awdiv@dividend+1)& (0+255),f,b
  2367  0027E0  B0D8               	btfsc	status,0,c
  2368  0027E2  2BD4               	incf	(___awdiv@dividend+1)& (0+255),f,b
  2369                           
  2370                           ; BSR set to: 1
  2371  0027E4  0E01               	movlw	1
  2372  0027E6  0101               	movlb	1	; () banked
  2373  0027E8  1BD8               	xorwf	___awdiv@sign& (0+255),f,b
  2374  0027EA                     l5424:
  2375                           
  2376                           ; BSR set to: 1
  2377  0027EA  0E00               	movlw	0
  2378  0027EC  0101               	movlb	1	; () banked
  2379  0027EE  6FDA               	movwf	(___awdiv@quotient+1)& (0+255),b
  2380  0027F0  0E00               	movlw	0
  2381  0027F2  6FD9               	movwf	___awdiv@quotient& (0+255),b
  2382                           
  2383                           ; BSR set to: 1
  2384  0027F4  0101               	movlb	1	; () banked
  2385  0027F6  51D5               	movf	___awdiv@divisor& (0+255),w,b
  2386  0027F8  0101               	movlb	1	; () banked
  2387  0027FA  11D6               	iorwf	(___awdiv@divisor+1)& (0+255),w,b
  2388  0027FC  B4D8               	btfsc	status,2,c
  2389  0027FE  D02C               	goto	l5446
  2390                           
  2391                           ; BSR set to: 1
  2392  002800  0E01               	movlw	1
  2393  002802  0101               	movlb	1	; () banked
  2394  002804  6FD7               	movwf	___awdiv@counter& (0+255),b
  2395  002806  D006               	goto	l5432
  2396  002808                     l5430:
  2397                           
  2398                           ; BSR set to: 1
  2399  002808  0101               	movlb	1	; () banked
  2400  00280A  90D8               	bcf	status,0,c
  2401  00280C  37D5               	rlcf	___awdiv@divisor& (0+255),f,b
  2402  00280E  37D6               	rlcf	(___awdiv@divisor+1)& (0+255),f,b
  2403  002810  0101               	movlb	1	; () banked
  2404  002812  2BD7               	incf	___awdiv@counter& (0+255),f,b
  2405  002814                     l5432:
  2406                           
  2407                           ; BSR set to: 1
  2408  002814  0101               	movlb	1	; () banked
  2409  002816  AFD6               	btfss	(___awdiv@divisor+1)& (0+255),7,b
  2410  002818  D7F7               	goto	l5430
  2411  00281A                     l5434:
  2412                           
  2413                           ; BSR set to: 1
  2414  00281A  0101               	movlb	1	; () banked
  2415  00281C  90D8               	bcf	status,0,c
  2416  00281E  37D9               	rlcf	___awdiv@quotient& (0+255),f,b
  2417  002820  37DA               	rlcf	(___awdiv@quotient+1)& (0+255),f,b
  2418                           
  2419                           ; BSR set to: 1
  2420  002822  0101               	movlb	1	; () banked
  2421  002824  51D5               	movf	___awdiv@divisor& (0+255),w,b
  2422  002826  0101               	movlb	1	; () banked
  2423  002828  5DD3               	subwf	___awdiv@dividend& (0+255),w,b
  2424  00282A  0101               	movlb	1	; () banked
  2425  00282C  51D6               	movf	(___awdiv@divisor+1)& (0+255),w,b
  2426  00282E  0101               	movlb	1	; () banked
  2427  002830  59D4               	subwfb	(___awdiv@dividend+1)& (0+255),w,b
  2428  002832  A0D8               	btfss	status,0,c
  2429  002834  D00A               	goto	l5442
  2430                           
  2431                           ; BSR set to: 1
  2432  002836  0101               	movlb	1	; () banked
  2433  002838  51D5               	movf	___awdiv@divisor& (0+255),w,b
  2434  00283A  0101               	movlb	1	; () banked
  2435  00283C  5FD3               	subwf	___awdiv@dividend& (0+255),f,b
  2436  00283E  0101               	movlb	1	; () banked
  2437  002840  51D6               	movf	(___awdiv@divisor+1)& (0+255),w,b
  2438  002842  0101               	movlb	1	; () banked
  2439  002844  5BD4               	subwfb	(___awdiv@dividend+1)& (0+255),f,b
  2440                           
  2441                           ; BSR set to: 1
  2442  002846  0101               	movlb	1	; () banked
  2443  002848  81D9               	bsf	___awdiv@quotient& (0+255),0,b
  2444  00284A                     l5442:
  2445                           
  2446                           ; BSR set to: 1
  2447  00284A  0101               	movlb	1	; () banked
  2448  00284C  90D8               	bcf	status,0,c
  2449  00284E  33D6               	rrcf	(___awdiv@divisor+1)& (0+255),f,b
  2450  002850  33D5               	rrcf	___awdiv@divisor& (0+255),f,b
  2451                           
  2452                           ; BSR set to: 1
  2453  002852  0101               	movlb	1	; () banked
  2454  002854  2FD7               	decfsz	___awdiv@counter& (0+255),f,b
  2455  002856  D7E1               	goto	l5434
  2456  002858                     l5446:
  2457                           
  2458                           ; BSR set to: 1
  2459  002858  0101               	movlb	1	; () banked
  2460  00285A  51D8               	movf	___awdiv@sign& (0+255),w,b
  2461  00285C  0101               	movlb	1	; () banked
  2462  00285E  B4D8               	btfsc	status,2,c
  2463  002860  D005               	goto	l5450
  2464                           
  2465                           ; BSR set to: 1
  2466  002862  0101               	movlb	1	; () banked
  2467  002864  6DD9               	negf	___awdiv@quotient& (0+255),b
  2468  002866  1FDA               	comf	(___awdiv@quotient+1)& (0+255),f,b
  2469  002868  B0D8               	btfsc	status,0,c
  2470  00286A  2BDA               	incf	(___awdiv@quotient+1)& (0+255),f,b
  2471  00286C                     l5450:
  2472                           
  2473                           ; BSR set to: 1
  2474  00286C  C1D9  F1D3         	movff	___awdiv@quotient,?___awdiv
  2475  002870  C1DA  F1D4         	movff	___awdiv@quotient+1,?___awdiv+1
  2476  002874  0012               	return	
  2477  002876                     __end_of___awdiv:
  2478                           	opt stack 0
  2479                           tblptru	equ	0xFF8
  2480                           tblptrh	equ	0xFF7
  2481                           tblptrl	equ	0xFF6
  2482                           tablat	equ	0xFF5
  2483                           prodh	equ	0xFF4
  2484                           prodl	equ	0xFF3
  2485                           intcon	equ	0xFF2
  2486                           intcon2	equ	0xFF1
  2487                           intcon3	equ	0xFF0
  2488                           postinc0	equ	0xFEE
  2489                           wreg	equ	0xFE8
  2490                           indf2	equ	0xFDF
  2491                           fsr2h	equ	0xFDA
  2492                           fsr2l	equ	0xFD9
  2493                           status	equ	0xFD8
  2494                           
  2495 ;; *************** function _delay_ms *****************
  2496 ;; Defined at:
  2497 ;;		line 290 in file "weather-v2.c"
  2498 ;; Parameters:    Size  Location     Type
  2499 ;;  t_delay         2    6[BANK1 ] int 
  2500 ;; Auto vars:     Size  Location     Type
  2501 ;;  c               2    9[BANK1 ] int 
  2502 ;; Return value:  Size  Location     Type
  2503 ;;		None               void
  2504 ;; Registers used:
  2505 ;;		wreg, status,2, status,0, prodl, prodh, cstack
  2506 ;; Tracked objects:
  2507 ;;		On entry : 0/0
  2508 ;;		On exit  : 0/0
  2509 ;;		Unchanged: 0/0
  2510 ;; Data sizes:     COMRAM   BANK0   BANK1   BANK2
  2511 ;;      Params:         0       0       2       0
  2512 ;;      Locals:         0       0       2       0
  2513 ;;      Temps:          0       0       1       0
  2514 ;;      Totals:         0       0       5       0
  2515 ;;Total ram usage:        5 bytes
  2516 ;; Hardware stack levels used:    1
  2517 ;; Hardware stack levels required when called:    9
  2518 ;; This function calls:
  2519 ;;		___wmul
  2520 ;; This function is called by:
  2521 ;;		_write_com_lcd
  2522 ;;		_init_lcd
  2523 ;; This function uses a non-reentrant model
  2524 ;;
  2525                           
  2526                           	psect	text9
  2527  002DBE                     __ptext9:
  2528                           	opt stack 0
  2529  002DBE                     _delay_ms:
  2530                           	opt stack 20
  2531                           
  2532                           ;weather-v2.c: 292: int c;
  2533                           ;weather-v2.c: 293: for(c=0;c<t_delay*40;c++);
  2534                           
  2535                           ; BSR set to: 1
  2536                           ;incstack = 0
  2537  002DBE  0E00               	movlw	0
  2538  002DC0  0101               	movlb	1	; () banked
  2539  002DC2  6FDD               	movwf	(delay_ms@c+1)& (0+255),b
  2540  002DC4  0E00               	movlw	0
  2541  002DC6  6FDC               	movwf	delay_ms@c& (0+255),b
  2542  002DC8  D003               	goto	l5458
  2543  002DCA                     l5456:
  2544                           
  2545                           ; BSR set to: 1
  2546  002DCA  0101               	movlb	1	; () banked
  2547  002DCC  4BDC               	infsnz	delay_ms@c& (0+255),f,b
  2548  002DCE  2BDD               	incf	(delay_ms@c+1)& (0+255),f,b
  2549  002DD0                     l5458:
  2550                           
  2551                           ; BSR set to: 1
  2552  002DD0  C1D9  F1D3         	movff	delay_ms@t_delay,___wmul@multiplier
  2553  002DD4  C1DA  F1D4         	movff	delay_ms@t_delay+1,___wmul@multiplier+1
  2554  002DD8  0E00               	movlw	0
  2555  002DDA  0101               	movlb	1	; () banked
  2556  002DDC  6FD6               	movwf	(___wmul@multiplicand+1)& (0+255),b
  2557  002DDE  0E28               	movlw	40
  2558  002DE0  6FD5               	movwf	___wmul@multiplicand& (0+255),b
  2559  002DE2  EC82  F017         	call	___wmul	;wreg free
  2560  002DE6  0101               	movlb	1	; () banked
  2561  002DE8  51D3               	movf	?___wmul& (0+255),w,b
  2562  002DEA  0101               	movlb	1	; () banked
  2563  002DEC  5DDC               	subwf	delay_ms@c& (0+255),w,b
  2564  002DEE  0101               	movlb	1	; () banked
  2565  002DF0  51DD               	movf	(delay_ms@c+1)& (0+255),w,b
  2566  002DF2  0A80               	xorlw	128
  2567  002DF4  0101               	movlb	1	; () banked
  2568  002DF6  6FDB               	movwf	??_delay_ms& (0+255),b
  2569  002DF8  0101               	movlb	1	; () banked
  2570  002DFA  51D4               	movf	(?___wmul+1)& (0+255),w,b
  2571  002DFC  0A80               	xorlw	128
  2572  002DFE  0101               	movlb	1	; () banked
  2573  002E00  59DB               	subwfb	??_delay_ms& (0+255),w,b
  2574  002E02  B0D8               	btfsc	status,0,c
  2575  002E04  0012               	return	
  2576  002E06  D7E1               	goto	l5456
  2577  002E08                     __end_of_delay_ms:
  2578                           	opt stack 0
  2579                           tblptru	equ	0xFF8
  2580                           tblptrh	equ	0xFF7
  2581                           tblptrl	equ	0xFF6
  2582                           tablat	equ	0xFF5
  2583                           prodh	equ	0xFF4
  2584                           prodl	equ	0xFF3
  2585                           intcon	equ	0xFF2
  2586                           intcon2	equ	0xFF1
  2587                           intcon3	equ	0xFF0
  2588                           postinc0	equ	0xFEE
  2589                           wreg	equ	0xFE8
  2590                           indf2	equ	0xFDF
  2591                           fsr2h	equ	0xFDA
  2592                           fsr2l	equ	0xFD9
  2593                           status	equ	0xFD8
  2594                           
  2595 ;; *************** function ___wmul *****************
  2596 ;; Defined at:
  2597 ;;		line 15 in file "C:\Program Files\Microchip\xc8\v1.35\sources\common\Umul16.c"
  2598 ;; Parameters:    Size  Location     Type
  2599 ;;  multiplier      2    0[BANK1 ] unsigned int 
  2600 ;;  multiplicand    2    2[BANK1 ] unsigned int 
  2601 ;; Auto vars:     Size  Location     Type
  2602 ;;  product         2    4[BANK1 ] unsigned int 
  2603 ;; Return value:  Size  Location     Type
  2604 ;;                  2    0[BANK1 ] unsigned int 
  2605 ;; Registers used:
  2606 ;;		wreg, status,2, status,0, prodl, prodh
  2607 ;; Tracked objects:
  2608 ;;		On entry : 0/0
  2609 ;;		On exit  : 0/0
  2610 ;;		Unchanged: 0/0
  2611 ;; Data sizes:     COMRAM   BANK0   BANK1   BANK2
  2612 ;;      Params:         0       0       4       0
  2613 ;;      Locals:         0       0       2       0
  2614 ;;      Temps:          0       0       0       0
  2615 ;;      Totals:         0       0       6       0
  2616 ;;Total ram usage:        6 bytes
  2617 ;; Hardware stack levels used:    1
  2618 ;; Hardware stack levels required when called:    8
  2619 ;; This function calls:
  2620 ;;		Nothing
  2621 ;; This function is called by:
  2622 ;;		_delay_ms
  2623 ;; This function uses a non-reentrant model
  2624 ;;
  2625                           
  2626                           	psect	text10
  2627  002F04                     __ptext10:
  2628                           	opt stack 0
  2629  002F04                     ___wmul:
  2630                           	opt stack 20
  2631                           
  2632                           ; BSR set to: 1
  2633                           ;incstack = 0
  2634  002F04  0101               	movlb	1	; () banked
  2635  002F06  51D3               	movf	___wmul@multiplier& (0+255),w,b
  2636  002F08  0101               	movlb	1	; () banked
  2637  002F0A  03D5               	mulwf	___wmul@multiplicand& (0+255),b
  2638  002F0C  CFF3 F1D7          	movff	prodl,___wmul@product
  2639  002F10  CFF4 F1D8          	movff	prodh,___wmul@product+1
  2640  002F14  0101               	movlb	1	; () banked
  2641  002F16  51D3               	movf	___wmul@multiplier& (0+255),w,b
  2642  002F18  0101               	movlb	1	; () banked
  2643  002F1A  03D6               	mulwf	(___wmul@multiplicand+1)& (0+255),b
  2644  002F1C  50F3               	movf	prodl,w,c
  2645  002F1E  0101               	movlb	1	; () banked
  2646  002F20  27D8               	addwf	(___wmul@product+1)& (0+255),f,b
  2647  002F22  0101               	movlb	1	; () banked
  2648  002F24  51D4               	movf	(___wmul@multiplier+1)& (0+255),w,b
  2649  002F26  0101               	movlb	1	; () banked
  2650  002F28  03D5               	mulwf	___wmul@multiplicand& (0+255),b
  2651  002F2A  50F3               	movf	prodl,w,c
  2652  002F2C  0101               	movlb	1	; () banked
  2653  002F2E  27D8               	addwf	(___wmul@product+1)& (0+255),f,b
  2654                           
  2655                           ; BSR set to: 1
  2656  002F30  C1D7  F1D3         	movff	___wmul@product,?___wmul
  2657  002F34  C1D8  F1D4         	movff	___wmul@product+1,?___wmul+1
  2658  002F38  0012               	return	
  2659  002F3A                     __end_of___wmul:
  2660                           	opt stack 0
  2661                           tblptru	equ	0xFF8
  2662                           tblptrh	equ	0xFF7
  2663                           tblptrl	equ	0xFF6
  2664                           tablat	equ	0xFF5
  2665                           prodh	equ	0xFF4
  2666                           prodl	equ	0xFF3
  2667                           intcon	equ	0xFF2
  2668                           intcon2	equ	0xFF1
  2669                           intcon3	equ	0xFF0
  2670                           postinc0	equ	0xFEE
  2671                           wreg	equ	0xFE8
  2672                           indf2	equ	0xFDF
  2673                           fsr2h	equ	0xFDA
  2674                           fsr2l	equ	0xFD9
  2675                           status	equ	0xFD8
  2676                           
  2677 ;; *************** function _init *****************
  2678 ;; Defined at:
  2679 ;;		line 428 in file "weather-v2.c"
  2680 ;; Parameters:    Size  Location     Type
  2681 ;;		None
  2682 ;; Auto vars:     Size  Location     Type
  2683 ;;  temporary_i     1    0[BANK1 ] unsigned char 
  2684 ;; Return value:  Size  Location     Type
  2685 ;;		None               void
  2686 ;; Registers used:
  2687 ;;		wreg, fsr2l, fsr2h, status,2, status,0, prodl, prodh
  2688 ;; Tracked objects:
  2689 ;;		On entry : 0/0
  2690 ;;		On exit  : 0/0
  2691 ;;		Unchanged: 0/0
  2692 ;; Data sizes:     COMRAM   BANK0   BANK1   BANK2
  2693 ;;      Params:         0       0       0       0
  2694 ;;      Locals:         0       0       1       0
  2695 ;;      Temps:          0       0       0       0
  2696 ;;      Totals:         0       0       1       0
  2697 ;;Total ram usage:        1 bytes
  2698 ;; Hardware stack levels used:    1
  2699 ;; Hardware stack levels required when called:    8
  2700 ;; This function calls:
  2701 ;;		Nothing
  2702 ;; This function is called by:
  2703 ;;		_main
  2704 ;; This function uses a non-reentrant model
  2705 ;;
  2706                           
  2707                           	psect	text11
  2708  001CBE                     __ptext11:
  2709                           	opt stack 0
  2710  001CBE                     _init:
  2711                           	opt stack 22
  2712                           
  2713                           ;weather-v2.c: 431: char temporary_i ;
  2714                           ;weather-v2.c: 434: tempL = 0 ;
  2715                           
  2716                           ; BSR set to: 1
  2717                           ;incstack = 0
  2718  001CBE  0E00               	movlw	0
  2719  001CC0  6E3D               	movwf	_tempL,c
  2720                           
  2721                           ;weather-v2.c: 435: tempH = 0 ;
  2722  001CC2  0E00               	movlw	0
  2723  001CC4  6E3C               	movwf	_tempH,c
  2724                           
  2725                           ;weather-v2.c: 436: humL = 0 ;
  2726  001CC6  0E00               	movlw	0
  2727  001CC8  6E3B               	movwf	_humL,c
  2728                           
  2729                           ;weather-v2.c: 437: humH = 0 ;
  2730  001CCA  0E00               	movlw	0
  2731  001CCC  6E3A               	movwf	_humH,c
  2732                           
  2733                           ;weather-v2.c: 438: temp_data = 0 ;
  2734  001CCE  0E00               	movlw	0
  2735  001CD0  0100               	movlb	0	; () banked
  2736  001CD2  6FEB               	movwf	_temp_data& (0+255),b
  2737  001CD4  0E00               	movlw	0
  2738  001CD6  0100               	movlb	0	; () banked
  2739  001CD8  6FEC               	movwf	(_temp_data+1)& (0+255),b
  2740  001CDA  0E00               	movlw	0
  2741  001CDC  0100               	movlb	0	; () banked
  2742  001CDE  6FED               	movwf	(_temp_data+2)& (0+255),b
  2743                           
  2744                           ;weather-v2.c: 439: hum_data = 0 ;
  2745  001CE0  0E00               	movlw	0
  2746  001CE2  0100               	movlb	0	; () banked
  2747  001CE4  6FE8               	movwf	_hum_data& (0+255),b
  2748  001CE6  0E00               	movlw	0
  2749  001CE8  0100               	movlb	0	; () banked
  2750  001CEA  6FE9               	movwf	(_hum_data+1)& (0+255),b
  2751  001CEC  0E00               	movlw	0
  2752  001CEE  0100               	movlb	0	; () banked
  2753  001CF0  6FEA               	movwf	(_hum_data+2)& (0+255),b
  2754                           
  2755                           ;weather-v2.c: 440: wind_dir_data = 0 ;
  2756  001CF2  0E00               	movlw	0
  2757  001CF4  0100               	movlb	0	; () banked
  2758  001CF6  6FD8               	movwf	(_wind_dir_data+1)& (0+255),b
  2759  001CF8  0E00               	movlw	0
  2760  001CFA  6FD7               	movwf	_wind_dir_data& (0+255),b
  2761                           
  2762                           ;weather-v2.c: 441: wind_vel = 0 ;
  2763  001CFC  0E00               	movlw	0
  2764  001CFE  0100               	movlb	0	; () banked
  2765  001D00  6FE5               	movwf	_wind_vel& (0+255),b
  2766  001D02  0E00               	movlw	0
  2767  001D04  0100               	movlb	0	; () banked
  2768  001D06  6FE6               	movwf	(_wind_vel+1)& (0+255),b
  2769  001D08  0E00               	movlw	0
  2770  001D0A  0100               	movlb	0	; () banked
  2771  001D0C  6FE7               	movwf	(_wind_vel+2)& (0+255),b
  2772                           
  2773                           ;weather-v2.c: 442: wind_count = 0 ;
  2774  001D0E  0E00               	movlw	0
  2775  001D10  0100               	movlb	0	; () banked
  2776  001D12  6FE2               	movwf	(_wind_count+1)& (0+255),b
  2777  001D14  0E00               	movlw	0
  2778  001D16  6FE1               	movwf	_wind_count& (0+255),b
  2779                           
  2780                           ;weather-v2.c: 443: rain_ = 0 ;
  2781  001D18  0E00               	movlw	0
  2782  001D1A  0100               	movlb	0	; () banked
  2783  001D1C  6FDE               	movwf	_rain_& (0+255),b
  2784                           
  2785                           ;weather-v2.c: 444: rain_count = 0 ;
  2786  001D1E  0E00               	movlw	0
  2787  001D20  0100               	movlb	0	; () banked
  2788  001D22  6FE0               	movwf	(_rain_count+1)& (0+255),b
  2789  001D24  0E00               	movlw	0
  2790  001D26  6FDF               	movwf	_rain_count& (0+255),b
  2791                           
  2792                           ;weather-v2.c: 446: for(temporary_i=0;temporary_i<25;temporary_i++)
  2793  001D28  0E00               	movlw	0
  2794  001D2A  0101               	movlb	1	; () banked
  2795  001D2C  6FD3               	movwf	init@temporary_i& (0+255),b
  2796  001D2E                     l5706:
  2797                           
  2798                           ; BSR set to: 1
  2799  001D2E  0E18               	movlw	24
  2800  001D30  0101               	movlb	1	; () banked
  2801  001D32  65D3               	cpfsgt	init@temporary_i& (0+255),b
  2802  001D34  D001               	goto	l5710
  2803  001D36  D02C               	goto	l263
  2804  001D38                     l5710:
  2805                           
  2806                           ; BSR set to: 1
  2807                           ;weather-v2.c: 447: {
  2808                           ;weather-v2.c: 448: temp_buffer[temporary_i] = 0 ;
  2809  001D38  0101               	movlb	1	; () banked
  2810  001D3A  51D3               	movf	init@temporary_i& (0+255),w,b
  2811  001D3C  0D03               	mullw	3
  2812  001D3E  0E00               	movlw	low _temp_buffer
  2813  001D40  24F3               	addwf	prodl,w,c
  2814  001D42  6ED9               	movwf	fsr2l,c
  2815  001D44  0E01               	movlw	high _temp_buffer
  2816  001D46  20F4               	addwfc	prodh,w,c
  2817  001D48  6EDA               	movwf	fsr2h,c
  2818  001D4A  0E00               	movlw	0
  2819  001D4C  6EDE               	movwf	postinc2,c
  2820  001D4E  0E00               	movlw	0
  2821  001D50  6EDE               	movwf	postinc2,c
  2822  001D52  0E00               	movlw	0
  2823  001D54  6EDE               	movwf	postinc2,c
  2824                           
  2825                           ;weather-v2.c: 449: hum_buffer[temporary_i] = 0 ;
  2826  001D56  0101               	movlb	1	; () banked
  2827  001D58  51D3               	movf	init@temporary_i& (0+255),w,b
  2828  001D5A  0D02               	mullw	2
  2829  001D5C  0E4B               	movlw	low _hum_buffer
  2830  001D5E  24F3               	addwf	prodl,w,c
  2831  001D60  6ED9               	movwf	fsr2l,c
  2832  001D62  0E01               	movlw	high _hum_buffer
  2833  001D64  20F4               	addwfc	prodh,w,c
  2834  001D66  6EDA               	movwf	fsr2h,c
  2835  001D68  0E00               	movlw	0
  2836  001D6A  6EDE               	movwf	postinc2,c
  2837  001D6C  0E00               	movlw	0
  2838  001D6E  6EDD               	movwf	postdec2,c
  2839                           
  2840                           ;weather-v2.c: 450: wind_dir_buffer[temporary_i]= 0 ;
  2841  001D70  0101               	movlb	1	; () banked
  2842  001D72  51D3               	movf	init@temporary_i& (0+255),w,b
  2843  001D74  0D02               	mullw	2
  2844  001D76  0E7D               	movlw	low _wind_dir_buffer
  2845  001D78  24F3               	addwf	prodl,w,c
  2846  001D7A  6ED9               	movwf	fsr2l,c
  2847  001D7C  0E01               	movlw	high _wind_dir_buffer
  2848  001D7E  20F4               	addwfc	prodh,w,c
  2849  001D80  6EDA               	movwf	fsr2h,c
  2850  001D82  0E00               	movlw	0
  2851  001D84  6EDE               	movwf	postinc2,c
  2852  001D86  0E00               	movlw	0
  2853  001D88  6EDD               	movwf	postdec2,c
  2854                           
  2855                           ; BSR set to: 1
  2856  001D8A  0101               	movlb	1	; () banked
  2857  001D8C  2BD3               	incf	init@temporary_i& (0+255),f,b
  2858  001D8E  D7CF               	goto	l5706
  2859  001D90                     l263:
  2860                           
  2861                           ; BSR set to: 1
  2862                           ;weather-v2.c: 451: }
  2863                           ;weather-v2.c: 455: TRISEbits.RE0 = 0;
  2864  001D90  9096               	bcf	3990,0,c	;volatile
  2865                           
  2866                           ;weather-v2.c: 456: TRISEbits.RE1 = 1;
  2867  001D92  8296               	bsf	3990,1,c	;volatile
  2868                           
  2869                           ;weather-v2.c: 457: TRISEbits.RE2 = 1;
  2870  001D94  8496               	bsf	3990,2,c	;volatile
  2871                           
  2872                           ;weather-v2.c: 459: PORTEbits.RE0 = 1;
  2873  001D96  8084               	bsf	3972,0,c	;volatile
  2874                           
  2875                           ; BSR set to: 1
  2876                           ;weather-v2.c: 460: LATE|=0X01;
  2877  001D98  808D               	bsf	3981,0,c	;volatile
  2878                           
  2879                           ; BSR set to: 1
  2880                           ;weather-v2.c: 465: TRISCbits.RC0=0;
  2881  001D9A  9094               	bcf	3988,0,c	;volatile
  2882                           
  2883                           ; BSR set to: 1
  2884                           ;weather-v2.c: 466: TRISCbits.RC5=0;
  2885  001D9C  9A94               	bcf	3988,5,c	;volatile
  2886                           
  2887                           ; BSR set to: 1
  2888                           ;weather-v2.c: 467: PORTCbits.RC0=0;
  2889  001D9E  9082               	bcf	3970,0,c	;volatile
  2890                           
  2891                           ; BSR set to: 1
  2892                           ;weather-v2.c: 468: PORTCbits.RC5=0;
  2893  001DA0  9A82               	bcf	3970,5,c	;volatile
  2894                           
  2895                           ; BSR set to: 1
  2896                           ;weather-v2.c: 472: TRISCbits.RC2 = 0 ;
  2897  001DA2  9494               	bcf	3988,2,c	;volatile
  2898                           
  2899                           ; BSR set to: 1
  2900                           ;weather-v2.c: 473: PORTCbits.RC2 = 1 ;
  2901  001DA4  8482               	bsf	3970,2,c	;volatile
  2902                           
  2903                           ; BSR set to: 1
  2904                           ;weather-v2.c: 476: TRISCbits.RC1 = 0 ;
  2905  001DA6  9294               	bcf	3988,1,c	;volatile
  2906                           
  2907                           ; BSR set to: 1
  2908                           ;weather-v2.c: 477: PORTCbits.RC1 = 0 ;
  2909  001DA8  9282               	bcf	3970,1,c	;volatile
  2910                           
  2911                           ; BSR set to: 1
  2912                           ;weather-v2.c: 480: TRISBbits.RB0 = 1 ;
  2913  001DAA  8093               	bsf	3987,0,c	;volatile
  2914                           
  2915                           ; BSR set to: 1
  2916                           ;weather-v2.c: 481: TRISBbits.RB1 = 1 ;
  2917  001DAC  8293               	bsf	3987,1,c	;volatile
  2918                           
  2919                           ; BSR set to: 1
  2920                           ;weather-v2.c: 485: TRISBbits.RB3 = 0 ;
  2921  001DAE  9693               	bcf	3987,3,c	;volatile
  2922                           
  2923                           ; BSR set to: 1
  2924                           ;weather-v2.c: 486: TRISBbits.RB4 = 0 ;
  2925  001DB0  9893               	bcf	3987,4,c	;volatile
  2926                           
  2927                           ; BSR set to: 1
  2928                           ;weather-v2.c: 487: PORTBbits.RB3 = 0 ;
  2929  001DB2  9681               	bcf	3969,3,c	;volatile
  2930                           
  2931                           ; BSR set to: 1
  2932                           ;weather-v2.c: 488: PORTBbits.RB4 = 0 ;
  2933  001DB4  9881               	bcf	3969,4,c	;volatile
  2934                           
  2935                           ; BSR set to: 1
  2936                           ;weather-v2.c: 491: TRISD = 0 ;
  2937  001DB6  0E00               	movlw	0
  2938  001DB8  6E95               	movwf	3989,c	;volatile
  2939                           
  2940                           ; BSR set to: 1
  2941                           ;weather-v2.c: 492: PORTD = 0 ;
  2942  001DBA  0E00               	movlw	0
  2943  001DBC  6E83               	movwf	3971,c	;volatile
  2944                           
  2945                           ; BSR set to: 1
  2946                           ;weather-v2.c: 497: TRISAbits.RA1 = 1 ;
  2947  001DBE  8292               	bsf	3986,1,c	;volatile
  2948                           
  2949                           ; BSR set to: 1
  2950                           ;weather-v2.c: 501: ADCON0bits.CHS3 = 0 ;
  2951  001DC0  9AC2               	bcf	4034,5,c	;volatile
  2952                           
  2953                           ; BSR set to: 1
  2954                           ;weather-v2.c: 502: ADCON0bits.CHS2 = 0 ;
  2955  001DC2  98C2               	bcf	4034,4,c	;volatile
  2956                           
  2957                           ; BSR set to: 1
  2958                           ;weather-v2.c: 503: ADCON0bits.CHS1 = 0 ;
  2959  001DC4  96C2               	bcf	4034,3,c	;volatile
  2960                           
  2961                           ; BSR set to: 1
  2962                           ;weather-v2.c: 504: ADCON0bits.CHS0 = 1 ;
  2963  001DC6  84C2               	bsf	4034,2,c	;volatile
  2964                           
  2965                           ; BSR set to: 1
  2966                           ;weather-v2.c: 505: ADCON0bits.GO_NOT_DONE = 0 ;
  2967  001DC8  92C2               	bcf	4034,1,c	;volatile
  2968                           
  2969                           ; BSR set to: 1
  2970                           ;weather-v2.c: 506: ADCON0bits.ADON = 0 ;
  2971  001DCA  90C2               	bcf	4034,0,c	;volatile
  2972                           
  2973                           ; BSR set to: 1
  2974                           ;weather-v2.c: 510: ADCON1bits.VCFG1 = 0 ;
  2975  001DCC  9AC1               	bcf	4033,5,c	;volatile
  2976                           
  2977                           ; BSR set to: 1
  2978                           ;weather-v2.c: 511: ADCON1bits.VCFG0 = 0 ;
  2979  001DCE  98C1               	bcf	4033,4,c	;volatile
  2980                           
  2981                           ; BSR set to: 1
  2982                           ;weather-v2.c: 512: ADCON1bits.PCFG3 = 1 ;
  2983  001DD0  86C1               	bsf	4033,3,c	;volatile
  2984                           
  2985                           ; BSR set to: 1
  2986                           ;weather-v2.c: 513: ADCON1bits.PCFG2 = 1 ;
  2987  001DD2  84C1               	bsf	4033,2,c	;volatile
  2988                           
  2989                           ; BSR set to: 1
  2990                           ;weather-v2.c: 514: ADCON1bits.PCFG1 = 0 ;
  2991  001DD4  92C1               	bcf	4033,1,c	;volatile
  2992                           
  2993                           ; BSR set to: 1
  2994                           ;weather-v2.c: 515: ADCON1bits.PCFG0 = 1 ;
  2995  001DD6  80C1               	bsf	4033,0,c	;volatile
  2996                           
  2997                           ; BSR set to: 1
  2998                           ;weather-v2.c: 519: ADCON2bits.ADFM = 0 ;
  2999  001DD8  9EC0               	bcf	4032,7,c	;volatile
  3000                           
  3001                           ; BSR set to: 1
  3002                           ;weather-v2.c: 520: ADCON2bits.ACQT2 = 0 ;
  3003  001DDA  9AC0               	bcf	4032,5,c	;volatile
  3004                           
  3005                           ; BSR set to: 1
  3006                           ;weather-v2.c: 521: ADCON2bits.ACQT1 = 0 ;
  3007  001DDC  98C0               	bcf	4032,4,c	;volatile
  3008                           
  3009                           ; BSR set to: 1
  3010                           ;weather-v2.c: 522: ADCON2bits.ACQT0 = 0 ;
  3011  001DDE  96C0               	bcf	4032,3,c	;volatile
  3012                           
  3013                           ; BSR set to: 1
  3014                           ;weather-v2.c: 523: ADCON2bits.ADCS2 = 1 ;
  3015  001DE0  84C0               	bsf	4032,2,c	;volatile
  3016                           
  3017                           ; BSR set to: 1
  3018                           ;weather-v2.c: 524: ADCON2bits.ADCS1 = 1 ;
  3019  001DE2  82C0               	bsf	4032,1,c	;volatile
  3020                           
  3021                           ; BSR set to: 1
  3022                           ;weather-v2.c: 525: ADCON2bits.ADCS0 = 0 ;
  3023  001DE4  90C0               	bcf	4032,0,c	;volatile
  3024                           
  3025                           ; BSR set to: 1
  3026                           ;weather-v2.c: 557: T0CON = 0X03 ;
  3027  001DE6  0E03               	movlw	3
  3028  001DE8  6ED5               	movwf	4053,c	;volatile
  3029                           
  3030                           ; BSR set to: 1
  3031                           ;weather-v2.c: 558: TMR0 = 0xBDC ;
  3032  001DEA  0E0B               	movlw	11
  3033  001DEC  6ED7               	movwf	4055,c	;volatile
  3034  001DEE  0EDC               	movlw	220
  3035  001DF0  6ED6               	movwf	4054,c	;volatile
  3036                           
  3037                           ; BSR set to: 1
  3038                           ;weather-v2.c: 559: TMR0 = 0xC2F7;
  3039  001DF2  0EC2               	movlw	194
  3040  001DF4  6ED7               	movwf	4055,c	;volatile
  3041  001DF6  0EF7               	movlw	247
  3042  001DF8  6ED6               	movwf	4054,c	;volatile
  3043                           
  3044                           ; BSR set to: 1
  3045                           ;weather-v2.c: 575: T1CON = 0XB4 ;
  3046  001DFA  0EB4               	movlw	180
  3047  001DFC  6ECD               	movwf	4045,c	;volatile
  3048                           
  3049                           ; BSR set to: 1
  3050                           ;weather-v2.c: 576: TMR1 = 0x0BDC ;
  3051  001DFE  0E0B               	movlw	11
  3052  001E00  6ECF               	movwf	4047,c	;volatile
  3053  001E02  0EDC               	movlw	220
  3054  001E04  6ECE               	movwf	4046,c	;volatile
  3055                           
  3056                           ; BSR set to: 1
  3057                           ;weather-v2.c: 587: T2CONbits.T2OUTPS3 = 0 ;
  3058  001E06  9CCA               	bcf	4042,6,c	;volatile
  3059                           
  3060                           ; BSR set to: 1
  3061                           ;weather-v2.c: 588: T2CONbits.T2OUTPS2 = 0 ;
  3062  001E08  9ACA               	bcf	4042,5,c	;volatile
  3063                           
  3064                           ; BSR set to: 1
  3065                           ;weather-v2.c: 589: T2CONbits.T2OUTPS1 = 0 ;
  3066  001E0A  98CA               	bcf	4042,4,c	;volatile
  3067                           
  3068                           ; BSR set to: 1
  3069                           ;weather-v2.c: 590: T2CONbits.T2OUTPS0 = 0 ;
  3070  001E0C  96CA               	bcf	4042,3,c	;volatile
  3071                           
  3072                           ; BSR set to: 1
  3073                           ;weather-v2.c: 591: T2CONbits.TMR2ON = 0 ;
  3074  001E0E  94CA               	bcf	4042,2,c	;volatile
  3075                           
  3076                           ; BSR set to: 1
  3077                           ;weather-v2.c: 592: T2CONbits.T2CKPS1 = 1 ;
  3078  001E10  82CA               	bsf	4042,1,c	;volatile
  3079                           
  3080                           ; BSR set to: 1
  3081                           ;weather-v2.c: 593: T2CONbits.T2CKPS0 = 0 ;
  3082  001E12  90CA               	bcf	4042,0,c	;volatile
  3083                           
  3084                           ; BSR set to: 1
  3085                           ;weather-v2.c: 595: TMR2 = 0 ;
  3086  001E14  0E00               	movlw	0
  3087  001E16  6ECC               	movwf	4044,c	;volatile
  3088                           
  3089                           ; BSR set to: 1
  3090                           ;weather-v2.c: 596: PR2 = 250 ;
  3091  001E18  0EFA               	movlw	250
  3092  001E1A  6ECB               	movwf	4043,c	;volatile
  3093                           
  3094                           ; BSR set to: 1
  3095                           ;weather-v2.c: 606: T3CONbits.TMR3ON = 0;
  3096  001E1C  90B1               	bcf	4017,0,c	;volatile
  3097                           
  3098                           ; BSR set to: 1
  3099                           ;weather-v2.c: 607: T3CONbits.RD16 = 0;
  3100  001E1E  9EB1               	bcf	4017,7,c	;volatile
  3101                           
  3102                           ; BSR set to: 1
  3103                           ;weather-v2.c: 608: T3CONbits.T3CKPS1= 0 ;
  3104  001E20  9AB1               	bcf	4017,5,c	;volatile
  3105                           
  3106                           ; BSR set to: 1
  3107                           ;weather-v2.c: 609: T3CONbits.T3CKPS0 = 0 ;
  3108  001E22  98B1               	bcf	4017,4,c	;volatile
  3109                           
  3110                           ; BSR set to: 1
  3111                           ;weather-v2.c: 610: T3CONbits.TMR3CS = 0 ;
  3112  001E24  92B1               	bcf	4017,1,c	;volatile
  3113                           
  3114                           ; BSR set to: 1
  3115  001E26  0012               	return		;funcret
  3116  001E28                     __end_of_init:
  3117                           	opt stack 0
  3118                           tblptru	equ	0xFF8
  3119                           tblptrh	equ	0xFF7
  3120                           tblptrl	equ	0xFF6
  3121                           tablat	equ	0xFF5
  3122                           prodh	equ	0xFF4
  3123                           prodl	equ	0xFF3
  3124                           intcon	equ	0xFF2
  3125                           intcon2	equ	0xFF1
  3126                           intcon3	equ	0xFF0
  3127                           postinc0	equ	0xFEE
  3128                           wreg	equ	0xFE8
  3129                           indf2	equ	0xFDF
  3130                           postinc2	equ	0xFDE
  3131                           postdec2	equ	0xFDD
  3132                           fsr2h	equ	0xFDA
  3133                           fsr2l	equ	0xFD9
  3134                           status	equ	0xFD8
  3135                           
  3136 ;; *************** function _i2c_init *****************
  3137 ;; Defined at:
  3138 ;;		line 682 in file "weather-v2.c"
  3139 ;; Parameters:    Size  Location     Type
  3140 ;;		None
  3141 ;; Auto vars:     Size  Location     Type
  3142 ;;		None
  3143 ;; Return value:  Size  Location     Type
  3144 ;;		None               void
  3145 ;; Registers used:
  3146 ;;		wreg, status,2
  3147 ;; Tracked objects:
  3148 ;;		On entry : 0/0
  3149 ;;		On exit  : 0/0
  3150 ;;		Unchanged: 0/0
  3151 ;; Data sizes:     COMRAM   BANK0   BANK1   BANK2
  3152 ;;      Params:         0       0       0       0
  3153 ;;      Locals:         0       0       0       0
  3154 ;;      Temps:          0       0       0       0
  3155 ;;      Totals:         0       0       0       0
  3156 ;;Total ram usage:        0 bytes
  3157 ;; Hardware stack levels used:    1
  3158 ;; Hardware stack levels required when called:    8
  3159 ;; This function calls:
  3160 ;;		Nothing
  3161 ;; This function is called by:
  3162 ;;		_main
  3163 ;; This function uses a non-reentrant model
  3164 ;;
  3165                           
  3166                           	psect	text12
  3167  003052                     __ptext12:
  3168                           	opt stack 0
  3169  003052                     _i2c_init:
  3170                           	opt stack 22
  3171                           
  3172                           ;weather-v2.c: 684: TRISCbits.RC3 = 1 ;
  3173                           
  3174                           ; BSR set to: 1
  3175                           ;incstack = 0
  3176  003052  8694               	bsf	3988,3,c	;volatile
  3177                           
  3178                           ;weather-v2.c: 685: TRISCbits.RC4 = 1 ;
  3179  003054  8894               	bsf	3988,4,c	;volatile
  3180                           
  3181                           ;weather-v2.c: 688: SSPSTATbits.SMP = 1;
  3182  003056  8EC7               	bsf	4039,7,c	;volatile
  3183                           
  3184                           ;weather-v2.c: 689: SSPSTATbits.CKE = 0;
  3185  003058  9CC7               	bcf	4039,6,c	;volatile
  3186                           
  3187                           ;weather-v2.c: 695: SSPCON1bits.SSPEN = 0;
  3188  00305A  9AC6               	bcf	4038,5,c	;volatile
  3189                           
  3190                           ;weather-v2.c: 697: SSPCON1bits.SSPM3 = 1;
  3191  00305C  86C6               	bsf	4038,3,c	;volatile
  3192                           
  3193                           ;weather-v2.c: 698: SSPCON1bits.SSPM2 = 0;
  3194  00305E  94C6               	bcf	4038,2,c	;volatile
  3195                           
  3196                           ;weather-v2.c: 699: SSPCON1bits.SSPM1 = 0;
  3197  003060  92C6               	bcf	4038,1,c	;volatile
  3198                           
  3199                           ;weather-v2.c: 700: SSPCON1bits.SSPM0 = 0;
  3200  003062  90C6               	bcf	4038,0,c	;volatile
  3201                           
  3202                           ;weather-v2.c: 707: SSPCON2bits.ACKEN = 0;
  3203  003064  98C5               	bcf	4037,4,c	;volatile
  3204                           
  3205                           ;weather-v2.c: 708: SSPCON2bits.RCEN = 0;
  3206  003066  96C5               	bcf	4037,3,c	;volatile
  3207                           
  3208                           ;weather-v2.c: 709: SSPCON2bits.PEN = 0;
  3209  003068  94C5               	bcf	4037,2,c	;volatile
  3210                           
  3211                           ;weather-v2.c: 710: SSPCON2bits.RSEN = 0;
  3212  00306A  92C5               	bcf	4037,1,c	;volatile
  3213                           
  3214                           ;weather-v2.c: 711: SSPCON2bits.SEN = 0;
  3215  00306C  90C5               	bcf	4037,0,c	;volatile
  3216                           
  3217                           ;weather-v2.c: 713: SSPADD = 0x06 ;
  3218  00306E  0E06               	movlw	6
  3219  003070  6EC8               	movwf	4040,c	;volatile
  3220  003072  0012               	return		;funcret
  3221  003074                     __end_of_i2c_init:
  3222                           	opt stack 0
  3223                           tblptru	equ	0xFF8
  3224                           tblptrh	equ	0xFF7
  3225                           tblptrl	equ	0xFF6
  3226                           tablat	equ	0xFF5
  3227                           prodh	equ	0xFF4
  3228                           prodl	equ	0xFF3
  3229                           intcon	equ	0xFF2
  3230                           intcon2	equ	0xFF1
  3231                           intcon3	equ	0xFF0
  3232                           postinc0	equ	0xFEE
  3233                           wreg	equ	0xFE8
  3234                           indf2	equ	0xFDF
  3235                           postinc2	equ	0xFDE
  3236                           postdec2	equ	0xFDD
  3237                           fsr2h	equ	0xFDA
  3238                           fsr2l	equ	0xFD9
  3239                           status	equ	0xFD8
  3240                           
  3241 ;; *************** function _low_isr *****************
  3242 ;; Defined at:
  3243 ;;		line 1795 in file "weather-v2.c"
  3244 ;; Parameters:    Size  Location     Type
  3245 ;;		None
  3246 ;; Auto vars:     Size  Location     Type
  3247 ;;		None
  3248 ;; Return value:  Size  Location     Type
  3249 ;;		None               void
  3250 ;; Registers used:
  3251 ;;		wreg, fsr2l, fsr2h, status,2, status,0, tblptrl, tblptrh, tblptru, prodl, prodh, cstack
  3252 ;; Tracked objects:
  3253 ;;		On entry : 0/0
  3254 ;;		On exit  : 0/0
  3255 ;;		Unchanged: 0/0
  3256 ;; Data sizes:     COMRAM   BANK0   BANK1   BANK2
  3257 ;;      Params:         0       0       0       0
  3258 ;;      Locals:         0       0       0       0
  3259 ;;      Temps:         17       0       0       0
  3260 ;;      Totals:        17       0       0       0
  3261 ;;Total ram usage:       17 bytes
  3262 ;; Hardware stack levels used:    1
  3263 ;; Hardware stack levels required when called:    7
  3264 ;; This function calls:
  3265 ;;		_bin_io
  3266 ;;		_bin_io_lcd
  3267 ;;		_bin_udp
  3268 ;; This function is called by:
  3269 ;;		Interrupt level 1
  3270 ;; This function uses a non-reentrant model
  3271 ;;
  3272                           
  3273                           	psect	intcodelo
  3274  000018                     __pintcodelo:
  3275                           	opt stack 0
  3276  000018                     _low_isr:
  3277                           	opt stack 20
  3278                           
  3279                           ;incstack = 0
  3280  000018  8041               	bsf	btemp,0,c	;set compiler interrupt flag (level 1)
  3281  00001A  CFD8 F011          	movff	status,??_low_isr
  3282  00001E  CFE8 F012          	movff	wreg,??_low_isr+1
  3283  000022  CFE0 F013          	movff	bsr,??_low_isr+2
  3284  000026  CFFA F014          	movff	pclath,??_low_isr+3
  3285  00002A  CFFB F015          	movff	pclatu,??_low_isr+4
  3286  00002E  CFE9 F016          	movff	fsr0l,??_low_isr+5
  3287  000032  CFEA F017          	movff	fsr0h,??_low_isr+6
  3288  000036  CFE1 F018          	movff	fsr1l,??_low_isr+7
  3289  00003A  CFE2 F019          	movff	fsr1h,??_low_isr+8
  3290  00003E  CFD9 F01A          	movff	fsr2l,??_low_isr+9
  3291  000042  CFDA F01B          	movff	fsr2h,??_low_isr+10
  3292  000046  CFF3 F01C          	movff	prodl,??_low_isr+11
  3293  00004A  CFF4 F01D          	movff	prodh,??_low_isr+12
  3294  00004E  CFF6 F01E          	movff	tblptrl,??_low_isr+13
  3295  000052  CFF7 F01F          	movff	tblptrh,??_low_isr+14
  3296  000056  CFF8 F020          	movff	tblptru,??_low_isr+15
  3297  00005A  CFF5 F021          	movff	tablat,??_low_isr+16
  3298                           
  3299                           ;weather-v2.c: 1798: if(PIR1bits.TMR1IF)
  3300  00005E  A09E               	btfss	3998,0,c	;volatile
  3301  000060  D03E               	goto	i1l800
  3302                           
  3303                           ;weather-v2.c: 1799: {
  3304                           ;weather-v2.c: 1800: PIR1bits.TMR1IF = 0;
  3305  000062  909E               	bcf	3998,0,c	;volatile
  3306                           
  3307                           ;weather-v2.c: 1801: TMR1 = 0x0BDC ;
  3308  000064  0E0B               	movlw	11
  3309  000066  6ECF               	movwf	4047,c	;volatile
  3310  000068  0EDC               	movlw	220
  3311  00006A  6ECE               	movwf	4046,c	;volatile
  3312                           
  3313                           ;weather-v2.c: 1803: inte_data_counter++;
  3314  00006C  4A24               	infsnz	_inte_data_counter,f,c
  3315  00006E  2A25               	incf	_inte_data_counter+1,f,c
  3316                           
  3317                           ;weather-v2.c: 1806: if(inte_data_counter==25)
  3318  000070  0E19               	movlw	25
  3319  000072  1824               	xorwf	_inte_data_counter,w,c
  3320  000074  1025               	iorwf	_inte_data_counter+1,w,c
  3321  000076  A4D8               	btfss	status,2,c
  3322  000078  D032               	goto	i1l800
  3323                           
  3324                           ;weather-v2.c: 1807: {
  3325                           ;weather-v2.c: 1808: inte_data_counter=0;
  3326  00007A  0E00               	movlw	0
  3327  00007C  6E25               	movwf	_inte_data_counter+1,c
  3328  00007E  0E00               	movlw	0
  3329  000080  6E24               	movwf	_inte_data_counter,c
  3330                           
  3331                           ;weather-v2.c: 1810: bin_io_lcd();
  3332  000082  ECA3  F012         	call	_bin_io_lcd	;wreg free
  3333                           
  3334                           ;weather-v2.c: 1812: if(!PORTEbits.RE1)
  3335  000086  B284               	btfsc	3972,1,c	;volatile
  3336  000088  D021               	goto	i1l5394
  3337                           
  3338                           ;weather-v2.c: 1813: {
  3339                           ;weather-v2.c: 1814: LATE &= 0xFE ;
  3340  00008A  908D               	bcf	3981,0,c	;volatile
  3341                           
  3342                           ;weather-v2.c: 1816: T2CONbits.TMR2ON = 0;
  3343  00008C  94CA               	bcf	4042,2,c	;volatile
  3344                           
  3345                           ;weather-v2.c: 1817: PIR1bits.TMR2IF = 0;
  3346  00008E  929E               	bcf	3998,1,c	;volatile
  3347                           
  3348                           ;weather-v2.c: 1818: TMR2 = 0 ;
  3349  000090  0E00               	movlw	0
  3350  000092  6ECC               	movwf	4044,c	;volatile
  3351                           
  3352                           ;weather-v2.c: 1819: T2CONbits.TMR2ON = 1;
  3353  000094  84CA               	bsf	4042,2,c	;volatile
  3354  000096                     i1l790:
  3355  000096  A29E               	btfss	3998,1,c	;volatile
  3356  000098  D7FE               	goto	i1l790
  3357                           
  3358                           ;weather-v2.c: 1822: LATE |= 0x01 ;
  3359  00009A  808D               	bsf	3981,0,c	;volatile
  3360                           
  3361                           ;weather-v2.c: 1824: for(extend_timer = 0 ;extend_timer<1000;extend_timer++)
  3362  00009C  0E00               	movlw	0
  3363  00009E  0101               	movlb	1	; () banked
  3364  0000A0  6FB0               	movwf	(_extend_timer+1)& (0+255),b
  3365  0000A2  0E00               	movlw	0
  3366  0000A4  6FAF               	movwf	_extend_timer& (0+255),b
  3367  0000A6                     i1l5382:
  3368                           
  3369                           ; BSR set to: 1
  3370  0000A6  0EE8               	movlw	232
  3371  0000A8  0101               	movlb	1	; () banked
  3372  0000AA  5DAF               	subwf	_extend_timer& (0+255),w,b
  3373  0000AC  0E03               	movlw	3
  3374  0000AE  0101               	movlb	1	; () banked
  3375  0000B0  59B0               	subwfb	(_extend_timer+1)& (0+255),w,b
  3376  0000B2  B0D8               	btfsc	status,0,c
  3377  0000B4  D00B               	goto	i1l5394
  3378                           
  3379                           ; BSR set to: 1
  3380                           ;weather-v2.c: 1825: {
  3381                           ;weather-v2.c: 1826: T2CONbits.TMR2ON = 0;
  3382                           
  3383                           ; BSR set to: 1
  3384  0000B6  94CA               	bcf	4042,2,c	;volatile
  3385                           
  3386                           ;weather-v2.c: 1827: PIR1bits.TMR2IF = 0;
  3387  0000B8  929E               	bcf	3998,1,c	;volatile
  3388                           
  3389                           ; BSR set to: 1
  3390                           ;weather-v2.c: 1828: TMR2 = 0 ;
  3391  0000BA  0E00               	movlw	0
  3392  0000BC  6ECC               	movwf	4044,c	;volatile
  3393                           
  3394                           ; BSR set to: 1
  3395                           ;weather-v2.c: 1829: T2CONbits.TMR2ON = 1;
  3396  0000BE  84CA               	bsf	4042,2,c	;volatile
  3397  0000C0                     i1l795:
  3398  0000C0  A29E               	btfss	3998,1,c	;volatile
  3399  0000C2  D7FE               	goto	i1l795
  3400  0000C4  0101               	movlb	1	; () banked
  3401  0000C6  4BAF               	infsnz	_extend_timer& (0+255),f,b
  3402  0000C8  2BB0               	incf	(_extend_timer+1)& (0+255),f,b
  3403  0000CA  D7ED               	goto	i1l5382
  3404  0000CC                     i1l5394:
  3405                           
  3406                           ;weather-v2.c: 1832: }
  3407                           ;weather-v2.c: 1833: }
  3408                           ;weather-v2.c: 1837: if(en_udp)
  3409  0000CC  503E               	movf	_en_udp,w,c
  3410  0000CE  B4D8               	btfsc	status,2,c
  3411  0000D0  D003               	goto	i1l5398
  3412                           
  3413                           ;weather-v2.c: 1838: bin_udp();
  3414  0000D2  EC71  F008         	call	_bin_udp	;wreg free
  3415  0000D6  D002               	goto	i1l799
  3416  0000D8                     i1l5398:
  3417                           
  3418                           ;weather-v2.c: 1839: else
  3419                           ;weather-v2.c: 1840: bin_io();
  3420  0000D8  ECE0  F00B         	call	_bin_io	;wreg free
  3421  0000DC                     i1l799:
  3422  0000DC  0004               	clrwdt		;# 
  3423  0000DE                     i1l800:
  3424  0000DE  C021  FFF5         	movff	??_low_isr+16,tablat
  3425  0000E2  C020  FFF8         	movff	??_low_isr+15,tblptru
  3426  0000E6  C01F  FFF7         	movff	??_low_isr+14,tblptrh
  3427  0000EA  C01E  FFF6         	movff	??_low_isr+13,tblptrl
  3428  0000EE  C01D  FFF4         	movff	??_low_isr+12,prodh
  3429  0000F2  C01C  FFF3         	movff	??_low_isr+11,prodl
  3430  0000F6  C01B  FFDA         	movff	??_low_isr+10,fsr2h
  3431  0000FA  C01A  FFD9         	movff	??_low_isr+9,fsr2l
  3432  0000FE  C019  FFE2         	movff	??_low_isr+8,fsr1h
  3433  000102  C018  FFE1         	movff	??_low_isr+7,fsr1l
  3434  000106  C017  FFEA         	movff	??_low_isr+6,fsr0h
  3435  00010A  C016  FFE9         	movff	??_low_isr+5,fsr0l
  3436  00010E  C015  FFFB         	movff	??_low_isr+4,pclatu
  3437  000112  C014  FFFA         	movff	??_low_isr+3,pclath
  3438  000116  C013  FFE0         	movff	??_low_isr+2,bsr
  3439  00011A  C012  FFE8         	movff	??_low_isr+1,wreg
  3440  00011E  C011  FFD8         	movff	??_low_isr,status
  3441  000122  9041               	bcf	btemp,0,c	;clear compiler interrupt flag (level 1)
  3442  000124  0010               	retfie	
  3443  000126                     __end_of_low_isr:
  3444                           	opt stack 0
  3445                           pclatu	equ	0xFFB
  3446                           pclath	equ	0xFFA
  3447                           tblptru	equ	0xFF8
  3448                           tblptrh	equ	0xFF7
  3449                           tblptrl	equ	0xFF6
  3450                           tablat	equ	0xFF5
  3451                           prodh	equ	0xFF4
  3452                           prodl	equ	0xFF3
  3453                           intcon	equ	0xFF2
  3454                           intcon2	equ	0xFF1
  3455                           intcon3	equ	0xFF0
  3456                           postinc0	equ	0xFEE
  3457                           fsr0h	equ	0xFEA
  3458                           fsr0l	equ	0xFE9
  3459                           wreg	equ	0xFE8
  3460                           fsr1h	equ	0xFE2
  3461                           fsr1l	equ	0xFE1
  3462                           bsr	equ	0xFE0
  3463                           indf2	equ	0xFDF
  3464                           postinc2	equ	0xFDE
  3465                           postdec2	equ	0xFDD
  3466                           fsr2h	equ	0xFDA
  3467                           fsr2l	equ	0xFD9
  3468                           status	equ	0xFD8
  3469                           
  3470 ;; *************** function _bin_udp *****************
  3471 ;; Defined at:
  3472 ;;		line 1290 in file "weather-v2.c"
  3473 ;; Parameters:    Size  Location     Type
  3474 ;;		None
  3475 ;; Auto vars:     Size  Location     Type
  3476 ;;		None
  3477 ;; Return value:  Size  Location     Type
  3478 ;;		None               void
  3479 ;; Registers used:
  3480 ;;		wreg, status,2, status,0, cstack
  3481 ;; Tracked objects:
  3482 ;;		On entry : 0/0
  3483 ;;		On exit  : 0/0
  3484 ;;		Unchanged: 0/0
  3485 ;; Data sizes:     COMRAM   BANK0   BANK1   BANK2
  3486 ;;      Params:         0       0       0       0
  3487 ;;      Locals:         0       0       0       0
  3488 ;;      Temps:          0       0       0       0
  3489 ;;      Totals:         0       0       0       0
  3490 ;;Total ram usage:        0 bytes
  3491 ;; Hardware stack levels used:    1
  3492 ;; Hardware stack levels required when called:    4
  3493 ;; This function calls:
  3494 ;;		___lwdiv
  3495 ;;		___lwmod
  3496 ;; This function is called by:
  3497 ;;		_low_isr
  3498 ;; This function uses a non-reentrant model
  3499 ;;
  3500                           
  3501                           	psect	text14
  3502  0010E2                     __ptext14:
  3503                           	opt stack 0
  3504  0010E2                     _bin_udp:
  3505                           	opt stack 22
  3506                           
  3507                           ;weather-v2.c: 1292: checksum =0;
  3508                           
  3509                           ;incstack = 0
  3510  0010E2  0E00               	movlw	0
  3511  0010E4  6E23               	movwf	_checksum+1,c
  3512  0010E6  0E00               	movlw	0
  3513  0010E8  6E22               	movwf	_checksum,c
  3514                           
  3515                           ;weather-v2.c: 1294: tx_char = '$' ;
  3516  0010EA  0E24               	movlw	36
  3517  0010EC  6E32               	movwf	_tx_char,c
  3518                           
  3519                           ;weather-v2.c: 1295: TXREG = tx_char;
  3520  0010EE  C032  FFAD         	movff	_tx_char,4013	;volatile
  3521  0010F2                     i1l567:
  3522  0010F2  A2AC               	btfss	4012,1,c	;volatile
  3523  0010F4  D7FE               	goto	i1l567
  3524                           
  3525                           ;weather-v2.c: 1297: checksum+=tx_char;
  3526  0010F6  5032               	movf	_tx_char,w,c
  3527  0010F8  2622               	addwf	_checksum,f,c
  3528  0010FA  0E00               	movlw	0
  3529  0010FC  2223               	addwfc	_checksum+1,f,c
  3530                           
  3531                           ;weather-v2.c: 1300: tx_char = '0';
  3532  0010FE  0E30               	movlw	48
  3533  001100  6E32               	movwf	_tx_char,c
  3534                           
  3535                           ;weather-v2.c: 1301: TXREG = tx_char;
  3536  001102  C032  FFAD         	movff	_tx_char,4013	;volatile
  3537  001106                     i1l570:
  3538  001106  A2AC               	btfss	4012,1,c	;volatile
  3539  001108  D7FE               	goto	i1l570
  3540                           
  3541                           ;weather-v2.c: 1303: checksum+=tx_char;
  3542  00110A  5032               	movf	_tx_char,w,c
  3543  00110C  2622               	addwf	_checksum,f,c
  3544  00110E  0E00               	movlw	0
  3545  001110  2223               	addwfc	_checksum+1,f,c
  3546                           
  3547                           ;weather-v2.c: 1305: tx_char = '1';
  3548  001112  0E31               	movlw	49
  3549  001114  6E32               	movwf	_tx_char,c
  3550                           
  3551                           ;weather-v2.c: 1306: TXREG = tx_char;
  3552  001116  C032  FFAD         	movff	_tx_char,4013	;volatile
  3553  00111A                     i1l573:
  3554  00111A  A2AC               	btfss	4012,1,c	;volatile
  3555  00111C  D7FE               	goto	i1l573
  3556                           
  3557                           ;weather-v2.c: 1308: checksum+=tx_char;
  3558  00111E  5032               	movf	_tx_char,w,c
  3559  001120  2622               	addwf	_checksum,f,c
  3560  001122  0E00               	movlw	0
  3561  001124  2223               	addwfc	_checksum+1,f,c
  3562                           
  3563                           ;weather-v2.c: 1310: tx_char = ',';
  3564  001126  0E2C               	movlw	44
  3565  001128  6E32               	movwf	_tx_char,c
  3566                           
  3567                           ;weather-v2.c: 1311: TXREG = tx_char;
  3568  00112A  C032  FFAD         	movff	_tx_char,4013	;volatile
  3569  00112E                     i1l576:
  3570  00112E  A2AC               	btfss	4012,1,c	;volatile
  3571  001130  D7FE               	goto	i1l576
  3572                           
  3573                           ;weather-v2.c: 1313: checksum+=tx_char;
  3574  001132  5032               	movf	_tx_char,w,c
  3575  001134  2622               	addwf	_checksum,f,c
  3576  001136  0E00               	movlw	0
  3577  001138  2223               	addwfc	_checksum+1,f,c
  3578                           
  3579                           ;weather-v2.c: 1316: tx_char = '0';
  3580  00113A  0E30               	movlw	48
  3581  00113C  6E32               	movwf	_tx_char,c
  3582                           
  3583                           ;weather-v2.c: 1317: TXREG = tx_char;
  3584  00113E  C032  FFAD         	movff	_tx_char,4013	;volatile
  3585  001142                     i1l579:
  3586  001142  A2AC               	btfss	4012,1,c	;volatile
  3587  001144  D7FE               	goto	i1l579
  3588                           
  3589                           ;weather-v2.c: 1319: checksum+=tx_char;
  3590  001146  5032               	movf	_tx_char,w,c
  3591  001148  2622               	addwf	_checksum,f,c
  3592  00114A  0E00               	movlw	0
  3593  00114C  2223               	addwfc	_checksum+1,f,c
  3594                           
  3595                           ;weather-v2.c: 1322: tx_char = '0';
  3596  00114E  0E30               	movlw	48
  3597  001150  6E32               	movwf	_tx_char,c
  3598                           
  3599                           ;weather-v2.c: 1323: TXREG = tx_char;
  3600  001152  C032  FFAD         	movff	_tx_char,4013	;volatile
  3601  001156                     i1l582:
  3602  001156  A2AC               	btfss	4012,1,c	;volatile
  3603  001158  D7FE               	goto	i1l582
  3604                           
  3605                           ;weather-v2.c: 1325: checksum+=tx_char;
  3606  00115A  5032               	movf	_tx_char,w,c
  3607  00115C  2622               	addwf	_checksum,f,c
  3608  00115E  0E00               	movlw	0
  3609  001160  2223               	addwfc	_checksum+1,f,c
  3610                           
  3611                           ;weather-v2.c: 1327: tx_char = '0';
  3612  001162  0E30               	movlw	48
  3613  001164  6E32               	movwf	_tx_char,c
  3614                           
  3615                           ;weather-v2.c: 1328: TXREG = tx_char;
  3616  001166  C032  FFAD         	movff	_tx_char,4013	;volatile
  3617  00116A                     i1l585:
  3618  00116A  A2AC               	btfss	4012,1,c	;volatile
  3619  00116C  D7FE               	goto	i1l585
  3620                           
  3621                           ;weather-v2.c: 1330: checksum+=tx_char;
  3622  00116E  5032               	movf	_tx_char,w,c
  3623  001170  2622               	addwf	_checksum,f,c
  3624  001172  0E00               	movlw	0
  3625  001174  2223               	addwfc	_checksum+1,f,c
  3626                           
  3627                           ;weather-v2.c: 1332: tx_char = '0';
  3628  001176  0E30               	movlw	48
  3629  001178  6E32               	movwf	_tx_char,c
  3630                           
  3631                           ;weather-v2.c: 1333: TXREG = tx_char;
  3632  00117A  C032  FFAD         	movff	_tx_char,4013	;volatile
  3633  00117E                     i1l588:
  3634  00117E  A2AC               	btfss	4012,1,c	;volatile
  3635  001180  D7FE               	goto	i1l588
  3636                           
  3637                           ;weather-v2.c: 1335: checksum+=tx_char;
  3638  001182  5032               	movf	_tx_char,w,c
  3639  001184  2622               	addwf	_checksum,f,c
  3640  001186  0E00               	movlw	0
  3641  001188  2223               	addwfc	_checksum+1,f,c
  3642                           
  3643                           ;weather-v2.c: 1337: tx_char = '0';
  3644  00118A  0E30               	movlw	48
  3645  00118C  6E32               	movwf	_tx_char,c
  3646                           
  3647                           ;weather-v2.c: 1338: TXREG = tx_char;
  3648  00118E  C032  FFAD         	movff	_tx_char,4013	;volatile
  3649  001192                     i1l591:
  3650  001192  A2AC               	btfss	4012,1,c	;volatile
  3651  001194  D7FE               	goto	i1l591
  3652                           
  3653                           ;weather-v2.c: 1340: checksum+=tx_char;
  3654  001196  5032               	movf	_tx_char,w,c
  3655  001198  2622               	addwf	_checksum,f,c
  3656  00119A  0E00               	movlw	0
  3657  00119C  2223               	addwfc	_checksum+1,f,c
  3658                           
  3659                           ;weather-v2.c: 1342: tx_char = '0';
  3660  00119E  0E30               	movlw	48
  3661  0011A0  6E32               	movwf	_tx_char,c
  3662                           
  3663                           ;weather-v2.c: 1343: TXREG = tx_char;
  3664  0011A2  C032  FFAD         	movff	_tx_char,4013	;volatile
  3665  0011A6                     i1l594:
  3666  0011A6  A2AC               	btfss	4012,1,c	;volatile
  3667  0011A8  D7FE               	goto	i1l594
  3668                           
  3669                           ;weather-v2.c: 1345: checksum+=tx_char;
  3670  0011AA  5032               	movf	_tx_char,w,c
  3671  0011AC  2622               	addwf	_checksum,f,c
  3672  0011AE  0E00               	movlw	0
  3673  0011B0  2223               	addwfc	_checksum+1,f,c
  3674                           
  3675                           ;weather-v2.c: 1347: tx_char = ',';
  3676  0011B2  0E2C               	movlw	44
  3677  0011B4  6E32               	movwf	_tx_char,c
  3678                           
  3679                           ;weather-v2.c: 1348: TXREG = tx_char;
  3680  0011B6  C032  FFAD         	movff	_tx_char,4013	;volatile
  3681  0011BA                     i1l597:
  3682  0011BA  A2AC               	btfss	4012,1,c	;volatile
  3683  0011BC  D7FE               	goto	i1l597
  3684                           
  3685                           ;weather-v2.c: 1350: checksum+=tx_char;
  3686  0011BE  5032               	movf	_tx_char,w,c
  3687  0011C0  2622               	addwf	_checksum,f,c
  3688  0011C2  0E00               	movlw	0
  3689  0011C4  2223               	addwfc	_checksum+1,f,c
  3690                           
  3691                           ;weather-v2.c: 1353: tx_char = '0';
  3692  0011C6  0E30               	movlw	48
  3693  0011C8  6E32               	movwf	_tx_char,c
  3694                           
  3695                           ;weather-v2.c: 1354: TXREG = tx_char;
  3696  0011CA  C032  FFAD         	movff	_tx_char,4013	;volatile
  3697  0011CE                     i1l600:
  3698  0011CE  A2AC               	btfss	4012,1,c	;volatile
  3699  0011D0  D7FE               	goto	i1l600
  3700                           
  3701                           ;weather-v2.c: 1356: checksum+=tx_char;
  3702  0011D2  5032               	movf	_tx_char,w,c
  3703  0011D4  2622               	addwf	_checksum,f,c
  3704  0011D6  0E00               	movlw	0
  3705  0011D8  2223               	addwfc	_checksum+1,f,c
  3706                           
  3707                           ;weather-v2.c: 1358: tx_char = '0';
  3708  0011DA  0E30               	movlw	48
  3709  0011DC  6E32               	movwf	_tx_char,c
  3710                           
  3711                           ;weather-v2.c: 1359: TXREG = tx_char;
  3712  0011DE  C032  FFAD         	movff	_tx_char,4013	;volatile
  3713  0011E2                     i1l603:
  3714  0011E2  A2AC               	btfss	4012,1,c	;volatile
  3715  0011E4  D7FE               	goto	i1l603
  3716                           
  3717                           ;weather-v2.c: 1361: checksum+=tx_char;
  3718  0011E6  5032               	movf	_tx_char,w,c
  3719  0011E8  2622               	addwf	_checksum,f,c
  3720  0011EA  0E00               	movlw	0
  3721  0011EC  2223               	addwfc	_checksum+1,f,c
  3722                           
  3723                           ;weather-v2.c: 1363: tx_char = '0';
  3724  0011EE  0E30               	movlw	48
  3725  0011F0  6E32               	movwf	_tx_char,c
  3726                           
  3727                           ;weather-v2.c: 1364: TXREG = tx_char;
  3728  0011F2  C032  FFAD         	movff	_tx_char,4013	;volatile
  3729  0011F6                     i1l606:
  3730  0011F6  A2AC               	btfss	4012,1,c	;volatile
  3731  0011F8  D7FE               	goto	i1l606
  3732                           
  3733                           ;weather-v2.c: 1366: checksum+=tx_char;
  3734  0011FA  5032               	movf	_tx_char,w,c
  3735  0011FC  2622               	addwf	_checksum,f,c
  3736  0011FE  0E00               	movlw	0
  3737  001200  2223               	addwfc	_checksum+1,f,c
  3738                           
  3739                           ;weather-v2.c: 1368: tx_char = '0';
  3740  001202  0E30               	movlw	48
  3741  001204  6E32               	movwf	_tx_char,c
  3742                           
  3743                           ;weather-v2.c: 1369: TXREG = tx_char;
  3744  001206  C032  FFAD         	movff	_tx_char,4013	;volatile
  3745  00120A                     i1l609:
  3746  00120A  A2AC               	btfss	4012,1,c	;volatile
  3747  00120C  D7FE               	goto	i1l609
  3748                           
  3749                           ;weather-v2.c: 1371: checksum+=tx_char;
  3750  00120E  5032               	movf	_tx_char,w,c
  3751  001210  2622               	addwf	_checksum,f,c
  3752  001212  0E00               	movlw	0
  3753  001214  2223               	addwfc	_checksum+1,f,c
  3754                           
  3755                           ;weather-v2.c: 1373: tx_char = '0';
  3756  001216  0E30               	movlw	48
  3757  001218  6E32               	movwf	_tx_char,c
  3758                           
  3759                           ;weather-v2.c: 1374: TXREG = tx_char;
  3760  00121A  C032  FFAD         	movff	_tx_char,4013	;volatile
  3761  00121E                     i1l612:
  3762  00121E  A2AC               	btfss	4012,1,c	;volatile
  3763  001220  D7FE               	goto	i1l612
  3764                           
  3765                           ;weather-v2.c: 1376: checksum+=tx_char;
  3766  001222  5032               	movf	_tx_char,w,c
  3767  001224  2622               	addwf	_checksum,f,c
  3768  001226  0E00               	movlw	0
  3769  001228  2223               	addwfc	_checksum+1,f,c
  3770                           
  3771                           ;weather-v2.c: 1378: tx_char = '0';
  3772  00122A  0E30               	movlw	48
  3773  00122C  6E32               	movwf	_tx_char,c
  3774                           
  3775                           ;weather-v2.c: 1379: TXREG = tx_char;
  3776  00122E  C032  FFAD         	movff	_tx_char,4013	;volatile
  3777  001232                     i1l615:
  3778  001232  A2AC               	btfss	4012,1,c	;volatile
  3779  001234  D7FE               	goto	i1l615
  3780                           
  3781                           ;weather-v2.c: 1381: checksum+=tx_char;
  3782  001236  5032               	movf	_tx_char,w,c
  3783  001238  2622               	addwf	_checksum,f,c
  3784  00123A  0E00               	movlw	0
  3785  00123C  2223               	addwfc	_checksum+1,f,c
  3786                           
  3787                           ;weather-v2.c: 1383: tx_char = ',';
  3788  00123E  0E2C               	movlw	44
  3789  001240  6E32               	movwf	_tx_char,c
  3790                           
  3791                           ;weather-v2.c: 1384: TXREG = tx_char;
  3792  001242  C032  FFAD         	movff	_tx_char,4013	;volatile
  3793  001246                     i1l618:
  3794  001246  A2AC               	btfss	4012,1,c	;volatile
  3795  001248  D7FE               	goto	i1l618
  3796                           
  3797                           ;weather-v2.c: 1386: checksum+=tx_char;
  3798  00124A  5032               	movf	_tx_char,w,c
  3799  00124C  2622               	addwf	_checksum,f,c
  3800  00124E  0E00               	movlw	0
  3801  001250  2223               	addwfc	_checksum+1,f,c
  3802                           
  3803                           ;weather-v2.c: 1389: tx_char = temp_sign;
  3804  001252  C031  F032         	movff	_temp_sign,_tx_char
  3805                           
  3806                           ;weather-v2.c: 1390: TXREG = tx_char;
  3807  001256  C032  FFAD         	movff	_tx_char,4013	;volatile
  3808  00125A                     i1l621:
  3809  00125A  A2AC               	btfss	4012,1,c	;volatile
  3810  00125C  D7FE               	goto	i1l621
  3811                           
  3812                           ;weather-v2.c: 1392: checksum+=tx_char;
  3813  00125E  5032               	movf	_tx_char,w,c
  3814  001260  2622               	addwf	_checksum,f,c
  3815  001262  0E00               	movlw	0
  3816  001264  2223               	addwfc	_checksum+1,f,c
  3817                           
  3818                           ;weather-v2.c: 1393: tx_char = temp_data_m;
  3819  001266  C030  F032         	movff	_temp_data_m,_tx_char
  3820                           
  3821                           ;weather-v2.c: 1394: TXREG = tx_char;
  3822  00126A  C032  FFAD         	movff	_tx_char,4013	;volatile
  3823  00126E                     i1l624:
  3824  00126E  A2AC               	btfss	4012,1,c	;volatile
  3825  001270  D7FE               	goto	i1l624
  3826                           
  3827                           ;weather-v2.c: 1396: checksum+=tx_char;
  3828  001272  5032               	movf	_tx_char,w,c
  3829  001274  2622               	addwf	_checksum,f,c
  3830  001276  0E00               	movlw	0
  3831  001278  2223               	addwfc	_checksum+1,f,c
  3832                           
  3833                           ;weather-v2.c: 1397: tx_char = temp_data_l;
  3834  00127A  C02F  F032         	movff	_temp_data_l,_tx_char
  3835                           
  3836                           ;weather-v2.c: 1398: TXREG = tx_char;
  3837  00127E  C032  FFAD         	movff	_tx_char,4013	;volatile
  3838  001282                     i1l627:
  3839  001282  A2AC               	btfss	4012,1,c	;volatile
  3840  001284  D7FE               	goto	i1l627
  3841                           
  3842                           ;weather-v2.c: 1400: checksum+=tx_char;
  3843  001286  5032               	movf	_tx_char,w,c
  3844  001288  2622               	addwf	_checksum,f,c
  3845  00128A  0E00               	movlw	0
  3846  00128C  2223               	addwfc	_checksum+1,f,c
  3847                           
  3848                           ;weather-v2.c: 1401: tx_char = '.';
  3849  00128E  0E2E               	movlw	46
  3850  001290  6E32               	movwf	_tx_char,c
  3851                           
  3852                           ;weather-v2.c: 1402: TXREG = tx_char;
  3853  001292  C032  FFAD         	movff	_tx_char,4013	;volatile
  3854  001296                     i1l630:
  3855  001296  A2AC               	btfss	4012,1,c	;volatile
  3856  001298  D7FE               	goto	i1l630
  3857                           
  3858                           ;weather-v2.c: 1404: checksum+=tx_char;
  3859  00129A  5032               	movf	_tx_char,w,c
  3860  00129C  2622               	addwf	_checksum,f,c
  3861  00129E  0E00               	movlw	0
  3862  0012A0  2223               	addwfc	_checksum+1,f,c
  3863                           
  3864                           ;weather-v2.c: 1405: tx_char = temp_data_f;
  3865  0012A2  C02D  F032         	movff	_temp_data_f,_tx_char
  3866                           
  3867                           ;weather-v2.c: 1406: TXREG = tx_char;
  3868  0012A6  C032  FFAD         	movff	_tx_char,4013	;volatile
  3869  0012AA                     i1l633:
  3870  0012AA  A2AC               	btfss	4012,1,c	;volatile
  3871  0012AC  D7FE               	goto	i1l633
  3872                           
  3873                           ;weather-v2.c: 1408: checksum+=tx_char;
  3874  0012AE  5032               	movf	_tx_char,w,c
  3875  0012B0  2622               	addwf	_checksum,f,c
  3876  0012B2  0E00               	movlw	0
  3877  0012B4  2223               	addwfc	_checksum+1,f,c
  3878                           
  3879                           ;weather-v2.c: 1409: tx_char = ',';
  3880  0012B6  0E2C               	movlw	44
  3881  0012B8  6E32               	movwf	_tx_char,c
  3882                           
  3883                           ;weather-v2.c: 1410: TXREG = tx_char;
  3884  0012BA  C032  FFAD         	movff	_tx_char,4013	;volatile
  3885  0012BE                     i1l636:
  3886  0012BE  A2AC               	btfss	4012,1,c	;volatile
  3887  0012C0  D7FE               	goto	i1l636
  3888                           
  3889                           ;weather-v2.c: 1412: checksum+=tx_char;
  3890  0012C2  5032               	movf	_tx_char,w,c
  3891  0012C4  2622               	addwf	_checksum,f,c
  3892  0012C6  0E00               	movlw	0
  3893  0012C8  2223               	addwfc	_checksum+1,f,c
  3894                           
  3895                           ;weather-v2.c: 1415: tx_char = hum_data_h;
  3896  0012CA  C02A  F032         	movff	_hum_data_h,_tx_char
  3897                           
  3898                           ;weather-v2.c: 1416: TXREG = tx_char;
  3899  0012CE  C032  FFAD         	movff	_tx_char,4013	;volatile
  3900  0012D2                     i1l639:
  3901  0012D2  A2AC               	btfss	4012,1,c	;volatile
  3902  0012D4  D7FE               	goto	i1l639
  3903                           
  3904                           ;weather-v2.c: 1418: checksum+=tx_char;
  3905  0012D6  5032               	movf	_tx_char,w,c
  3906  0012D8  2622               	addwf	_checksum,f,c
  3907  0012DA  0E00               	movlw	0
  3908  0012DC  2223               	addwfc	_checksum+1,f,c
  3909                           
  3910                           ;weather-v2.c: 1419: tx_char = hum_data_m;
  3911  0012DE  C02C  F032         	movff	_hum_data_m,_tx_char
  3912                           
  3913                           ;weather-v2.c: 1420: TXREG = tx_char;
  3914  0012E2  C032  FFAD         	movff	_tx_char,4013	;volatile
  3915  0012E6                     i1l642:
  3916  0012E6  A2AC               	btfss	4012,1,c	;volatile
  3917  0012E8  D7FE               	goto	i1l642
  3918                           
  3919                           ;weather-v2.c: 1422: checksum+=tx_char;
  3920  0012EA  5032               	movf	_tx_char,w,c
  3921  0012EC  2622               	addwf	_checksum,f,c
  3922  0012EE  0E00               	movlw	0
  3923  0012F0  2223               	addwfc	_checksum+1,f,c
  3924                           
  3925                           ;weather-v2.c: 1423: tx_char = hum_data_l;
  3926  0012F2  C02B  F032         	movff	_hum_data_l,_tx_char
  3927                           
  3928                           ;weather-v2.c: 1424: TXREG = tx_char;
  3929  0012F6  C032  FFAD         	movff	_tx_char,4013	;volatile
  3930  0012FA                     i1l645:
  3931  0012FA  A2AC               	btfss	4012,1,c	;volatile
  3932  0012FC  D7FE               	goto	i1l645
  3933                           
  3934                           ;weather-v2.c: 1426: checksum+=tx_char;
  3935  0012FE  5032               	movf	_tx_char,w,c
  3936  001300  2622               	addwf	_checksum,f,c
  3937  001302  0E00               	movlw	0
  3938  001304  2223               	addwfc	_checksum+1,f,c
  3939                           
  3940                           ;weather-v2.c: 1427: tx_char = ',';
  3941  001306  0E2C               	movlw	44
  3942  001308  6E32               	movwf	_tx_char,c
  3943                           
  3944                           ;weather-v2.c: 1428: TXREG = tx_char;
  3945  00130A  C032  FFAD         	movff	_tx_char,4013	;volatile
  3946  00130E                     i1l648:
  3947  00130E  A2AC               	btfss	4012,1,c	;volatile
  3948  001310  D7FE               	goto	i1l648
  3949                           
  3950                           ;weather-v2.c: 1430: checksum+=tx_char;
  3951  001312  5032               	movf	_tx_char,w,c
  3952  001314  2622               	addwf	_checksum,f,c
  3953  001316  0E00               	movlw	0
  3954  001318  2223               	addwfc	_checksum+1,f,c
  3955                           
  3956                           ;weather-v2.c: 1433: tx_char = '0';
  3957  00131A  0E30               	movlw	48
  3958  00131C  6E32               	movwf	_tx_char,c
  3959                           
  3960                           ;weather-v2.c: 1434: TXREG = tx_char;
  3961  00131E  C032  FFAD         	movff	_tx_char,4013	;volatile
  3962  001322                     i1l651:
  3963  001322  A2AC               	btfss	4012,1,c	;volatile
  3964  001324  D7FE               	goto	i1l651
  3965                           
  3966                           ;weather-v2.c: 1436: checksum+=tx_char;
  3967  001326  5032               	movf	_tx_char,w,c
  3968  001328  2622               	addwf	_checksum,f,c
  3969  00132A  0E00               	movlw	0
  3970  00132C  2223               	addwfc	_checksum+1,f,c
  3971                           
  3972                           ;weather-v2.c: 1437: tx_char = '0';
  3973  00132E  0E30               	movlw	48
  3974  001330  6E32               	movwf	_tx_char,c
  3975                           
  3976                           ;weather-v2.c: 1438: TXREG = tx_char;
  3977  001332  C032  FFAD         	movff	_tx_char,4013	;volatile
  3978  001336                     i1l654:
  3979  001336  A2AC               	btfss	4012,1,c	;volatile
  3980  001338  D7FE               	goto	i1l654
  3981                           
  3982                           ;weather-v2.c: 1440: checksum+=tx_char;
  3983  00133A  5032               	movf	_tx_char,w,c
  3984  00133C  2622               	addwf	_checksum,f,c
  3985  00133E  0E00               	movlw	0
  3986  001340  2223               	addwfc	_checksum+1,f,c
  3987                           
  3988                           ;weather-v2.c: 1441: tx_char = '0';
  3989  001342  0E30               	movlw	48
  3990  001344  6E32               	movwf	_tx_char,c
  3991                           
  3992                           ;weather-v2.c: 1442: TXREG = tx_char;
  3993  001346  C032  FFAD         	movff	_tx_char,4013	;volatile
  3994  00134A                     i1l657:
  3995  00134A  A2AC               	btfss	4012,1,c	;volatile
  3996  00134C  D7FE               	goto	i1l657
  3997                           
  3998                           ;weather-v2.c: 1444: checksum+=tx_char;
  3999  00134E  5032               	movf	_tx_char,w,c
  4000  001350  2622               	addwf	_checksum,f,c
  4001  001352  0E00               	movlw	0
  4002  001354  2223               	addwfc	_checksum+1,f,c
  4003                           
  4004                           ;weather-v2.c: 1445: tx_char = '0';
  4005  001356  0E30               	movlw	48
  4006  001358  6E32               	movwf	_tx_char,c
  4007                           
  4008                           ;weather-v2.c: 1446: TXREG = tx_char;
  4009  00135A  C032  FFAD         	movff	_tx_char,4013	;volatile
  4010  00135E                     i1l660:
  4011  00135E  A2AC               	btfss	4012,1,c	;volatile
  4012  001360  D7FE               	goto	i1l660
  4013                           
  4014                           ;weather-v2.c: 1448: checksum+=tx_char;
  4015  001362  5032               	movf	_tx_char,w,c
  4016  001364  2622               	addwf	_checksum,f,c
  4017  001366  0E00               	movlw	0
  4018  001368  2223               	addwfc	_checksum+1,f,c
  4019                           
  4020                           ;weather-v2.c: 1449: tx_char = '.';
  4021  00136A  0E2E               	movlw	46
  4022  00136C  6E32               	movwf	_tx_char,c
  4023                           
  4024                           ;weather-v2.c: 1450: TXREG = tx_char;
  4025  00136E  C032  FFAD         	movff	_tx_char,4013	;volatile
  4026  001372                     i1l663:
  4027  001372  A2AC               	btfss	4012,1,c	;volatile
  4028  001374  D7FE               	goto	i1l663
  4029                           
  4030                           ;weather-v2.c: 1452: checksum+=tx_char;
  4031  001376  5032               	movf	_tx_char,w,c
  4032  001378  2622               	addwf	_checksum,f,c
  4033  00137A  0E00               	movlw	0
  4034  00137C  2223               	addwfc	_checksum+1,f,c
  4035                           
  4036                           ;weather-v2.c: 1453: tx_char = '0';
  4037  00137E  0E30               	movlw	48
  4038  001380  6E32               	movwf	_tx_char,c
  4039                           
  4040                           ;weather-v2.c: 1454: TXREG = tx_char;
  4041  001382  C032  FFAD         	movff	_tx_char,4013	;volatile
  4042  001386                     i1l666:
  4043  001386  A2AC               	btfss	4012,1,c	;volatile
  4044  001388  D7FE               	goto	i1l666
  4045                           
  4046                           ;weather-v2.c: 1456: checksum+=tx_char;
  4047  00138A  5032               	movf	_tx_char,w,c
  4048  00138C  2622               	addwf	_checksum,f,c
  4049  00138E  0E00               	movlw	0
  4050  001390  2223               	addwfc	_checksum+1,f,c
  4051                           
  4052                           ;weather-v2.c: 1457: tx_char = ',';
  4053  001392  0E2C               	movlw	44
  4054  001394  6E32               	movwf	_tx_char,c
  4055                           
  4056                           ;weather-v2.c: 1458: TXREG = tx_char;
  4057  001396  C032  FFAD         	movff	_tx_char,4013	;volatile
  4058  00139A                     i1l669:
  4059  00139A  A2AC               	btfss	4012,1,c	;volatile
  4060  00139C  D7FE               	goto	i1l669
  4061                           
  4062                           ;weather-v2.c: 1460: checksum+=tx_char;
  4063  00139E  5032               	movf	_tx_char,w,c
  4064  0013A0  2622               	addwf	_checksum,f,c
  4065  0013A2  0E00               	movlw	0
  4066  0013A4  2223               	addwfc	_checksum+1,f,c
  4067                           
  4068                           ;weather-v2.c: 1464: tx_char = wind_vel_data_h;
  4069  0013A6  C037  F032         	movff	_wind_vel_data_h,_tx_char
  4070                           
  4071                           ;weather-v2.c: 1465: TXREG = tx_char;
  4072  0013AA  C032  FFAD         	movff	_tx_char,4013	;volatile
  4073  0013AE                     i1l672:
  4074  0013AE  A2AC               	btfss	4012,1,c	;volatile
  4075  0013B0  D7FE               	goto	i1l672
  4076                           
  4077                           ;weather-v2.c: 1467: checksum+=tx_char;
  4078  0013B2  5032               	movf	_tx_char,w,c
  4079  0013B4  2622               	addwf	_checksum,f,c
  4080  0013B6  0E00               	movlw	0
  4081  0013B8  2223               	addwfc	_checksum+1,f,c
  4082                           
  4083                           ;weather-v2.c: 1468: tx_char = wind_vel_data_l;
  4084  0013BA  C038  F032         	movff	_wind_vel_data_l,_tx_char
  4085                           
  4086                           ;weather-v2.c: 1469: TXREG = tx_char;
  4087  0013BE  C032  FFAD         	movff	_tx_char,4013	;volatile
  4088  0013C2                     i1l675:
  4089  0013C2  A2AC               	btfss	4012,1,c	;volatile
  4090  0013C4  D7FE               	goto	i1l675
  4091                           
  4092                           ;weather-v2.c: 1471: checksum+=tx_char;
  4093  0013C6  5032               	movf	_tx_char,w,c
  4094  0013C8  2622               	addwf	_checksum,f,c
  4095  0013CA  0E00               	movlw	0
  4096  0013CC  2223               	addwfc	_checksum+1,f,c
  4097                           
  4098                           ;weather-v2.c: 1472: tx_char = '.';
  4099  0013CE  0E2E               	movlw	46
  4100  0013D0  6E32               	movwf	_tx_char,c
  4101                           
  4102                           ;weather-v2.c: 1473: TXREG = tx_char;
  4103  0013D2  C032  FFAD         	movff	_tx_char,4013	;volatile
  4104  0013D6                     i1l678:
  4105  0013D6  A2AC               	btfss	4012,1,c	;volatile
  4106  0013D8  D7FE               	goto	i1l678
  4107                           
  4108                           ;weather-v2.c: 1475: checksum+=tx_char;
  4109  0013DA  5032               	movf	_tx_char,w,c
  4110  0013DC  2622               	addwf	_checksum,f,c
  4111  0013DE  0E00               	movlw	0
  4112  0013E0  2223               	addwfc	_checksum+1,f,c
  4113                           
  4114                           ;weather-v2.c: 1476: tx_char = wind_vel_data_f;
  4115  0013E2  C036  F032         	movff	_wind_vel_data_f,_tx_char
  4116                           
  4117                           ;weather-v2.c: 1477: TXREG = tx_char;
  4118  0013E6  C032  FFAD         	movff	_tx_char,4013	;volatile
  4119  0013EA                     i1l681:
  4120  0013EA  A2AC               	btfss	4012,1,c	;volatile
  4121  0013EC  D7FE               	goto	i1l681
  4122                           
  4123                           ;weather-v2.c: 1479: checksum+=tx_char;
  4124  0013EE  5032               	movf	_tx_char,w,c
  4125  0013F0  2622               	addwf	_checksum,f,c
  4126  0013F2  0E00               	movlw	0
  4127  0013F4  2223               	addwfc	_checksum+1,f,c
  4128                           
  4129                           ;weather-v2.c: 1480: tx_char = ',';
  4130  0013F6  0E2C               	movlw	44
  4131  0013F8  6E32               	movwf	_tx_char,c
  4132                           
  4133                           ;weather-v2.c: 1481: TXREG = tx_char;
  4134  0013FA  C032  FFAD         	movff	_tx_char,4013	;volatile
  4135  0013FE                     i1l684:
  4136  0013FE  A2AC               	btfss	4012,1,c	;volatile
  4137  001400  D7FE               	goto	i1l684
  4138                           
  4139                           ;weather-v2.c: 1483: checksum+=tx_char;
  4140  001402  5032               	movf	_tx_char,w,c
  4141  001404  2622               	addwf	_checksum,f,c
  4142  001406  0E00               	movlw	0
  4143  001408  2223               	addwfc	_checksum+1,f,c
  4144                           
  4145                           ;weather-v2.c: 1486: tx_char = wind_dir_data_h;
  4146  00140A  C033  F032         	movff	_wind_dir_data_h,_tx_char
  4147                           
  4148                           ;weather-v2.c: 1487: TXREG = tx_char;
  4149  00140E  C032  FFAD         	movff	_tx_char,4013	;volatile
  4150  001412                     i1l687:
  4151  001412  A2AC               	btfss	4012,1,c	;volatile
  4152  001414  D7FE               	goto	i1l687
  4153                           
  4154                           ;weather-v2.c: 1489: checksum+=tx_char;
  4155  001416  5032               	movf	_tx_char,w,c
  4156  001418  2622               	addwf	_checksum,f,c
  4157  00141A  0E00               	movlw	0
  4158  00141C  2223               	addwfc	_checksum+1,f,c
  4159                           
  4160                           ;weather-v2.c: 1490: tx_char = wind_dir_data_m;
  4161  00141E  C035  F032         	movff	_wind_dir_data_m,_tx_char
  4162                           
  4163                           ;weather-v2.c: 1491: TXREG = tx_char;
  4164  001422  C032  FFAD         	movff	_tx_char,4013	;volatile
  4165  001426                     i1l690:
  4166  001426  A2AC               	btfss	4012,1,c	;volatile
  4167  001428  D7FE               	goto	i1l690
  4168                           
  4169                           ;weather-v2.c: 1493: checksum+=tx_char;
  4170  00142A  5032               	movf	_tx_char,w,c
  4171  00142C  2622               	addwf	_checksum,f,c
  4172  00142E  0E00               	movlw	0
  4173  001430  2223               	addwfc	_checksum+1,f,c
  4174                           
  4175                           ;weather-v2.c: 1494: tx_char = wind_dir_data_l;
  4176  001432  C034  F032         	movff	_wind_dir_data_l,_tx_char
  4177                           
  4178                           ;weather-v2.c: 1495: TXREG = tx_char;
  4179  001436  C032  FFAD         	movff	_tx_char,4013	;volatile
  4180  00143A                     i1l693:
  4181  00143A  A2AC               	btfss	4012,1,c	;volatile
  4182  00143C  D7FE               	goto	i1l693
  4183                           
  4184                           ;weather-v2.c: 1497: checksum+=tx_char;
  4185  00143E  5032               	movf	_tx_char,w,c
  4186  001440  2622               	addwf	_checksum,f,c
  4187  001442  0E00               	movlw	0
  4188  001444  2223               	addwfc	_checksum+1,f,c
  4189                           
  4190                           ;weather-v2.c: 1498: tx_char = ',';
  4191  001446  0E2C               	movlw	44
  4192  001448  6E32               	movwf	_tx_char,c
  4193                           
  4194                           ;weather-v2.c: 1499: TXREG = tx_char;
  4195  00144A  C032  FFAD         	movff	_tx_char,4013	;volatile
  4196  00144E                     i1l696:
  4197  00144E  A2AC               	btfss	4012,1,c	;volatile
  4198  001450  D7FE               	goto	i1l696
  4199                           
  4200                           ;weather-v2.c: 1501: checksum+=tx_char;
  4201  001452  5032               	movf	_tx_char,w,c
  4202  001454  2622               	addwf	_checksum,f,c
  4203  001456  0E00               	movlw	0
  4204  001458  2223               	addwfc	_checksum+1,f,c
  4205                           
  4206                           ;weather-v2.c: 1505: tx_char = dew_sign;
  4207  00145A  C029  F032         	movff	_dew_sign,_tx_char
  4208                           
  4209                           ;weather-v2.c: 1506: TXREG = tx_char;
  4210  00145E  C032  FFAD         	movff	_tx_char,4013	;volatile
  4211  001462                     i1l699:
  4212  001462  A2AC               	btfss	4012,1,c	;volatile
  4213  001464  D7FE               	goto	i1l699
  4214                           
  4215                           ;weather-v2.c: 1508: checksum+=tx_char;
  4216  001466  5032               	movf	_tx_char,w,c
  4217  001468  2622               	addwf	_checksum,f,c
  4218  00146A  0E00               	movlw	0
  4219  00146C  2223               	addwfc	_checksum+1,f,c
  4220                           
  4221                           ;weather-v2.c: 1509: tx_char = dew_data_m;
  4222  00146E  C028  F032         	movff	_dew_data_m,_tx_char
  4223                           
  4224                           ;weather-v2.c: 1510: TXREG = tx_char;
  4225  001472  C032  FFAD         	movff	_tx_char,4013	;volatile
  4226  001476                     i1l702:
  4227  001476  A2AC               	btfss	4012,1,c	;volatile
  4228  001478  D7FE               	goto	i1l702
  4229                           
  4230                           ;weather-v2.c: 1512: checksum+=tx_char;
  4231  00147A  5032               	movf	_tx_char,w,c
  4232  00147C  2622               	addwf	_checksum,f,c
  4233  00147E  0E00               	movlw	0
  4234  001480  2223               	addwfc	_checksum+1,f,c
  4235                           
  4236                           ;weather-v2.c: 1513: tx_char = dew_data_l;
  4237  001482  C027  F032         	movff	_dew_data_l,_tx_char
  4238                           
  4239                           ;weather-v2.c: 1514: TXREG = tx_char;
  4240  001486  C032  FFAD         	movff	_tx_char,4013	;volatile
  4241  00148A                     i1l705:
  4242  00148A  A2AC               	btfss	4012,1,c	;volatile
  4243  00148C  D7FE               	goto	i1l705
  4244                           
  4245                           ;weather-v2.c: 1516: checksum+=tx_char;
  4246  00148E  5032               	movf	_tx_char,w,c
  4247  001490  2622               	addwf	_checksum,f,c
  4248  001492  0E00               	movlw	0
  4249  001494  2223               	addwfc	_checksum+1,f,c
  4250                           
  4251                           ;weather-v2.c: 1517: tx_char = '.';
  4252  001496  0E2E               	movlw	46
  4253  001498  6E32               	movwf	_tx_char,c
  4254                           
  4255                           ;weather-v2.c: 1518: TXREG = tx_char;
  4256  00149A  C032  FFAD         	movff	_tx_char,4013	;volatile
  4257  00149E                     i1l708:
  4258  00149E  A2AC               	btfss	4012,1,c	;volatile
  4259  0014A0  D7FE               	goto	i1l708
  4260                           
  4261                           ;weather-v2.c: 1520: checksum+=tx_char;
  4262  0014A2  5032               	movf	_tx_char,w,c
  4263  0014A4  2622               	addwf	_checksum,f,c
  4264  0014A6  0E00               	movlw	0
  4265  0014A8  2223               	addwfc	_checksum+1,f,c
  4266                           
  4267                           ;weather-v2.c: 1521: tx_char = dew_data_f;
  4268  0014AA  C026  F032         	movff	_dew_data_f,_tx_char
  4269                           
  4270                           ;weather-v2.c: 1522: TXREG = tx_char;
  4271  0014AE  C032  FFAD         	movff	_tx_char,4013	;volatile
  4272  0014B2                     i1l711:
  4273  0014B2  A2AC               	btfss	4012,1,c	;volatile
  4274  0014B4  D7FE               	goto	i1l711
  4275                           
  4276                           ;weather-v2.c: 1524: checksum+=tx_char;
  4277  0014B6  5032               	movf	_tx_char,w,c
  4278  0014B8  2622               	addwf	_checksum,f,c
  4279  0014BA  0E00               	movlw	0
  4280  0014BC  2223               	addwfc	_checksum+1,f,c
  4281                           
  4282                           ;weather-v2.c: 1525: tx_char = ',';
  4283  0014BE  0E2C               	movlw	44
  4284  0014C0  6E32               	movwf	_tx_char,c
  4285                           
  4286                           ;weather-v2.c: 1526: TXREG = tx_char;
  4287  0014C2  C032  FFAD         	movff	_tx_char,4013	;volatile
  4288  0014C6                     i1l714:
  4289  0014C6  A2AC               	btfss	4012,1,c	;volatile
  4290  0014C8  D7FE               	goto	i1l714
  4291                           
  4292                           ;weather-v2.c: 1528: checksum+=tx_char;
  4293  0014CA  5032               	movf	_tx_char,w,c
  4294  0014CC  2622               	addwf	_checksum,f,c
  4295  0014CE  0E00               	movlw	0
  4296  0014D0  2223               	addwfc	_checksum+1,f,c
  4297                           
  4298                           ;weather-v2.c: 1530: checksum=checksum%256;
  4299  0014D2  5022               	movf	_checksum,w,c
  4300  0014D4  6E22               	movwf	_checksum,c
  4301  0014D6  6A23               	clrf	_checksum+1,c
  4302                           
  4303                           ;weather-v2.c: 1532: TXREG = (checksum/100)+48;
  4304  0014D8  C022  F001         	movff	_checksum,___lwdiv@dividend
  4305  0014DC  C023  F002         	movff	_checksum+1,___lwdiv@dividend+1
  4306  0014E0  0E00               	movlw	0
  4307  0014E2  6E04               	movwf	___lwdiv@divisor+1,c
  4308  0014E4  0E64               	movlw	100
  4309  0014E6  6E03               	movwf	___lwdiv@divisor,c
  4310  0014E8  EC8E  F016         	call	___lwdiv	;wreg free
  4311  0014EC  5001               	movf	?___lwdiv,w,c
  4312  0014EE  0F30               	addlw	48
  4313  0014F0  6EAD               	movwf	4013,c	;volatile
  4314  0014F2                     i1l717:
  4315  0014F2  A2AC               	btfss	4012,1,c	;volatile
  4316  0014F4  D7FE               	goto	i1l717
  4317                           
  4318                           ;weather-v2.c: 1534: TXREG = checksum/10%10+48;
  4319  0014F6  0E00               	movlw	0
  4320  0014F8  6E04               	movwf	___lwdiv@divisor+1,c
  4321  0014FA  0E0A               	movlw	10
  4322  0014FC  6E03               	movwf	___lwdiv@divisor,c
  4323  0014FE  C022  F001         	movff	_checksum,___lwdiv@dividend
  4324  001502  C023  F002         	movff	_checksum+1,___lwdiv@dividend+1
  4325  001506  EC8E  F016         	call	___lwdiv	;wreg free
  4326  00150A  C001  F008         	movff	?___lwdiv,___lwmod@dividend
  4327  00150E  C002  F009         	movff	?___lwdiv+1,___lwmod@dividend+1
  4328  001512  0E00               	movlw	0
  4329  001514  6E0B               	movwf	___lwmod@divisor+1,c
  4330  001516  0E0A               	movlw	10
  4331  001518  6E0A               	movwf	___lwmod@divisor,c
  4332  00151A  EC25  F017         	call	___lwmod	;wreg free
  4333  00151E  5008               	movf	?___lwmod,w,c
  4334  001520  0F30               	addlw	48
  4335  001522  6EAD               	movwf	4013,c	;volatile
  4336  001524                     i1l720:
  4337  001524  A2AC               	btfss	4012,1,c	;volatile
  4338  001526  D7FE               	goto	i1l720
  4339                           
  4340                           ;weather-v2.c: 1536: TXREG = checksum%10+48;
  4341  001528  C022  F008         	movff	_checksum,___lwmod@dividend
  4342  00152C  C023  F009         	movff	_checksum+1,___lwmod@dividend+1
  4343  001530  0E00               	movlw	0
  4344  001532  6E0B               	movwf	___lwmod@divisor+1,c
  4345  001534  0E0A               	movlw	10
  4346  001536  6E0A               	movwf	___lwmod@divisor,c
  4347  001538  EC25  F017         	call	___lwmod	;wreg free
  4348  00153C  5008               	movf	?___lwmod,w,c
  4349  00153E  0F30               	addlw	48
  4350  001540  6EAD               	movwf	4013,c	;volatile
  4351  001542                     i1l723:
  4352  001542  A2AC               	btfss	4012,1,c	;volatile
  4353  001544  D7FE               	goto	i1l723
  4354                           
  4355                           ;weather-v2.c: 1538: TXREG = '\r';
  4356  001546  0E0D               	movlw	13
  4357  001548  6EAD               	movwf	4013,c	;volatile
  4358  00154A                     i1l726:
  4359  00154A  A2AC               	btfss	4012,1,c	;volatile
  4360  00154C  D7FE               	goto	i1l726
  4361                           
  4362                           ;weather-v2.c: 1540: TXREG = '\n';
  4363  00154E  0E0A               	movlw	10
  4364  001550  6EAD               	movwf	4013,c	;volatile
  4365  001552                     i1l729:
  4366  001552  B2AC               	btfsc	4012,1,c	;volatile
  4367  001554  0012               	return	
  4368  001556  D7FD               	goto	i1l729
  4369  001558                     __end_of_bin_udp:
  4370                           	opt stack 0
  4371                           pclatu	equ	0xFFB
  4372                           pclath	equ	0xFFA
  4373                           tblptru	equ	0xFF8
  4374                           tblptrh	equ	0xFF7
  4375                           tblptrl	equ	0xFF6
  4376                           tablat	equ	0xFF5
  4377                           prodh	equ	0xFF4
  4378                           prodl	equ	0xFF3
  4379                           intcon	equ	0xFF2
  4380                           intcon2	equ	0xFF1
  4381                           intcon3	equ	0xFF0
  4382                           postinc0	equ	0xFEE
  4383                           fsr0h	equ	0xFEA
  4384                           fsr0l	equ	0xFE9
  4385                           wreg	equ	0xFE8
  4386                           fsr1h	equ	0xFE2
  4387                           fsr1l	equ	0xFE1
  4388                           bsr	equ	0xFE0
  4389                           indf2	equ	0xFDF
  4390                           postinc2	equ	0xFDE
  4391                           postdec2	equ	0xFDD
  4392                           fsr2h	equ	0xFDA
  4393                           fsr2l	equ	0xFD9
  4394                           status	equ	0xFD8
  4395                           
  4396 ;; *************** function ___lwmod *****************
  4397 ;; Defined at:
  4398 ;;		line 8 in file "C:\Program Files\Microchip\xc8\v1.35\sources\common\lwmod.c"
  4399 ;; Parameters:    Size  Location     Type
  4400 ;;  dividend        2    7[COMRAM] unsigned int 
  4401 ;;  divisor         2    9[COMRAM] unsigned int 
  4402 ;; Auto vars:     Size  Location     Type
  4403 ;;  counter         1   11[COMRAM] unsigned char 
  4404 ;; Return value:  Size  Location     Type
  4405 ;;                  2    7[COMRAM] unsigned int 
  4406 ;; Registers used:
  4407 ;;		wreg, status,2, status,0
  4408 ;; Tracked objects:
  4409 ;;		On entry : 0/0
  4410 ;;		On exit  : 0/0
  4411 ;;		Unchanged: 0/0
  4412 ;; Data sizes:     COMRAM   BANK0   BANK1   BANK2
  4413 ;;      Params:         4       0       0       0
  4414 ;;      Locals:         1       0       0       0
  4415 ;;      Temps:          0       0       0       0
  4416 ;;      Totals:         5       0       0       0
  4417 ;;Total ram usage:        5 bytes
  4418 ;; Hardware stack levels used:    1
  4419 ;; Hardware stack levels required when called:    3
  4420 ;; This function calls:
  4421 ;;		Nothing
  4422 ;; This function is called by:
  4423 ;;		_bin_udp
  4424 ;; This function uses a non-reentrant model
  4425 ;;
  4426                           
  4427                           	psect	text15
  4428  002E4A                     __ptext15:
  4429                           	opt stack 0
  4430  002E4A                     ___lwmod:
  4431                           	opt stack 22
  4432                           
  4433                           ;incstack = 0
  4434  002E4A  500A               	movf	___lwmod@divisor,w,c
  4435  002E4C  100B               	iorwf	___lwmod@divisor+1,w,c
  4436  002E4E  B4D8               	btfsc	status,2,c
  4437  002E50  D018               	goto	i1l1213
  4438  002E52  0E01               	movlw	1
  4439  002E54  6E0C               	movwf	___lwmod@counter,c
  4440  002E56  D004               	goto	i1l3820
  4441  002E58                     i1l3818:
  4442  002E58  90D8               	bcf	status,0,c
  4443  002E5A  360A               	rlcf	___lwmod@divisor,f,c
  4444  002E5C  360B               	rlcf	___lwmod@divisor+1,f,c
  4445  002E5E  2A0C               	incf	___lwmod@counter,f,c
  4446  002E60                     i1l3820:
  4447  002E60  AE0B               	btfss	___lwmod@divisor+1,7,c
  4448  002E62  D7FA               	goto	i1l3818
  4449  002E64                     i1l3822:
  4450  002E64  500A               	movf	___lwmod@divisor,w,c
  4451  002E66  5C08               	subwf	___lwmod@dividend,w,c
  4452  002E68  500B               	movf	___lwmod@divisor+1,w,c
  4453  002E6A  5809               	subwfb	___lwmod@dividend+1,w,c
  4454  002E6C  A0D8               	btfss	status,0,c
  4455  002E6E  D004               	goto	i1l3826
  4456  002E70  500A               	movf	___lwmod@divisor,w,c
  4457  002E72  5E08               	subwf	___lwmod@dividend,f,c
  4458  002E74  500B               	movf	___lwmod@divisor+1,w,c
  4459  002E76  5A09               	subwfb	___lwmod@dividend+1,f,c
  4460  002E78                     i1l3826:
  4461  002E78  90D8               	bcf	status,0,c
  4462  002E7A  320B               	rrcf	___lwmod@divisor+1,f,c
  4463  002E7C  320A               	rrcf	___lwmod@divisor,f,c
  4464  002E7E  2E0C               	decfsz	___lwmod@counter,f,c
  4465  002E80  D7F1               	goto	i1l3822
  4466  002E82                     i1l1213:
  4467  002E82  C008  F008         	movff	___lwmod@dividend,?___lwmod
  4468  002E86  C009  F009         	movff	___lwmod@dividend+1,?___lwmod+1
  4469  002E8A  0012               	return		;funcret
  4470  002E8C                     __end_of___lwmod:
  4471                           	opt stack 0
  4472                           pclatu	equ	0xFFB
  4473                           pclath	equ	0xFFA
  4474                           tblptru	equ	0xFF8
  4475                           tblptrh	equ	0xFF7
  4476                           tblptrl	equ	0xFF6
  4477                           tablat	equ	0xFF5
  4478                           prodh	equ	0xFF4
  4479                           prodl	equ	0xFF3
  4480                           intcon	equ	0xFF2
  4481                           intcon2	equ	0xFF1
  4482                           intcon3	equ	0xFF0
  4483                           postinc0	equ	0xFEE
  4484                           fsr0h	equ	0xFEA
  4485                           fsr0l	equ	0xFE9
  4486                           wreg	equ	0xFE8
  4487                           fsr1h	equ	0xFE2
  4488                           fsr1l	equ	0xFE1
  4489                           bsr	equ	0xFE0
  4490                           indf2	equ	0xFDF
  4491                           postinc2	equ	0xFDE
  4492                           postdec2	equ	0xFDD
  4493                           fsr2h	equ	0xFDA
  4494                           fsr2l	equ	0xFD9
  4495                           status	equ	0xFD8
  4496                           
  4497 ;; *************** function ___lwdiv *****************
  4498 ;; Defined at:
  4499 ;;		line 8 in file "C:\Program Files\Microchip\xc8\v1.35\sources\common\lwdiv.c"
  4500 ;; Parameters:    Size  Location     Type
  4501 ;;  dividend        2    0[COMRAM] unsigned int 
  4502 ;;  divisor         2    2[COMRAM] unsigned int 
  4503 ;; Auto vars:     Size  Location     Type
  4504 ;;  quotient        2    4[COMRAM] unsigned int 
  4505 ;;  counter         1    6[COMRAM] unsigned char 
  4506 ;; Return value:  Size  Location     Type
  4507 ;;                  2    0[COMRAM] unsigned int 
  4508 ;; Registers used:
  4509 ;;		wreg, status,2, status,0
  4510 ;; Tracked objects:
  4511 ;;		On entry : 0/0
  4512 ;;		On exit  : 0/0
  4513 ;;		Unchanged: 0/0
  4514 ;; Data sizes:     COMRAM   BANK0   BANK1   BANK2
  4515 ;;      Params:         4       0       0       0
  4516 ;;      Locals:         3       0       0       0
  4517 ;;      Temps:          0       0       0       0
  4518 ;;      Totals:         7       0       0       0
  4519 ;;Total ram usage:        7 bytes
  4520 ;; Hardware stack levels used:    1
  4521 ;; Hardware stack levels required when called:    3
  4522 ;; This function calls:
  4523 ;;		Nothing
  4524 ;; This function is called by:
  4525 ;;		_bin_udp
  4526 ;; This function uses a non-reentrant model
  4527 ;;
  4528                           
  4529                           	psect	text16
  4530  002D1C                     __ptext16:
  4531                           	opt stack 0
  4532  002D1C                     ___lwdiv:
  4533                           	opt stack 22
  4534                           
  4535                           ;incstack = 0
  4536  002D1C  0E00               	movlw	0
  4537  002D1E  6E06               	movwf	___lwdiv@quotient+1,c
  4538  002D20  0E00               	movlw	0
  4539  002D22  6E05               	movwf	___lwdiv@quotient,c
  4540  002D24  5003               	movf	___lwdiv@divisor,w,c
  4541  002D26  1004               	iorwf	___lwdiv@divisor+1,w,c
  4542  002D28  B4D8               	btfsc	status,2,c
  4543  002D2A  D01C               	goto	i1l1203
  4544  002D2C  0E01               	movlw	1
  4545  002D2E  6E07               	movwf	___lwdiv@counter,c
  4546  002D30  D004               	goto	i1l3800
  4547  002D32                     i1l3798:
  4548  002D32  90D8               	bcf	status,0,c
  4549  002D34  3603               	rlcf	___lwdiv@divisor,f,c
  4550  002D36  3604               	rlcf	___lwdiv@divisor+1,f,c
  4551  002D38  2A07               	incf	___lwdiv@counter,f,c
  4552  002D3A                     i1l3800:
  4553  002D3A  AE04               	btfss	___lwdiv@divisor+1,7,c
  4554  002D3C  D7FA               	goto	i1l3798
  4555  002D3E                     i1l3802:
  4556  002D3E  90D8               	bcf	status,0,c
  4557  002D40  3605               	rlcf	___lwdiv@quotient,f,c
  4558  002D42  3606               	rlcf	___lwdiv@quotient+1,f,c
  4559  002D44  5003               	movf	___lwdiv@divisor,w,c
  4560  002D46  5C01               	subwf	___lwdiv@dividend,w,c
  4561  002D48  5004               	movf	___lwdiv@divisor+1,w,c
  4562  002D4A  5802               	subwfb	___lwdiv@dividend+1,w,c
  4563  002D4C  A0D8               	btfss	status,0,c
  4564  002D4E  D005               	goto	i1l3810
  4565  002D50  5003               	movf	___lwdiv@divisor,w,c
  4566  002D52  5E01               	subwf	___lwdiv@dividend,f,c
  4567  002D54  5004               	movf	___lwdiv@divisor+1,w,c
  4568  002D56  5A02               	subwfb	___lwdiv@dividend+1,f,c
  4569  002D58  8005               	bsf	___lwdiv@quotient,0,c
  4570  002D5A                     i1l3810:
  4571  002D5A  90D8               	bcf	status,0,c
  4572  002D5C  3204               	rrcf	___lwdiv@divisor+1,f,c
  4573  002D5E  3203               	rrcf	___lwdiv@divisor,f,c
  4574  002D60  2E07               	decfsz	___lwdiv@counter,f,c
  4575  002D62  D7ED               	goto	i1l3802
  4576  002D64                     i1l1203:
  4577  002D64  C005  F001         	movff	___lwdiv@quotient,?___lwdiv
  4578  002D68  C006  F002         	movff	___lwdiv@quotient+1,?___lwdiv+1
  4579  002D6C  0012               	return		;funcret
  4580  002D6E                     __end_of___lwdiv:
  4581                           	opt stack 0
  4582                           pclatu	equ	0xFFB
  4583                           pclath	equ	0xFFA
  4584                           tblptru	equ	0xFF8
  4585                           tblptrh	equ	0xFF7
  4586                           tblptrl	equ	0xFF6
  4587                           tablat	equ	0xFF5
  4588                           prodh	equ	0xFF4
  4589                           prodl	equ	0xFF3
  4590                           intcon	equ	0xFF2
  4591                           intcon2	equ	0xFF1
  4592                           intcon3	equ	0xFF0
  4593                           postinc0	equ	0xFEE
  4594                           fsr0h	equ	0xFEA
  4595                           fsr0l	equ	0xFE9
  4596                           wreg	equ	0xFE8
  4597                           fsr1h	equ	0xFE2
  4598                           fsr1l	equ	0xFE1
  4599                           bsr	equ	0xFE0
  4600                           indf2	equ	0xFDF
  4601                           postinc2	equ	0xFDE
  4602                           postdec2	equ	0xFDD
  4603                           fsr2h	equ	0xFDA
  4604                           fsr2l	equ	0xFD9
  4605                           status	equ	0xFD8
  4606                           
  4607 ;; *************** function _bin_io_lcd *****************
  4608 ;; Defined at:
  4609 ;;		line 1111 in file "weather-v2.c"
  4610 ;; Parameters:    Size  Location     Type
  4611 ;;		None
  4612 ;; Auto vars:     Size  Location     Type
  4613 ;;		None
  4614 ;; Return value:  Size  Location     Type
  4615 ;;		None               void
  4616 ;; Registers used:
  4617 ;;		wreg, fsr2l, fsr2h, status,2, status,0, tblptrl, tblptrh, tblptru, prodl, prodh, cstack
  4618 ;; Tracked objects:
  4619 ;;		On entry : 0/0
  4620 ;;		On exit  : 0/0
  4621 ;;		Unchanged: 0/0
  4622 ;; Data sizes:     COMRAM   BANK0   BANK1   BANK2
  4623 ;;      Params:         0       0       0       0
  4624 ;;      Locals:         0       0       0       0
  4625 ;;      Temps:          0       0       0       0
  4626 ;;      Totals:         0       0       0       0
  4627 ;;Total ram usage:        0 bytes
  4628 ;; Hardware stack levels used:    1
  4629 ;; Hardware stack levels required when called:    6
  4630 ;; This function calls:
  4631 ;;		_write_char_lcd
  4632 ;;		i1_strcpy
  4633 ;;		i1_write_com_lcd
  4634 ;;		i1_write_str_lcd
  4635 ;; This function is called by:
  4636 ;;		_low_isr
  4637 ;; This function uses a non-reentrant model
  4638 ;;
  4639                           
  4640                           	psect	text17
  4641  002546                     __ptext17:
  4642                           	opt stack 0
  4643  002546                     _bin_io_lcd:
  4644                           	opt stack 20
  4645                           
  4646                           ;weather-v2.c: 1113: write_com_lcd(0x01);
  4647                           
  4648                           ;incstack = 0
  4649  002546  0E01               	movlw	1
  4650  002548  ECB7  F016         	call	i1_write_com_lcd
  4651                           
  4652                           ;weather-v2.c: 1114: strcpy(lcd_string," Wind=");
  4653  00254C  0EB3               	movlw	low _lcd_string
  4654  00254E  6E01               	movwf	i1strcpy@to,c
  4655  002550  0E01               	movlw	high _lcd_string
  4656  002552  6E02               	movwf	i1strcpy@to+1,c
  4657  002554  0E3B               	movlw	low STR_6
  4658  002556  6E03               	movwf	i1strcpy@from,c
  4659  002558  0E03               	movlw	high STR_6
  4660  00255A  6E04               	movwf	i1strcpy@from+1,c
  4661  00255C  ECD1  F017         	call	i1_strcpy	;wreg free
  4662                           
  4663                           ;weather-v2.c: 1115: write_str_lcd(&lcd_string);
  4664  002560  0EB3               	movlw	low _lcd_string
  4665  002562  6E0E               	movwf	i1write_str_lcd@ptr_char,c
  4666  002564  0E01               	movlw	high _lcd_string
  4667  002566  6E0F               	movwf	i1write_str_lcd@ptr_char+1,c
  4668  002568  ECA8  F015         	call	i1_write_str_lcd	;wreg free
  4669                           
  4670                           ;weather-v2.c: 1116: write_char_lcd(wind_vel_data_h);
  4671  00256C  5037               	movf	_wind_vel_data_h,w,c
  4672  00256E  ECB7  F017         	call	_write_char_lcd
  4673                           
  4674                           ;weather-v2.c: 1117: write_char_lcd(wind_vel_data_l);
  4675  002572  5038               	movf	_wind_vel_data_l,w,c
  4676  002574  ECB7  F017         	call	_write_char_lcd
  4677                           
  4678                           ;weather-v2.c: 1118: strcpy(lcd_string,"m/s,");
  4679  002578  0EB3               	movlw	low _lcd_string
  4680  00257A  6E01               	movwf	i1strcpy@to,c
  4681  00257C  0E01               	movlw	high _lcd_string
  4682  00257E  6E02               	movwf	i1strcpy@to+1,c
  4683  002580  0E42               	movlw	low STR_7
  4684  002582  6E03               	movwf	i1strcpy@from,c
  4685  002584  0E03               	movlw	high STR_7
  4686  002586  6E04               	movwf	i1strcpy@from+1,c
  4687  002588  ECD1  F017         	call	i1_strcpy	;wreg free
  4688                           
  4689                           ;weather-v2.c: 1119: write_str_lcd(&lcd_string);
  4690  00258C  0EB3               	movlw	low _lcd_string
  4691  00258E  6E0E               	movwf	i1write_str_lcd@ptr_char,c
  4692  002590  0E01               	movlw	high _lcd_string
  4693  002592  6E0F               	movwf	i1write_str_lcd@ptr_char+1,c
  4694  002594  ECA8  F015         	call	i1_write_str_lcd	;wreg free
  4695                           
  4696                           ;weather-v2.c: 1120: write_char_lcd(wind_dirH);
  4697  002598  503F               	movf	_wind_dirH,w,c
  4698  00259A  ECB7  F017         	call	_write_char_lcd
  4699                           
  4700                           ;weather-v2.c: 1121: write_char_lcd(wind_dirL);
  4701  00259E  5040               	movf	_wind_dirL,w,c
  4702  0025A0  ECB7  F017         	call	_write_char_lcd
  4703                           
  4704                           ;weather-v2.c: 1123: write_com_lcd(0xC0);
  4705  0025A4  0EC0               	movlw	192
  4706  0025A6  ECB7  F016         	call	i1_write_com_lcd
  4707                           
  4708                           ;weather-v2.c: 1125: strcpy(lcd_string,"T=");
  4709  0025AA  0EB3               	movlw	low _lcd_string
  4710  0025AC  6E01               	movwf	i1strcpy@to,c
  4711  0025AE  0E01               	movlw	high _lcd_string
  4712  0025B0  6E02               	movwf	i1strcpy@to+1,c
  4713  0025B2  0E4B               	movlw	low STR_8
  4714  0025B4  6E03               	movwf	i1strcpy@from,c
  4715  0025B6  0E03               	movlw	high STR_8
  4716  0025B8  6E04               	movwf	i1strcpy@from+1,c
  4717  0025BA  ECD1  F017         	call	i1_strcpy	;wreg free
  4718                           
  4719                           ;weather-v2.c: 1126: write_str_lcd(&lcd_string);
  4720  0025BE  0EB3               	movlw	low _lcd_string
  4721  0025C0  6E0E               	movwf	i1write_str_lcd@ptr_char,c
  4722  0025C2  0E01               	movlw	high _lcd_string
  4723  0025C4  6E0F               	movwf	i1write_str_lcd@ptr_char+1,c
  4724  0025C6  ECA8  F015         	call	i1_write_str_lcd	;wreg free
  4725                           
  4726                           ;weather-v2.c: 1127: write_char_lcd(temp_data_h);
  4727  0025CA  502E               	movf	_temp_data_h,w,c
  4728  0025CC  ECB7  F017         	call	_write_char_lcd
  4729                           
  4730                           ;weather-v2.c: 1128: write_char_lcd(temp_data_m);
  4731  0025D0  5030               	movf	_temp_data_m,w,c
  4732  0025D2  ECB7  F017         	call	_write_char_lcd
  4733                           
  4734                           ;weather-v2.c: 1129: write_char_lcd(temp_data_l);
  4735  0025D6  502F               	movf	_temp_data_l,w,c
  4736  0025D8  ECB7  F017         	call	_write_char_lcd
  4737                           
  4738                           ;weather-v2.c: 1130: write_char_lcd(0xDF);
  4739  0025DC  0EDF               	movlw	223
  4740  0025DE  ECB7  F017         	call	_write_char_lcd
  4741                           
  4742                           ;weather-v2.c: 1131: write_char_lcd('C');
  4743  0025E2  0E43               	movlw	67
  4744  0025E4  ECB7  F017         	call	_write_char_lcd
  4745                           
  4746                           ;weather-v2.c: 1133: write_char_lcd(' ');
  4747  0025E8  0E20               	movlw	32
  4748  0025EA  ECB7  F017         	call	_write_char_lcd
  4749                           
  4750                           ;weather-v2.c: 1134: strcpy(lcd_string,"RH=");
  4751  0025EE  0EB3               	movlw	low _lcd_string
  4752  0025F0  6E01               	movwf	i1strcpy@to,c
  4753  0025F2  0E01               	movlw	high _lcd_string
  4754  0025F4  6E02               	movwf	i1strcpy@to+1,c
  4755  0025F6  0E47               	movlw	low STR_9
  4756  0025F8  6E03               	movwf	i1strcpy@from,c
  4757  0025FA  0E03               	movlw	high STR_9
  4758  0025FC  6E04               	movwf	i1strcpy@from+1,c
  4759  0025FE  ECD1  F017         	call	i1_strcpy	;wreg free
  4760                           
  4761                           ;weather-v2.c: 1135: write_str_lcd(&lcd_string);
  4762  002602  0EB3               	movlw	low _lcd_string
  4763  002604  6E0E               	movwf	i1write_str_lcd@ptr_char,c
  4764  002606  0E01               	movlw	high _lcd_string
  4765  002608  6E0F               	movwf	i1write_str_lcd@ptr_char+1,c
  4766  00260A  ECA8  F015         	call	i1_write_str_lcd	;wreg free
  4767                           
  4768                           ;weather-v2.c: 1136: write_char_lcd(hum_data_h);
  4769  00260E  502A               	movf	_hum_data_h,w,c
  4770  002610  ECB7  F017         	call	_write_char_lcd
  4771                           
  4772                           ;weather-v2.c: 1137: write_char_lcd(hum_data_m);
  4773  002614  502C               	movf	_hum_data_m,w,c
  4774  002616  ECB7  F017         	call	_write_char_lcd
  4775                           
  4776                           ;weather-v2.c: 1138: write_char_lcd(hum_data_l);
  4777  00261A  502B               	movf	_hum_data_l,w,c
  4778  00261C  ECB7  F017         	call	_write_char_lcd
  4779                           
  4780                           ;weather-v2.c: 1139: write_char_lcd('%');
  4781  002620  0E25               	movlw	37
  4782  002622  ECB7  F017         	call	_write_char_lcd
  4783  002626  0012               	return		;funcret
  4784  002628                     __end_of_bin_io_lcd:
  4785                           	opt stack 0
  4786                           pclatu	equ	0xFFB
  4787                           pclath	equ	0xFFA
  4788                           tblptru	equ	0xFF8
  4789                           tblptrh	equ	0xFF7
  4790                           tblptrl	equ	0xFF6
  4791                           tablat	equ	0xFF5
  4792                           prodh	equ	0xFF4
  4793                           prodl	equ	0xFF3
  4794                           intcon	equ	0xFF2
  4795                           intcon2	equ	0xFF1
  4796                           intcon3	equ	0xFF0
  4797                           postinc0	equ	0xFEE
  4798                           fsr0h	equ	0xFEA
  4799                           fsr0l	equ	0xFE9
  4800                           wreg	equ	0xFE8
  4801                           fsr1h	equ	0xFE2
  4802                           fsr1l	equ	0xFE1
  4803                           bsr	equ	0xFE0
  4804                           indf2	equ	0xFDF
  4805                           postinc2	equ	0xFDE
  4806                           postdec2	equ	0xFDD
  4807                           fsr2h	equ	0xFDA
  4808                           fsr2l	equ	0xFD9
  4809                           status	equ	0xFD8
  4810                           
  4811 ;; *************** function i1_write_str_lcd *****************
  4812 ;; Defined at:
  4813 ;;		line 315 in file "weather-v2.c"
  4814 ;; Parameters:    Size  Location     Type
  4815 ;;  ptr_char        2   13[COMRAM] PTR unsigned char 
  4816 ;;		 -> lcd_string(32), 
  4817 ;; Auto vars:     Size  Location     Type
  4818 ;;  write_str_lc    1   15[COMRAM] unsigned char 
  4819 ;; Return value:  Size  Location     Type
  4820 ;;		None               void
  4821 ;; Registers used:
  4822 ;;		wreg, fsr2l, fsr2h, status,2, status,0, prodl, prodh, cstack
  4823 ;; Tracked objects:
  4824 ;;		On entry : 0/0
  4825 ;;		On exit  : 0/0
  4826 ;;		Unchanged: 0/0
  4827 ;; Data sizes:     COMRAM   BANK0   BANK1   BANK2
  4828 ;;      Params:         2       0       0       0
  4829 ;;      Locals:         1       0       0       0
  4830 ;;      Temps:          0       0       0       0
  4831 ;;      Totals:         3       0       0       0
  4832 ;;Total ram usage:        3 bytes
  4833 ;; Hardware stack levels used:    1
  4834 ;; Hardware stack levels required when called:    5
  4835 ;; This function calls:
  4836 ;;		i1_delay_us
  4837 ;; This function is called by:
  4838 ;;		_bin_io_lcd
  4839 ;; This function uses a non-reentrant model
  4840 ;;
  4841                           
  4842                           	psect	text18
  4843  002B50                     __ptext18:
  4844                           	opt stack 0
  4845  002B50                     i1_write_str_lcd:
  4846                           	opt stack 20
  4847                           
  4848                           ;weather-v2.c: 317: char count_char;
  4849                           ;weather-v2.c: 318: for(count_char=0;count_char<32;count_char++)
  4850                           
  4851                           ;incstack = 0
  4852  002B50  0E00               	movlw	0
  4853  002B52  6E10               	movwf	i1write_str_lcd@count_char,c
  4854  002B54                     i1l3832:
  4855  002B54  0E1F               	movlw	31
  4856  002B56  6410               	cpfsgt	i1write_str_lcd@count_char,c
  4857  002B58  D001               	goto	i1l3836
  4858  002B5A  0012               	return	
  4859  002B5C                     i1l3836:
  4860                           
  4861                           ;weather-v2.c: 319: {
  4862                           ;weather-v2.c: 320: if(*(ptr_char+count_char)=='\0')
  4863  002B5C  5010               	movf	i1write_str_lcd@count_char,w,c
  4864  002B5E  0D01               	mullw	1
  4865  002B60  50F3               	movf	prodl,w,c
  4866  002B62  240E               	addwf	i1write_str_lcd@ptr_char,w,c
  4867  002B64  6ED9               	movwf	fsr2l,c
  4868  002B66  50F4               	movf	prodh,w,c
  4869  002B68  200F               	addwfc	i1write_str_lcd@ptr_char+1,w,c
  4870  002B6A  6EDA               	movwf	fsr2h,c
  4871  002B6C  50DF               	movf	indf2,w,c
  4872  002B6E  B4D8               	btfsc	status,2,c
  4873  002B70  0012               	return	
  4874                           
  4875                           ;weather-v2.c: 322: PORTBbits.RB4 = 0 ;
  4876                           
  4877                           ;weather-v2.c: 321: break;
  4878  002B72  9881               	bcf	3969,4,c	;volatile
  4879                           
  4880                           ;weather-v2.c: 323: PORTBbits.RB3 = 1 ;
  4881  002B74  8681               	bsf	3969,3,c	;volatile
  4882                           
  4883                           ;weather-v2.c: 324: delay_us(100);
  4884  002B76  0E00               	movlw	0
  4885  002B78  6E0A               	movwf	i1delay_us@t_delay+1,c
  4886  002B7A  0E64               	movlw	100
  4887  002B7C  6E09               	movwf	i1delay_us@t_delay,c
  4888  002B7E  EC46  F017         	call	i1_delay_us	;wreg free
  4889                           
  4890                           ;weather-v2.c: 325: PORTD = *(ptr_char+count_char);
  4891  002B82  5010               	movf	i1write_str_lcd@count_char,w,c
  4892  002B84  0D01               	mullw	1
  4893  002B86  50F3               	movf	prodl,w,c
  4894  002B88  240E               	addwf	i1write_str_lcd@ptr_char,w,c
  4895  002B8A  6ED9               	movwf	fsr2l,c
  4896  002B8C  50F4               	movf	prodh,w,c
  4897  002B8E  200F               	addwfc	i1write_str_lcd@ptr_char+1,w,c
  4898  002B90  6EDA               	movwf	fsr2h,c
  4899  002B92  50DF               	movf	indf2,w,c
  4900  002B94  6E83               	movwf	3971,c	;volatile
  4901                           
  4902                           ;weather-v2.c: 326: PORTCbits.RC1 = 1 ;
  4903  002B96  8282               	bsf	3970,1,c	;volatile
  4904                           
  4905                           ;weather-v2.c: 327: delay_us(100);
  4906  002B98  0E00               	movlw	0
  4907  002B9A  6E0A               	movwf	i1delay_us@t_delay+1,c
  4908  002B9C  0E64               	movlw	100
  4909  002B9E  6E09               	movwf	i1delay_us@t_delay,c
  4910  002BA0  EC46  F017         	call	i1_delay_us	;wreg free
  4911                           
  4912                           ;weather-v2.c: 328: PORTCbits.RC1 = 0 ;
  4913  002BA4  9282               	bcf	3970,1,c	;volatile
  4914                           
  4915                           ;weather-v2.c: 329: delay_us(40);
  4916  002BA6  0E00               	movlw	0
  4917  002BA8  6E0A               	movwf	i1delay_us@t_delay+1,c
  4918  002BAA  0E28               	movlw	40
  4919  002BAC  6E09               	movwf	i1delay_us@t_delay,c
  4920  002BAE  EC46  F017         	call	i1_delay_us	;wreg free
  4921  002BB2  2A10               	incf	i1write_str_lcd@count_char,f,c
  4922  002BB4  D7CF               	goto	i1l3832
  4923  002BB6                     __end_ofi1_write_str_lcd:
  4924                           	opt stack 0
  4925                           pclatu	equ	0xFFB
  4926                           pclath	equ	0xFFA
  4927                           tblptru	equ	0xFF8
  4928                           tblptrh	equ	0xFF7
  4929                           tblptrl	equ	0xFF6
  4930                           tablat	equ	0xFF5
  4931                           prodh	equ	0xFF4
  4932                           prodl	equ	0xFF3
  4933                           intcon	equ	0xFF2
  4934                           intcon2	equ	0xFF1
  4935                           intcon3	equ	0xFF0
  4936                           postinc0	equ	0xFEE
  4937                           fsr0h	equ	0xFEA
  4938                           fsr0l	equ	0xFE9
  4939                           wreg	equ	0xFE8
  4940                           fsr1h	equ	0xFE2
  4941                           fsr1l	equ	0xFE1
  4942                           bsr	equ	0xFE0
  4943                           indf2	equ	0xFDF
  4944                           postinc2	equ	0xFDE
  4945                           postdec2	equ	0xFDD
  4946                           fsr2h	equ	0xFDA
  4947                           fsr2l	equ	0xFD9
  4948                           status	equ	0xFD8
  4949                           
  4950 ;; *************** function i1_write_com_lcd *****************
  4951 ;; Defined at:
  4952 ;;		line 332 in file "weather-v2.c"
  4953 ;; Parameters:    Size  Location     Type
  4954 ;;  c               1    wreg     unsigned char 
  4955 ;; Auto vars:     Size  Location     Type
  4956 ;;  c               1   13[COMRAM] unsigned char 
  4957 ;; Return value:  Size  Location     Type
  4958 ;;		None               void
  4959 ;; Registers used:
  4960 ;;		wreg, status,2, status,0, prodl, prodh, cstack
  4961 ;; Tracked objects:
  4962 ;;		On entry : 0/0
  4963 ;;		On exit  : 0/0
  4964 ;;		Unchanged: 0/0
  4965 ;; Data sizes:     COMRAM   BANK0   BANK1   BANK2
  4966 ;;      Params:         0       0       0       0
  4967 ;;      Locals:         1       0       0       0
  4968 ;;      Temps:          0       0       0       0
  4969 ;;      Totals:         1       0       0       0
  4970 ;;Total ram usage:        1 bytes
  4971 ;; Hardware stack levels used:    1
  4972 ;; Hardware stack levels required when called:    5
  4973 ;; This function calls:
  4974 ;;		i1_delay_ms
  4975 ;;		i1_delay_us
  4976 ;; This function is called by:
  4977 ;;		_bin_io_lcd
  4978 ;; This function uses a non-reentrant model
  4979 ;;
  4980                           
  4981                           	psect	text19
  4982  002D6E                     __ptext19:
  4983                           	opt stack 0
  4984  002D6E                     i1_write_com_lcd:
  4985                           	opt stack 20
  4986                           
  4987                           ;incstack = 0
  4988                           ;i1write_com_lcd@c stored from wreg
  4989  002D6E  6E0E               	movwf	i1write_com_lcd@c,c
  4990                           
  4991                           ;weather-v2.c: 334: PORTBbits.RB4 = 0 ;
  4992  002D70  9881               	bcf	3969,4,c	;volatile
  4993                           
  4994                           ;weather-v2.c: 335: PORTBbits.RB3 = 0 ;
  4995  002D72  9681               	bcf	3969,3,c	;volatile
  4996                           
  4997                           ;weather-v2.c: 336: delay_us(100);
  4998  002D74  0E00               	movlw	0
  4999  002D76  6E0A               	movwf	i1delay_us@t_delay+1,c
  5000  002D78  0E64               	movlw	100
  5001  002D7A  6E09               	movwf	i1delay_us@t_delay,c
  5002  002D7C  EC46  F017         	call	i1_delay_us	;wreg free
  5003                           
  5004                           ;weather-v2.c: 337: PORTD = c;
  5005  002D80  C00E  FF83         	movff	i1write_com_lcd@c,3971	;volatile
  5006                           
  5007                           ;weather-v2.c: 338: PORTCbits.RC1 = 1 ;
  5008  002D84  8282               	bsf	3970,1,c	;volatile
  5009                           
  5010                           ;weather-v2.c: 339: delay_us(100);
  5011  002D86  0E00               	movlw	0
  5012  002D88  6E0A               	movwf	i1delay_us@t_delay+1,c
  5013  002D8A  0E64               	movlw	100
  5014  002D8C  6E09               	movwf	i1delay_us@t_delay,c
  5015  002D8E  EC46  F017         	call	i1_delay_us	;wreg free
  5016                           
  5017                           ;weather-v2.c: 340: PORTCbits.RC1 = 0 ;
  5018  002D92  9282               	bcf	3970,1,c	;volatile
  5019                           
  5020                           ;weather-v2.c: 341: if(c==0x01 || c == 0x03)
  5021  002D94  040E               	decf	i1write_com_lcd@c,w,c
  5022  002D96  B4D8               	btfsc	status,2,c
  5023  002D98  D004               	goto	i1l3870
  5024  002D9A  0E03               	movlw	3
  5025  002D9C  180E               	xorwf	i1write_com_lcd@c,w,c
  5026  002D9E  A4D8               	btfss	status,2,c
  5027  002DA0  D007               	goto	i1l3872
  5028  002DA2                     i1l3870:
  5029                           
  5030                           ;weather-v2.c: 342: delay_ms(5);
  5031  002DA2  0E00               	movlw	0
  5032  002DA4  6E08               	movwf	i1delay_ms@t_delay+1,c
  5033  002DA6  0E05               	movlw	5
  5034  002DA8  6E07               	movwf	i1delay_ms@t_delay,c
  5035  002DAA  EC66  F017         	call	i1_delay_ms	;wreg free
  5036  002DAE  0012               	return	
  5037  002DB0                     i1l3872:
  5038                           
  5039                           ;weather-v2.c: 343: else
  5040                           ;weather-v2.c: 344: delay_us(40);
  5041  002DB0  0E00               	movlw	0
  5042  002DB2  6E0A               	movwf	i1delay_us@t_delay+1,c
  5043  002DB4  0E28               	movlw	40
  5044  002DB6  6E09               	movwf	i1delay_us@t_delay,c
  5045  002DB8  EC46  F017         	call	i1_delay_us	;wreg free
  5046  002DBC  0012               	return	
  5047  002DBE                     __end_ofi1_write_com_lcd:
  5048                           	opt stack 0
  5049                           pclatu	equ	0xFFB
  5050                           pclath	equ	0xFFA
  5051                           tblptru	equ	0xFF8
  5052                           tblptrh	equ	0xFF7
  5053                           tblptrl	equ	0xFF6
  5054                           tablat	equ	0xFF5
  5055                           prodh	equ	0xFF4
  5056                           prodl	equ	0xFF3
  5057                           intcon	equ	0xFF2
  5058                           intcon2	equ	0xFF1
  5059                           intcon3	equ	0xFF0
  5060                           postinc0	equ	0xFEE
  5061                           fsr0h	equ	0xFEA
  5062                           fsr0l	equ	0xFE9
  5063                           wreg	equ	0xFE8
  5064                           fsr1h	equ	0xFE2
  5065                           fsr1l	equ	0xFE1
  5066                           bsr	equ	0xFE0
  5067                           indf2	equ	0xFDF
  5068                           postinc2	equ	0xFDE
  5069                           postdec2	equ	0xFDD
  5070                           fsr2h	equ	0xFDA
  5071                           fsr2l	equ	0xFD9
  5072                           status	equ	0xFD8
  5073                           
  5074 ;; *************** function i1_delay_ms *****************
  5075 ;; Defined at:
  5076 ;;		line 290 in file "weather-v2.c"
  5077 ;; Parameters:    Size  Location     Type
  5078 ;;  t_delay         2    6[COMRAM] int 
  5079 ;; Auto vars:     Size  Location     Type
  5080 ;;  delay_ms        2    9[COMRAM] int 
  5081 ;; Return value:  Size  Location     Type
  5082 ;;		None               void
  5083 ;; Registers used:
  5084 ;;		wreg, status,2, status,0, prodl, prodh, cstack
  5085 ;; Tracked objects:
  5086 ;;		On entry : 0/0
  5087 ;;		On exit  : 0/0
  5088 ;;		Unchanged: 0/0
  5089 ;; Data sizes:     COMRAM   BANK0   BANK1   BANK2
  5090 ;;      Params:         2       0       0       0
  5091 ;;      Locals:         2       0       0       0
  5092 ;;      Temps:          1       0       0       0
  5093 ;;      Totals:         5       0       0       0
  5094 ;;Total ram usage:        5 bytes
  5095 ;; Hardware stack levels used:    1
  5096 ;; Hardware stack levels required when called:    4
  5097 ;; This function calls:
  5098 ;;		i1___wmul
  5099 ;; This function is called by:
  5100 ;;		i1_write_com_lcd
  5101 ;; This function uses a non-reentrant model
  5102 ;;
  5103                           
  5104                           	psect	text20
  5105  002ECC                     __ptext20:
  5106                           	opt stack 0
  5107  002ECC                     i1_delay_ms:
  5108                           	opt stack 20
  5109                           
  5110                           ;weather-v2.c: 292: int c;
  5111                           ;weather-v2.c: 293: for(c=0;c<t_delay*40;c++);
  5112                           
  5113                           ;incstack = 0
  5114  002ECC  0E00               	movlw	0
  5115  002ECE  6E0B               	movwf	i1delay_ms@c+1,c
  5116  002ED0  0E00               	movlw	0
  5117  002ED2  6E0A               	movwf	i1delay_ms@c,c
  5118  002ED4  D002               	goto	i1l3522
  5119  002ED6                     i1l3520:
  5120  002ED6  4A0A               	infsnz	i1delay_ms@c,f,c
  5121  002ED8  2A0B               	incf	i1delay_ms@c+1,f,c
  5122  002EDA                     i1l3522:
  5123  002EDA  C007  F001         	movff	i1delay_ms@t_delay,i1___wmul@multiplier
  5124  002EDE  C008  F002         	movff	i1delay_ms@t_delay+1,i1___wmul@multiplier+1
  5125  002EE2  0E00               	movlw	0
  5126  002EE4  6E04               	movwf	i1___wmul@multiplicand+1,c
  5127  002EE6  0E28               	movlw	40
  5128  002EE8  6E03               	movwf	i1___wmul@multiplicand,c
  5129  002EEA  EC16  F018         	call	i1___wmul	;wreg free
  5130  002EEE  5001               	movf	?i1___wmul,w,c
  5131  002EF0  5C0A               	subwf	i1delay_ms@c,w,c
  5132  002EF2  500B               	movf	i1delay_ms@c+1,w,c
  5133  002EF4  0A80               	xorlw	128
  5134  002EF6  6E09               	movwf	??i1_delay_ms& (0+255),c
  5135  002EF8  5002               	movf	?i1___wmul+1,w,c
  5136  002EFA  0A80               	xorlw	128
  5137  002EFC  5809               	subwfb	??i1_delay_ms& (0+255),w,c
  5138  002EFE  B0D8               	btfsc	status,0,c
  5139  002F00  0012               	return	
  5140  002F02  D7E9               	goto	i1l3520
  5141  002F04                     __end_ofi1_delay_ms:
  5142                           	opt stack 0
  5143                           pclatu	equ	0xFFB
  5144                           pclath	equ	0xFFA
  5145                           tblptru	equ	0xFF8
  5146                           tblptrh	equ	0xFF7
  5147                           tblptrl	equ	0xFF6
  5148                           tablat	equ	0xFF5
  5149                           prodh	equ	0xFF4
  5150                           prodl	equ	0xFF3
  5151                           intcon	equ	0xFF2
  5152                           intcon2	equ	0xFF1
  5153                           intcon3	equ	0xFF0
  5154                           postinc0	equ	0xFEE
  5155                           fsr0h	equ	0xFEA
  5156                           fsr0l	equ	0xFE9
  5157                           wreg	equ	0xFE8
  5158                           fsr1h	equ	0xFE2
  5159                           fsr1l	equ	0xFE1
  5160                           bsr	equ	0xFE0
  5161                           indf2	equ	0xFDF
  5162                           postinc2	equ	0xFDE
  5163                           postdec2	equ	0xFDD
  5164                           fsr2h	equ	0xFDA
  5165                           fsr2l	equ	0xFD9
  5166                           status	equ	0xFD8
  5167                           
  5168 ;; *************** function i1___wmul *****************
  5169 ;; Defined at:
  5170 ;;		line 15 in file "C:\Program Files\Microchip\xc8\v1.35\sources\common\Umul16.c"
  5171 ;; Parameters:    Size  Location     Type
  5172 ;;  multiplier      2    0[COMRAM] unsigned int 
  5173 ;;  multiplicand    2    2[COMRAM] unsigned int 
  5174 ;; Auto vars:     Size  Location     Type
  5175 ;;  __wmul          2    4[COMRAM] unsigned int 
  5176 ;; Return value:  Size  Location     Type
  5177 ;;                  2    0[COMRAM] unsigned int 
  5178 ;; Registers used:
  5179 ;;		wreg, status,2, status,0, prodl, prodh
  5180 ;; Tracked objects:
  5181 ;;		On entry : 0/0
  5182 ;;		On exit  : 0/0
  5183 ;;		Unchanged: 0/0
  5184 ;; Data sizes:     COMRAM   BANK0   BANK1   BANK2
  5185 ;;      Params:         4       0       0       0
  5186 ;;      Locals:         2       0       0       0
  5187 ;;      Temps:          0       0       0       0
  5188 ;;      Totals:         6       0       0       0
  5189 ;;Total ram usage:        6 bytes
  5190 ;; Hardware stack levels used:    1
  5191 ;; Hardware stack levels required when called:    3
  5192 ;; This function calls:
  5193 ;;		Nothing
  5194 ;; This function is called by:
  5195 ;;		i1_delay_ms
  5196 ;; This function uses a non-reentrant model
  5197 ;;
  5198                           
  5199                           	psect	text21
  5200  00302C                     __ptext21:
  5201                           	opt stack 0
  5202  00302C                     i1___wmul:
  5203                           	opt stack 20
  5204                           
  5205                           ;incstack = 0
  5206  00302C  5001               	movf	i1___wmul@multiplier,w,c
  5207  00302E  0203               	mulwf	i1___wmul@multiplicand,c
  5208  003030  CFF3 F005          	movff	prodl,i1___wmul@product
  5209  003034  CFF4 F006          	movff	prodh,i1___wmul@product+1
  5210  003038  5001               	movf	i1___wmul@multiplier,w,c
  5211  00303A  0204               	mulwf	i1___wmul@multiplicand+1,c
  5212  00303C  50F3               	movf	prodl,w,c
  5213  00303E  2606               	addwf	i1___wmul@product+1,f,c
  5214  003040  5002               	movf	i1___wmul@multiplier+1,w,c
  5215  003042  0203               	mulwf	i1___wmul@multiplicand,c
  5216  003044  50F3               	movf	prodl,w,c
  5217  003046  2606               	addwf	i1___wmul@product+1,f,c
  5218  003048  C005  F001         	movff	i1___wmul@product,?i1___wmul
  5219  00304C  C006  F002         	movff	i1___wmul@product+1,?i1___wmul+1
  5220  003050  0012               	return	
  5221  003052                     __end_ofi1___wmul:
  5222                           	opt stack 0
  5223                           pclatu	equ	0xFFB
  5224                           pclath	equ	0xFFA
  5225                           tblptru	equ	0xFF8
  5226                           tblptrh	equ	0xFF7
  5227                           tblptrl	equ	0xFF6
  5228                           tablat	equ	0xFF5
  5229                           prodh	equ	0xFF4
  5230                           prodl	equ	0xFF3
  5231                           intcon	equ	0xFF2
  5232                           intcon2	equ	0xFF1
  5233                           intcon3	equ	0xFF0
  5234                           postinc0	equ	0xFEE
  5235                           fsr0h	equ	0xFEA
  5236                           fsr0l	equ	0xFE9
  5237                           wreg	equ	0xFE8
  5238                           fsr1h	equ	0xFE2
  5239                           fsr1l	equ	0xFE1
  5240                           bsr	equ	0xFE0
  5241                           indf2	equ	0xFDF
  5242                           postinc2	equ	0xFDE
  5243                           postdec2	equ	0xFDD
  5244                           fsr2h	equ	0xFDA
  5245                           fsr2l	equ	0xFD9
  5246                           status	equ	0xFD8
  5247                           
  5248 ;; *************** function i1_strcpy *****************
  5249 ;; Defined at:
  5250 ;;		line 8 in file "C:\Program Files\Microchip\xc8\v1.35\sources\common\strcpy.c"
  5251 ;; Parameters:    Size  Location     Type
  5252 ;;  to              2    0[COMRAM] PTR unsigned char 
  5253 ;;		 -> lcd_string(32), 
  5254 ;;  from            2    2[COMRAM] PTR const unsigned char 
  5255 ;;		 -> STR_9(4), STR_8(3), STR_7(5), STR_6(7), 
  5256 ;;		 -> STR_5(8), STR_4(17), STR_3(13), STR_2(11), 
  5257 ;;		 -> STR_1(9), 
  5258 ;; Auto vars:     Size  Location     Type
  5259 ;;  strcpy          2    4[COMRAM] PTR unsigned char 
  5260 ;;		 -> lcd_string(32), 
  5261 ;; Return value:  Size  Location     Type
  5262 ;;                  2    0[COMRAM] PTR unsigned char 
  5263 ;; Registers used:
  5264 ;;		wreg, fsr2l, fsr2h, status,2, status,0, tblptrl, tblptrh, tblptru
  5265 ;; Tracked objects:
  5266 ;;		On entry : 0/0
  5267 ;;		On exit  : 0/0
  5268 ;;		Unchanged: 0/0
  5269 ;; Data sizes:     COMRAM   BANK0   BANK1   BANK2
  5270 ;;      Params:         4       0       0       0
  5271 ;;      Locals:         2       0       0       0
  5272 ;;      Temps:          0       0       0       0
  5273 ;;      Totals:         6       0       0       0
  5274 ;;Total ram usage:        6 bytes
  5275 ;; Hardware stack levels used:    1
  5276 ;; Hardware stack levels required when called:    3
  5277 ;; This function calls:
  5278 ;;		Nothing
  5279 ;; This function is called by:
  5280 ;;		_bin_io_lcd
  5281 ;; This function uses a non-reentrant model
  5282 ;;
  5283                           
  5284                           	psect	text22
  5285  002FA2                     __ptext22:
  5286                           	opt stack 0
  5287  002FA2                     i1_strcpy:
  5288                           	opt stack 22
  5289                           
  5290                           ;incstack = 0
  5291  002FA2  C001  F005         	movff	i1strcpy@to,i1strcpy@cp
  5292  002FA6  C002  F006         	movff	i1strcpy@to+1,i1strcpy@cp+1
  5293  002FAA  D004               	goto	i1l3878
  5294  002FAC                     i1l3876:
  5295  002FAC  4A05               	infsnz	i1strcpy@cp,f,c
  5296  002FAE  2A06               	incf	i1strcpy@cp+1,f,c
  5297  002FB0  4A03               	infsnz	i1strcpy@from,f,c
  5298  002FB2  2A04               	incf	i1strcpy@from+1,f,c
  5299  002FB4                     i1l3878:
  5300  002FB4  C003  FFF6         	movff	i1strcpy@from,tblptrl
  5301  002FB8  C004  FFF7         	movff	i1strcpy@from+1,tblptrh
  5302  002FBC                     	if	0	;tblptru may be non-zero
  5303  002FBC                     	endif
  5304  002FBC                     	if	0	;tblptru may be non-zero
  5305  002FBC                     	endif
  5306  002FBC  C005  FFD9         	movff	i1strcpy@cp,fsr2l
  5307  002FC0  C006  FFDA         	movff	i1strcpy@cp+1,fsr2h
  5308  002FC4  0008               	tblrd		*
  5309  002FC6  CFF5 FFDF          	movff	tablat,indf2
  5310  002FCA  50DF               	movf	indf2,w,c
  5311  002FCC  B4D8               	btfsc	status,2,c
  5312  002FCE  0012               	return	
  5313  002FD0  D7ED               	goto	i1l3876
  5314  002FD2                     __end_ofi1_strcpy:
  5315                           	opt stack 0
  5316                           pclatu	equ	0xFFB
  5317                           pclath	equ	0xFFA
  5318                           tblptru	equ	0xFF8
  5319                           tblptrh	equ	0xFF7
  5320                           tblptrl	equ	0xFF6
  5321                           tablat	equ	0xFF5
  5322                           prodh	equ	0xFF4
  5323                           prodl	equ	0xFF3
  5324                           intcon	equ	0xFF2
  5325                           intcon2	equ	0xFF1
  5326                           intcon3	equ	0xFF0
  5327                           postinc0	equ	0xFEE
  5328                           fsr0h	equ	0xFEA
  5329                           fsr0l	equ	0xFE9
  5330                           wreg	equ	0xFE8
  5331                           fsr1h	equ	0xFE2
  5332                           fsr1l	equ	0xFE1
  5333                           bsr	equ	0xFE0
  5334                           indf2	equ	0xFDF
  5335                           postinc2	equ	0xFDE
  5336                           postdec2	equ	0xFDD
  5337                           fsr2h	equ	0xFDA
  5338                           fsr2l	equ	0xFD9
  5339                           status	equ	0xFD8
  5340                           
  5341 ;; *************** function _write_char_lcd *****************
  5342 ;; Defined at:
  5343 ;;		line 303 in file "weather-v2.c"
  5344 ;; Parameters:    Size  Location     Type
  5345 ;;  c               1    wreg     unsigned char 
  5346 ;; Auto vars:     Size  Location     Type
  5347 ;;  c               1   13[COMRAM] unsigned char 
  5348 ;; Return value:  Size  Location     Type
  5349 ;;		None               void
  5350 ;; Registers used:
  5351 ;;		wreg, status,2, status,0, cstack
  5352 ;; Tracked objects:
  5353 ;;		On entry : 0/0
  5354 ;;		On exit  : 0/0
  5355 ;;		Unchanged: 0/0
  5356 ;; Data sizes:     COMRAM   BANK0   BANK1   BANK2
  5357 ;;      Params:         0       0       0       0
  5358 ;;      Locals:         1       0       0       0
  5359 ;;      Temps:          0       0       0       0
  5360 ;;      Totals:         1       0       0       0
  5361 ;;Total ram usage:        1 bytes
  5362 ;; Hardware stack levels used:    1
  5363 ;; Hardware stack levels required when called:    5
  5364 ;; This function calls:
  5365 ;;		i1_delay_us
  5366 ;; This function is called by:
  5367 ;;		_bin_io_lcd
  5368 ;; This function uses a non-reentrant model
  5369 ;;
  5370                           
  5371                           	psect	text23
  5372  002F6E                     __ptext23:
  5373                           	opt stack 0
  5374  002F6E                     _write_char_lcd:
  5375                           	opt stack 20
  5376                           
  5377                           ;incstack = 0
  5378                           ;write_char_lcd@c stored from wreg
  5379  002F6E  6E0E               	movwf	write_char_lcd@c,c
  5380                           
  5381                           ;weather-v2.c: 305: PORTBbits.RB4 = 0 ;
  5382  002F70  9881               	bcf	3969,4,c	;volatile
  5383                           
  5384                           ;weather-v2.c: 306: PORTBbits.RB3 = 1 ;
  5385  002F72  8681               	bsf	3969,3,c	;volatile
  5386                           
  5387                           ;weather-v2.c: 307: delay_us(100);
  5388  002F74  0E00               	movlw	0
  5389  002F76  6E0A               	movwf	i1delay_us@t_delay+1,c
  5390  002F78  0E64               	movlw	100
  5391  002F7A  6E09               	movwf	i1delay_us@t_delay,c
  5392  002F7C  EC46  F017         	call	i1_delay_us	;wreg free
  5393                           
  5394                           ;weather-v2.c: 308: PORTD = c;
  5395  002F80  C00E  FF83         	movff	write_char_lcd@c,3971	;volatile
  5396                           
  5397                           ;weather-v2.c: 309: PORTCbits.RC1 = 1 ;
  5398  002F84  8282               	bsf	3970,1,c	;volatile
  5399                           
  5400                           ;weather-v2.c: 310: delay_us(100);
  5401  002F86  0E00               	movlw	0
  5402  002F88  6E0A               	movwf	i1delay_us@t_delay+1,c
  5403  002F8A  0E64               	movlw	100
  5404  002F8C  6E09               	movwf	i1delay_us@t_delay,c
  5405  002F8E  EC46  F017         	call	i1_delay_us	;wreg free
  5406                           
  5407                           ;weather-v2.c: 311: PORTCbits.RC1 = 0 ;
  5408  002F92  9282               	bcf	3970,1,c	;volatile
  5409                           
  5410                           ;weather-v2.c: 312: delay_us(40);
  5411  002F94  0E00               	movlw	0
  5412  002F96  6E0A               	movwf	i1delay_us@t_delay+1,c
  5413  002F98  0E28               	movlw	40
  5414  002F9A  6E09               	movwf	i1delay_us@t_delay,c
  5415  002F9C  EC46  F017         	call	i1_delay_us	;wreg free
  5416  002FA0  0012               	return		;funcret
  5417  002FA2                     __end_of_write_char_lcd:
  5418                           	opt stack 0
  5419                           pclatu	equ	0xFFB
  5420                           pclath	equ	0xFFA
  5421                           tblptru	equ	0xFF8
  5422                           tblptrh	equ	0xFF7
  5423                           tblptrl	equ	0xFF6
  5424                           tablat	equ	0xFF5
  5425                           prodh	equ	0xFF4
  5426                           prodl	equ	0xFF3
  5427                           intcon	equ	0xFF2
  5428                           intcon2	equ	0xFF1
  5429                           intcon3	equ	0xFF0
  5430                           postinc0	equ	0xFEE
  5431                           fsr0h	equ	0xFEA
  5432                           fsr0l	equ	0xFE9
  5433                           wreg	equ	0xFE8
  5434                           fsr1h	equ	0xFE2
  5435                           fsr1l	equ	0xFE1
  5436                           bsr	equ	0xFE0
  5437                           indf2	equ	0xFDF
  5438                           postinc2	equ	0xFDE
  5439                           postdec2	equ	0xFDD
  5440                           fsr2h	equ	0xFDA
  5441                           fsr2l	equ	0xFD9
  5442                           status	equ	0xFD8
  5443                           
  5444 ;; *************** function i1_delay_us *****************
  5445 ;; Defined at:
  5446 ;;		line 296 in file "weather-v2.c"
  5447 ;; Parameters:    Size  Location     Type
  5448 ;;  t_delay         2    8[COMRAM] int 
  5449 ;; Auto vars:     Size  Location     Type
  5450 ;;  delay_us        2   11[COMRAM] int 
  5451 ;; Return value:  Size  Location     Type
  5452 ;;		None               void
  5453 ;; Registers used:
  5454 ;;		wreg, status,2, status,0, cstack
  5455 ;; Tracked objects:
  5456 ;;		On entry : 0/0
  5457 ;;		On exit  : 0/0
  5458 ;;		Unchanged: 0/0
  5459 ;; Data sizes:     COMRAM   BANK0   BANK1   BANK2
  5460 ;;      Params:         2       0       0       0
  5461 ;;      Locals:         2       0       0       0
  5462 ;;      Temps:          1       0       0       0
  5463 ;;      Totals:         5       0       0       0
  5464 ;;Total ram usage:        5 bytes
  5465 ;; Hardware stack levels used:    1
  5466 ;; Hardware stack levels required when called:    4
  5467 ;; This function calls:
  5468 ;;		i1___awdiv
  5469 ;; This function is called by:
  5470 ;;		_write_char_lcd
  5471 ;;		i1_write_str_lcd
  5472 ;;		i1_write_com_lcd
  5473 ;; This function uses a non-reentrant model
  5474 ;;
  5475                           
  5476                           	psect	text24
  5477  002E8C                     __ptext24:
  5478                           	opt stack 0
  5479  002E8C                     i1_delay_us:
  5480                           	opt stack 20
  5481                           
  5482                           ;weather-v2.c: 298: int c;
  5483                           ;weather-v2.c: 299: t_delay = t_delay/10;
  5484                           
  5485                           ;incstack = 0
  5486  002E8C  C009  F001         	movff	i1delay_us@t_delay,i1___awdiv@dividend
  5487  002E90  C00A  F002         	movff	i1delay_us@t_delay+1,i1___awdiv@dividend+1
  5488  002E94  0E00               	movlw	0
  5489  002E96  6E04               	movwf	i1___awdiv@divisor+1,c
  5490  002E98  0E0A               	movlw	10
  5491  002E9A  6E03               	movwf	i1___awdiv@divisor,c
  5492  002E9C  ECEB  F014         	call	i1___awdiv	;wreg free
  5493  002EA0  C001  F009         	movff	?i1___awdiv,i1delay_us@t_delay
  5494  002EA4  C002  F00A         	movff	?i1___awdiv+1,i1delay_us@t_delay+1
  5495                           
  5496                           ;weather-v2.c: 300: for(c=0;c<t_delay;c++);
  5497  002EA8  0E00               	movlw	0
  5498  002EAA  6E0D               	movwf	i1delay_us@c+1,c
  5499  002EAC  0E00               	movlw	0
  5500  002EAE  6E0C               	movwf	i1delay_us@c,c
  5501  002EB0  D002               	goto	i1l3530
  5502  002EB2                     i1l3528:
  5503  002EB2  4A0C               	infsnz	i1delay_us@c,f,c
  5504  002EB4  2A0D               	incf	i1delay_us@c+1,f,c
  5505  002EB6                     i1l3530:
  5506  002EB6  5009               	movf	i1delay_us@t_delay,w,c
  5507  002EB8  5C0C               	subwf	i1delay_us@c,w,c
  5508  002EBA  500D               	movf	i1delay_us@c+1,w,c
  5509  002EBC  0A80               	xorlw	128
  5510  002EBE  6E0B               	movwf	??i1_delay_us& (0+255),c
  5511  002EC0  500A               	movf	i1delay_us@t_delay+1,w,c
  5512  002EC2  0A80               	xorlw	128
  5513  002EC4  580B               	subwfb	??i1_delay_us& (0+255),w,c
  5514  002EC6  B0D8               	btfsc	status,0,c
  5515  002EC8  0012               	return	
  5516  002ECA  D7F3               	goto	i1l3528
  5517  002ECC                     __end_ofi1_delay_us:
  5518                           	opt stack 0
  5519                           pclatu	equ	0xFFB
  5520                           pclath	equ	0xFFA
  5521                           tblptru	equ	0xFF8
  5522                           tblptrh	equ	0xFF7
  5523                           tblptrl	equ	0xFF6
  5524                           tablat	equ	0xFF5
  5525                           prodh	equ	0xFF4
  5526                           prodl	equ	0xFF3
  5527                           intcon	equ	0xFF2
  5528                           intcon2	equ	0xFF1
  5529                           intcon3	equ	0xFF0
  5530                           postinc0	equ	0xFEE
  5531                           fsr0h	equ	0xFEA
  5532                           fsr0l	equ	0xFE9
  5533                           wreg	equ	0xFE8
  5534                           fsr1h	equ	0xFE2
  5535                           fsr1l	equ	0xFE1
  5536                           bsr	equ	0xFE0
  5537                           indf2	equ	0xFDF
  5538                           postinc2	equ	0xFDE
  5539                           postdec2	equ	0xFDD
  5540                           fsr2h	equ	0xFDA
  5541                           fsr2l	equ	0xFD9
  5542                           status	equ	0xFD8
  5543                           
  5544 ;; *************** function i1___awdiv *****************
  5545 ;; Defined at:
  5546 ;;		line 8 in file "C:\Program Files\Microchip\xc8\v1.35\sources\common\awdiv.c"
  5547 ;; Parameters:    Size  Location     Type
  5548 ;;  dividend        2    0[COMRAM] int 
  5549 ;;  divisor         2    2[COMRAM] int 
  5550 ;; Auto vars:     Size  Location     Type
  5551 ;;  __awdiv         2    6[COMRAM] int 
  5552 ;;  __awdiv         1    5[COMRAM] unsigned char 
  5553 ;;  __awdiv         1    4[COMRAM] unsigned char 
  5554 ;; Return value:  Size  Location     Type
  5555 ;;                  2    0[COMRAM] int 
  5556 ;; Registers used:
  5557 ;;		wreg, status,2, status,0
  5558 ;; Tracked objects:
  5559 ;;		On entry : 0/0
  5560 ;;		On exit  : 0/0
  5561 ;;		Unchanged: 0/0
  5562 ;; Data sizes:     COMRAM   BANK0   BANK1   BANK2
  5563 ;;      Params:         4       0       0       0
  5564 ;;      Locals:         4       0       0       0
  5565 ;;      Temps:          0       0       0       0
  5566 ;;      Totals:         8       0       0       0
  5567 ;;Total ram usage:        8 bytes
  5568 ;; Hardware stack levels used:    1
  5569 ;; Hardware stack levels required when called:    3
  5570 ;; This function calls:
  5571 ;;		Nothing
  5572 ;; This function is called by:
  5573 ;;		i1_delay_us
  5574 ;; This function uses a non-reentrant model
  5575 ;;
  5576                           
  5577                           	psect	text25
  5578  0029D6                     __ptext25:
  5579                           	opt stack 0
  5580  0029D6                     i1___awdiv:
  5581                           	opt stack 20
  5582                           
  5583                           ;incstack = 0
  5584  0029D6  0E00               	movlw	0
  5585  0029D8  6E06               	movwf	i1___awdiv@sign,c
  5586  0029DA  AE04               	btfss	i1___awdiv@divisor+1,7,c
  5587  0029DC  D006               	goto	i1l3432
  5588  0029DE  6C03               	negf	i1___awdiv@divisor,c
  5589  0029E0  1E04               	comf	i1___awdiv@divisor+1,f,c
  5590  0029E2  B0D8               	btfsc	status,0,c
  5591  0029E4  2A04               	incf	i1___awdiv@divisor+1,f,c
  5592  0029E6  0E01               	movlw	1
  5593  0029E8  6E06               	movwf	i1___awdiv@sign,c
  5594  0029EA                     i1l3432:
  5595  0029EA  AE02               	btfss	i1___awdiv@dividend+1,7,c
  5596  0029EC  D006               	goto	i1l3438
  5597  0029EE  6C01               	negf	i1___awdiv@dividend,c
  5598  0029F0  1E02               	comf	i1___awdiv@dividend+1,f,c
  5599  0029F2  B0D8               	btfsc	status,0,c
  5600  0029F4  2A02               	incf	i1___awdiv@dividend+1,f,c
  5601  0029F6  0E01               	movlw	1
  5602  0029F8  1A06               	xorwf	i1___awdiv@sign,f,c
  5603  0029FA                     i1l3438:
  5604  0029FA  0E00               	movlw	0
  5605  0029FC  6E08               	movwf	i1___awdiv@quotient+1,c
  5606  0029FE  0E00               	movlw	0
  5607  002A00  6E07               	movwf	i1___awdiv@quotient,c
  5608  002A02  5003               	movf	i1___awdiv@divisor,w,c
  5609  002A04  1004               	iorwf	i1___awdiv@divisor+1,w,c
  5610  002A06  B4D8               	btfsc	status,2,c
  5611  002A08  D01C               	goto	i1l3460
  5612  002A0A  0E01               	movlw	1
  5613  002A0C  6E05               	movwf	i1___awdiv@counter,c
  5614  002A0E  D004               	goto	i1l3446
  5615  002A10                     i1l3444:
  5616  002A10  90D8               	bcf	status,0,c
  5617  002A12  3603               	rlcf	i1___awdiv@divisor,f,c
  5618  002A14  3604               	rlcf	i1___awdiv@divisor+1,f,c
  5619  002A16  2A05               	incf	i1___awdiv@counter,f,c
  5620  002A18                     i1l3446:
  5621  002A18  AE04               	btfss	i1___awdiv@divisor+1,7,c
  5622  002A1A  D7FA               	goto	i1l3444
  5623  002A1C                     i1l3448:
  5624  002A1C  90D8               	bcf	status,0,c
  5625  002A1E  3607               	rlcf	i1___awdiv@quotient,f,c
  5626  002A20  3608               	rlcf	i1___awdiv@quotient+1,f,c
  5627  002A22  5003               	movf	i1___awdiv@divisor,w,c
  5628  002A24  5C01               	subwf	i1___awdiv@dividend,w,c
  5629  002A26  5004               	movf	i1___awdiv@divisor+1,w,c
  5630  002A28  5802               	subwfb	i1___awdiv@dividend+1,w,c
  5631  002A2A  A0D8               	btfss	status,0,c
  5632  002A2C  D005               	goto	i1l3456
  5633  002A2E  5003               	movf	i1___awdiv@divisor,w,c
  5634  002A30  5E01               	subwf	i1___awdiv@dividend,f,c
  5635  002A32  5004               	movf	i1___awdiv@divisor+1,w,c
  5636  002A34  5A02               	subwfb	i1___awdiv@dividend+1,f,c
  5637  002A36  8007               	bsf	i1___awdiv@quotient,0,c
  5638  002A38                     i1l3456:
  5639  002A38  90D8               	bcf	status,0,c
  5640  002A3A  3204               	rrcf	i1___awdiv@divisor+1,f,c
  5641  002A3C  3203               	rrcf	i1___awdiv@divisor,f,c
  5642  002A3E  2E05               	decfsz	i1___awdiv@counter,f,c
  5643  002A40  D7ED               	goto	i1l3448
  5644  002A42                     i1l3460:
  5645  002A42  5006               	movf	i1___awdiv@sign,w,c
  5646  002A44  B4D8               	btfsc	status,2,c
  5647  002A46  D004               	goto	i1l3464
  5648  002A48  6C07               	negf	i1___awdiv@quotient,c
  5649  002A4A  1E08               	comf	i1___awdiv@quotient+1,f,c
  5650  002A4C  B0D8               	btfsc	status,0,c
  5651  002A4E  2A08               	incf	i1___awdiv@quotient+1,f,c
  5652  002A50                     i1l3464:
  5653  002A50  C007  F001         	movff	i1___awdiv@quotient,?i1___awdiv
  5654  002A54  C008  F002         	movff	i1___awdiv@quotient+1,?i1___awdiv+1
  5655  002A58  0012               	return	
  5656  002A5A                     __end_ofi1___awdiv:
  5657                           	opt stack 0
  5658                           pclatu	equ	0xFFB
  5659                           pclath	equ	0xFFA
  5660                           tblptru	equ	0xFF8
  5661                           tblptrh	equ	0xFF7
  5662                           tblptrl	equ	0xFF6
  5663                           tablat	equ	0xFF5
  5664                           prodh	equ	0xFF4
  5665                           prodl	equ	0xFF3
  5666                           intcon	equ	0xFF2
  5667                           intcon2	equ	0xFF1
  5668                           intcon3	equ	0xFF0
  5669                           postinc0	equ	0xFEE
  5670                           fsr0h	equ	0xFEA
  5671                           fsr0l	equ	0xFE9
  5672                           wreg	equ	0xFE8
  5673                           fsr1h	equ	0xFE2
  5674                           fsr1l	equ	0xFE1
  5675                           bsr	equ	0xFE0
  5676                           indf2	equ	0xFDF
  5677                           postinc2	equ	0xFDE
  5678                           postdec2	equ	0xFDD
  5679                           fsr2h	equ	0xFDA
  5680                           fsr2l	equ	0xFD9
  5681                           status	equ	0xFD8
  5682                           
  5683 ;; *************** function _bin_io *****************
  5684 ;; Defined at:
  5685 ;;		line 1144 in file "weather-v2.c"
  5686 ;; Parameters:    Size  Location     Type
  5687 ;;		None
  5688 ;; Auto vars:     Size  Location     Type
  5689 ;;		None
  5690 ;; Return value:  Size  Location     Type
  5691 ;;		None               void
  5692 ;; Registers used:
  5693 ;;		wreg, status,2
  5694 ;; Tracked objects:
  5695 ;;		On entry : 0/0
  5696 ;;		On exit  : 0/0
  5697 ;;		Unchanged: 0/0
  5698 ;; Data sizes:     COMRAM   BANK0   BANK1   BANK2
  5699 ;;      Params:         0       0       0       0
  5700 ;;      Locals:         0       0       0       0
  5701 ;;      Temps:          0       0       0       0
  5702 ;;      Totals:         0       0       0       0
  5703 ;;Total ram usage:        0 bytes
  5704 ;; Hardware stack levels used:    1
  5705 ;; Hardware stack levels required when called:    3
  5706 ;; This function calls:
  5707 ;;		Nothing
  5708 ;; This function is called by:
  5709 ;;		_low_isr
  5710 ;; This function uses a non-reentrant model
  5711 ;;
  5712                           
  5713                           	psect	text26
  5714  0017C0                     __ptext26:
  5715                           	opt stack 0
  5716  0017C0                     _bin_io:
  5717                           	opt stack 23
  5718                           
  5719                           ;weather-v2.c: 1146: TXREG = 'V';
  5720                           
  5721                           ;incstack = 0
  5722  0017C0  0E56               	movlw	86
  5723  0017C2  6EAD               	movwf	4013,c	;volatile
  5724  0017C4                     i1l372:
  5725  0017C4  A2AC               	btfss	4012,1,c	;volatile
  5726  0017C6  D7FE               	goto	i1l372
  5727                           
  5728                           ;weather-v2.c: 1148: TXREG = 'c';
  5729  0017C8  0E63               	movlw	99
  5730  0017CA  6EAD               	movwf	4013,c	;volatile
  5731  0017CC                     i1l375:
  5732  0017CC  A2AC               	btfss	4012,1,c	;volatile
  5733  0017CE  D7FE               	goto	i1l375
  5734                           
  5735                           ;weather-v2.c: 1150: TXREG = 'c';
  5736  0017D0  0E63               	movlw	99
  5737  0017D2  6EAD               	movwf	4013,c	;volatile
  5738  0017D4                     i1l378:
  5739  0017D4  A2AC               	btfss	4012,1,c	;volatile
  5740  0017D6  D7FE               	goto	i1l378
  5741                           
  5742                           ;weather-v2.c: 1152: TXREG = '=';
  5743  0017D8  0E3D               	movlw	61
  5744  0017DA  6EAD               	movwf	4013,c	;volatile
  5745  0017DC                     i1l381:
  5746  0017DC  A2AC               	btfss	4012,1,c	;volatile
  5747  0017DE  D7FE               	goto	i1l381
  5748                           
  5749                           ;weather-v2.c: 1154: TXREG = '0';
  5750  0017E0  0E30               	movlw	48
  5751  0017E2  6EAD               	movwf	4013,c	;volatile
  5752  0017E4                     i1l384:
  5753  0017E4  A2AC               	btfss	4012,1,c	;volatile
  5754  0017E6  D7FE               	goto	i1l384
  5755                           
  5756                           ;weather-v2.c: 1156: TXREG = '0';
  5757  0017E8  0E30               	movlw	48
  5758  0017EA  6EAD               	movwf	4013,c	;volatile
  5759  0017EC                     i1l387:
  5760  0017EC  A2AC               	btfss	4012,1,c	;volatile
  5761  0017EE  D7FE               	goto	i1l387
  5762                           
  5763                           ;weather-v2.c: 1158: TXREG = '.';
  5764  0017F0  0E2E               	movlw	46
  5765  0017F2  6EAD               	movwf	4013,c	;volatile
  5766  0017F4                     i1l390:
  5767  0017F4  A2AC               	btfss	4012,1,c	;volatile
  5768  0017F6  D7FE               	goto	i1l390
  5769                           
  5770                           ;weather-v2.c: 1160: TXREG = '0';
  5771  0017F8  0E30               	movlw	48
  5772  0017FA  6EAD               	movwf	4013,c	;volatile
  5773  0017FC                     i1l393:
  5774  0017FC  A2AC               	btfss	4012,1,c	;volatile
  5775  0017FE  D7FE               	goto	i1l393
  5776                           
  5777                           ;weather-v2.c: 1162: TXREG = '0';
  5778  001800  0E30               	movlw	48
  5779  001802  6EAD               	movwf	4013,c	;volatile
  5780  001804                     i1l396:
  5781  001804  A2AC               	btfss	4012,1,c	;volatile
  5782  001806  D7FE               	goto	i1l396
  5783                           
  5784                           ;weather-v2.c: 1164: TXREG = 'v';
  5785  001808  0E76               	movlw	118
  5786  00180A  6EAD               	movwf	4013,c	;volatile
  5787  00180C                     i1l399:
  5788  00180C  A2AC               	btfss	4012,1,c	;volatile
  5789  00180E  D7FE               	goto	i1l399
  5790                           
  5791                           ;weather-v2.c: 1166: TXREG = ' ';
  5792  001810  0E20               	movlw	32
  5793  001812  6EAD               	movwf	4013,c	;volatile
  5794  001814                     i1l402:
  5795  001814  A2AC               	btfss	4012,1,c	;volatile
  5796  001816  D7FE               	goto	i1l402
  5797                           
  5798                           ;weather-v2.c: 1169: TXREG = 'W';
  5799  001818  0E57               	movlw	87
  5800  00181A  6EAD               	movwf	4013,c	;volatile
  5801  00181C                     i1l405:
  5802  00181C  A2AC               	btfss	4012,1,c	;volatile
  5803  00181E  D7FE               	goto	i1l405
  5804                           
  5805                           ;weather-v2.c: 1171: TXREG = 'i';
  5806  001820  0E69               	movlw	105
  5807  001822  6EAD               	movwf	4013,c	;volatile
  5808  001824                     i1l408:
  5809  001824  A2AC               	btfss	4012,1,c	;volatile
  5810  001826  D7FE               	goto	i1l408
  5811                           
  5812                           ;weather-v2.c: 1173: TXREG = 'n';
  5813  001828  0E6E               	movlw	110
  5814  00182A  6EAD               	movwf	4013,c	;volatile
  5815  00182C                     i1l411:
  5816  00182C  A2AC               	btfss	4012,1,c	;volatile
  5817  00182E  D7FE               	goto	i1l411
  5818                           
  5819                           ;weather-v2.c: 1175: TXREG = 'd';
  5820  001830  0E64               	movlw	100
  5821  001832  6EAD               	movwf	4013,c	;volatile
  5822  001834                     i1l414:
  5823  001834  A2AC               	btfss	4012,1,c	;volatile
  5824  001836  D7FE               	goto	i1l414
  5825                           
  5826                           ;weather-v2.c: 1177: TXREG = ' ';
  5827  001838  0E20               	movlw	32
  5828  00183A  6EAD               	movwf	4013,c	;volatile
  5829  00183C                     i1l417:
  5830  00183C  A2AC               	btfss	4012,1,c	;volatile
  5831  00183E  D7FE               	goto	i1l417
  5832                           
  5833                           ;weather-v2.c: 1179: TXREG = 'v';
  5834  001840  0E76               	movlw	118
  5835  001842  6EAD               	movwf	4013,c	;volatile
  5836  001844                     i1l420:
  5837  001844  A2AC               	btfss	4012,1,c	;volatile
  5838  001846  D7FE               	goto	i1l420
  5839                           
  5840                           ;weather-v2.c: 1181: TXREG = 'e';
  5841  001848  0E65               	movlw	101
  5842  00184A  6EAD               	movwf	4013,c	;volatile
  5843  00184C                     i1l423:
  5844  00184C  A2AC               	btfss	4012,1,c	;volatile
  5845  00184E  D7FE               	goto	i1l423
  5846                           
  5847                           ;weather-v2.c: 1183: TXREG = 'l';
  5848  001850  0E6C               	movlw	108
  5849  001852  6EAD               	movwf	4013,c	;volatile
  5850  001854                     i1l426:
  5851  001854  A2AC               	btfss	4012,1,c	;volatile
  5852  001856  D7FE               	goto	i1l426
  5853                           
  5854                           ;weather-v2.c: 1185: TXREG = '=';
  5855  001858  0E3D               	movlw	61
  5856  00185A  6EAD               	movwf	4013,c	;volatile
  5857  00185C                     i1l429:
  5858  00185C  A2AC               	btfss	4012,1,c	;volatile
  5859  00185E  D7FE               	goto	i1l429
  5860                           
  5861                           ;weather-v2.c: 1187: TXREG = wind_vel_data_h;
  5862  001860  C037  FFAD         	movff	_wind_vel_data_h,4013	;volatile
  5863  001864                     i1l432:
  5864  001864  A2AC               	btfss	4012,1,c	;volatile
  5865  001866  D7FE               	goto	i1l432
  5866                           
  5867                           ;weather-v2.c: 1189: TXREG = wind_vel_data_l;
  5868  001868  C038  FFAD         	movff	_wind_vel_data_l,4013	;volatile
  5869  00186C                     i1l435:
  5870  00186C  A2AC               	btfss	4012,1,c	;volatile
  5871  00186E  D7FE               	goto	i1l435
  5872                           
  5873                           ;weather-v2.c: 1191: TXREG = 'm';
  5874  001870  0E6D               	movlw	109
  5875  001872  6EAD               	movwf	4013,c	;volatile
  5876  001874                     i1l438:
  5877  001874  A2AC               	btfss	4012,1,c	;volatile
  5878  001876  D7FE               	goto	i1l438
  5879                           
  5880                           ;weather-v2.c: 1193: TXREG = '/';
  5881  001878  0E2F               	movlw	47
  5882  00187A  6EAD               	movwf	4013,c	;volatile
  5883  00187C                     i1l441:
  5884  00187C  A2AC               	btfss	4012,1,c	;volatile
  5885  00187E  D7FE               	goto	i1l441
  5886                           
  5887                           ;weather-v2.c: 1195: TXREG = 's';
  5888  001880  0E73               	movlw	115
  5889  001882  6EAD               	movwf	4013,c	;volatile
  5890                           
  5891                           ;weather-v2.c: 1197: TXREG = ' ';
  5892  001884  0E20               	movlw	32
  5893  001886  6EAD               	movwf	4013,c	;volatile
  5894  001888                     i1l444:
  5895  001888  A2AC               	btfss	4012,1,c	;volatile
  5896  00188A  D7FE               	goto	i1l444
  5897                           
  5898                           ;weather-v2.c: 1200: TXREG = 'W';
  5899  00188C  0E57               	movlw	87
  5900  00188E  6EAD               	movwf	4013,c	;volatile
  5901  001890                     i1l447:
  5902  001890  A2AC               	btfss	4012,1,c	;volatile
  5903  001892  D7FE               	goto	i1l447
  5904                           
  5905                           ;weather-v2.c: 1202: TXREG = 'i';
  5906  001894  0E69               	movlw	105
  5907  001896  6EAD               	movwf	4013,c	;volatile
  5908  001898                     i1l450:
  5909  001898  A2AC               	btfss	4012,1,c	;volatile
  5910  00189A  D7FE               	goto	i1l450
  5911                           
  5912                           ;weather-v2.c: 1204: TXREG = 'n';
  5913  00189C  0E6E               	movlw	110
  5914  00189E  6EAD               	movwf	4013,c	;volatile
  5915  0018A0                     i1l453:
  5916  0018A0  A2AC               	btfss	4012,1,c	;volatile
  5917  0018A2  D7FE               	goto	i1l453
  5918                           
  5919                           ;weather-v2.c: 1206: TXREG = 'd';
  5920  0018A4  0E64               	movlw	100
  5921  0018A6  6EAD               	movwf	4013,c	;volatile
  5922  0018A8                     i1l456:
  5923  0018A8  A2AC               	btfss	4012,1,c	;volatile
  5924  0018AA  D7FE               	goto	i1l456
  5925                           
  5926                           ;weather-v2.c: 1208: TXREG = ' ';
  5927  0018AC  0E20               	movlw	32
  5928  0018AE  6EAD               	movwf	4013,c	;volatile
  5929  0018B0                     i1l459:
  5930  0018B0  A2AC               	btfss	4012,1,c	;volatile
  5931  0018B2  D7FE               	goto	i1l459
  5932                           
  5933                           ;weather-v2.c: 1210: TXREG = 'd';
  5934  0018B4  0E64               	movlw	100
  5935  0018B6  6EAD               	movwf	4013,c	;volatile
  5936  0018B8                     i1l462:
  5937  0018B8  A2AC               	btfss	4012,1,c	;volatile
  5938  0018BA  D7FE               	goto	i1l462
  5939                           
  5940                           ;weather-v2.c: 1212: TXREG = 'i';
  5941  0018BC  0E69               	movlw	105
  5942  0018BE  6EAD               	movwf	4013,c	;volatile
  5943  0018C0                     i1l465:
  5944  0018C0  A2AC               	btfss	4012,1,c	;volatile
  5945  0018C2  D7FE               	goto	i1l465
  5946                           
  5947                           ;weather-v2.c: 1214: TXREG = 'r';
  5948  0018C4  0E72               	movlw	114
  5949  0018C6  6EAD               	movwf	4013,c	;volatile
  5950  0018C8                     i1l468:
  5951  0018C8  A2AC               	btfss	4012,1,c	;volatile
  5952  0018CA  D7FE               	goto	i1l468
  5953                           
  5954                           ;weather-v2.c: 1216: TXREG = '=';
  5955  0018CC  0E3D               	movlw	61
  5956  0018CE  6EAD               	movwf	4013,c	;volatile
  5957                           
  5958                           ;weather-v2.c: 1217: TXREG = wind_dirH;
  5959  0018D0  C03F  FFAD         	movff	_wind_dirH,4013	;volatile
  5960  0018D4                     i1l471:
  5961  0018D4  A2AC               	btfss	4012,1,c	;volatile
  5962  0018D6  D7FE               	goto	i1l471
  5963                           
  5964                           ;weather-v2.c: 1219: TXREG = wind_dirL;
  5965  0018D8  C040  FFAD         	movff	_wind_dirL,4013	;volatile
  5966  0018DC                     i1l474:
  5967  0018DC  A2AC               	btfss	4012,1,c	;volatile
  5968  0018DE  D7FE               	goto	i1l474
  5969                           
  5970                           ;weather-v2.c: 1222: TXREG = ' ';
  5971  0018E0  0E20               	movlw	32
  5972  0018E2  6EAD               	movwf	4013,c	;volatile
  5973  0018E4                     i1l477:
  5974  0018E4  A2AC               	btfss	4012,1,c	;volatile
  5975  0018E6  D7FE               	goto	i1l477
  5976                           
  5977                           ;weather-v2.c: 1224: TXREG = 'T';
  5978  0018E8  0E54               	movlw	84
  5979  0018EA  6EAD               	movwf	4013,c	;volatile
  5980  0018EC                     i1l480:
  5981  0018EC  A2AC               	btfss	4012,1,c	;volatile
  5982  0018EE  D7FE               	goto	i1l480
  5983                           
  5984                           ;weather-v2.c: 1226: TXREG = 'e';
  5985  0018F0  0E65               	movlw	101
  5986  0018F2  6EAD               	movwf	4013,c	;volatile
  5987  0018F4                     i1l483:
  5988  0018F4  A2AC               	btfss	4012,1,c	;volatile
  5989  0018F6  D7FE               	goto	i1l483
  5990                           
  5991                           ;weather-v2.c: 1228: TXREG = 'm';
  5992  0018F8  0E6D               	movlw	109
  5993  0018FA  6EAD               	movwf	4013,c	;volatile
  5994  0018FC                     i1l486:
  5995  0018FC  A2AC               	btfss	4012,1,c	;volatile
  5996  0018FE  D7FE               	goto	i1l486
  5997                           
  5998                           ;weather-v2.c: 1230: TXREG = 'p';
  5999  001900  0E70               	movlw	112
  6000  001902  6EAD               	movwf	4013,c	;volatile
  6001  001904                     i1l489:
  6002  001904  A2AC               	btfss	4012,1,c	;volatile
  6003  001906  D7FE               	goto	i1l489
  6004                           
  6005                           ;weather-v2.c: 1232: TXREG = '=';
  6006  001908  0E3D               	movlw	61
  6007  00190A  6EAD               	movwf	4013,c	;volatile
  6008  00190C                     i1l492:
  6009  00190C  A2AC               	btfss	4012,1,c	;volatile
  6010  00190E  D7FE               	goto	i1l492
  6011                           
  6012                           ;weather-v2.c: 1234: TXREG = temp_data_h;
  6013  001910  C02E  FFAD         	movff	_temp_data_h,4013	;volatile
  6014  001914                     i1l495:
  6015  001914  A2AC               	btfss	4012,1,c	;volatile
  6016  001916  D7FE               	goto	i1l495
  6017                           
  6018                           ;weather-v2.c: 1236: TXREG = temp_data_m;
  6019  001918  C030  FFAD         	movff	_temp_data_m,4013	;volatile
  6020  00191C                     i1l498:
  6021  00191C  A2AC               	btfss	4012,1,c	;volatile
  6022  00191E  D7FE               	goto	i1l498
  6023                           
  6024                           ;weather-v2.c: 1238: TXREG = temp_data_l;
  6025  001920  C02F  FFAD         	movff	_temp_data_l,4013	;volatile
  6026  001924                     i1l501:
  6027  001924  A2AC               	btfss	4012,1,c	;volatile
  6028  001926  D7FE               	goto	i1l501
  6029                           
  6030                           ;weather-v2.c: 1240: TXREG = 'd';
  6031  001928  0E64               	movlw	100
  6032  00192A  6EAD               	movwf	4013,c	;volatile
  6033  00192C                     i1l504:
  6034  00192C  A2AC               	btfss	4012,1,c	;volatile
  6035  00192E  D7FE               	goto	i1l504
  6036                           
  6037                           ;weather-v2.c: 1242: TXREG = 'e';
  6038  001930  0E65               	movlw	101
  6039  001932  6EAD               	movwf	4013,c	;volatile
  6040  001934                     i1l507:
  6041  001934  A2AC               	btfss	4012,1,c	;volatile
  6042  001936  D7FE               	goto	i1l507
  6043                           
  6044                           ;weather-v2.c: 1244: TXREG = 'g';
  6045  001938  0E67               	movlw	103
  6046  00193A  6EAD               	movwf	4013,c	;volatile
  6047  00193C                     i1l510:
  6048  00193C  A2AC               	btfss	4012,1,c	;volatile
  6049  00193E  D7FE               	goto	i1l510
  6050                           
  6051                           ;weather-v2.c: 1246: TXREG = 'C';
  6052  001940  0E43               	movlw	67
  6053  001942  6EAD               	movwf	4013,c	;volatile
  6054  001944                     i1l513:
  6055  001944  A2AC               	btfss	4012,1,c	;volatile
  6056  001946  D7FE               	goto	i1l513
  6057                           
  6058                           ;weather-v2.c: 1249: TXREG = ' ';
  6059  001948  0E20               	movlw	32
  6060  00194A  6EAD               	movwf	4013,c	;volatile
  6061  00194C                     i1l516:
  6062  00194C  A2AC               	btfss	4012,1,c	;volatile
  6063  00194E  D7FE               	goto	i1l516
  6064                           
  6065                           ;weather-v2.c: 1251: TXREG = 'H';
  6066  001950  0E48               	movlw	72
  6067  001952  6EAD               	movwf	4013,c	;volatile
  6068  001954                     i1l519:
  6069  001954  A2AC               	btfss	4012,1,c	;volatile
  6070  001956  D7FE               	goto	i1l519
  6071                           
  6072                           ;weather-v2.c: 1253: TXREG = 'u';
  6073  001958  0E75               	movlw	117
  6074  00195A  6EAD               	movwf	4013,c	;volatile
  6075  00195C                     i1l522:
  6076  00195C  A2AC               	btfss	4012,1,c	;volatile
  6077  00195E  D7FE               	goto	i1l522
  6078                           
  6079                           ;weather-v2.c: 1255: TXREG = 'm';
  6080  001960  0E6D               	movlw	109
  6081  001962  6EAD               	movwf	4013,c	;volatile
  6082  001964                     i1l525:
  6083  001964  A2AC               	btfss	4012,1,c	;volatile
  6084  001966  D7FE               	goto	i1l525
  6085                           
  6086                           ;weather-v2.c: 1257: TXREG = 'i';
  6087  001968  0E69               	movlw	105
  6088  00196A  6EAD               	movwf	4013,c	;volatile
  6089  00196C                     i1l528:
  6090  00196C  A2AC               	btfss	4012,1,c	;volatile
  6091  00196E  D7FE               	goto	i1l528
  6092                           
  6093                           ;weather-v2.c: 1259: TXREG = 'd';
  6094  001970  0E64               	movlw	100
  6095  001972  6EAD               	movwf	4013,c	;volatile
  6096  001974                     i1l531:
  6097  001974  A2AC               	btfss	4012,1,c	;volatile
  6098  001976  D7FE               	goto	i1l531
  6099                           
  6100                           ;weather-v2.c: 1261: TXREG = 'i';
  6101  001978  0E69               	movlw	105
  6102  00197A  6EAD               	movwf	4013,c	;volatile
  6103  00197C                     i1l534:
  6104  00197C  A2AC               	btfss	4012,1,c	;volatile
  6105  00197E  D7FE               	goto	i1l534
  6106                           
  6107                           ;weather-v2.c: 1263: TXREG = 't';
  6108  001980  0E74               	movlw	116
  6109  001982  6EAD               	movwf	4013,c	;volatile
  6110  001984                     i1l537:
  6111  001984  A2AC               	btfss	4012,1,c	;volatile
  6112  001986  D7FE               	goto	i1l537
  6113                           
  6114                           ;weather-v2.c: 1265: TXREG = 'y';
  6115  001988  0E79               	movlw	121
  6116  00198A  6EAD               	movwf	4013,c	;volatile
  6117  00198C                     i1l540:
  6118  00198C  A2AC               	btfss	4012,1,c	;volatile
  6119  00198E  D7FE               	goto	i1l540
  6120                           
  6121                           ;weather-v2.c: 1267: TXREG = '=';
  6122  001990  0E3D               	movlw	61
  6123  001992  6EAD               	movwf	4013,c	;volatile
  6124  001994                     i1l543:
  6125  001994  A2AC               	btfss	4012,1,c	;volatile
  6126  001996  D7FE               	goto	i1l543
  6127                           
  6128                           ;weather-v2.c: 1269: TXREG = hum_data_h;
  6129  001998  C02A  FFAD         	movff	_hum_data_h,4013	;volatile
  6130  00199C                     i1l546:
  6131  00199C  A2AC               	btfss	4012,1,c	;volatile
  6132  00199E  D7FE               	goto	i1l546
  6133                           
  6134                           ;weather-v2.c: 1271: TXREG = hum_data_m;
  6135  0019A0  C02C  FFAD         	movff	_hum_data_m,4013	;volatile
  6136  0019A4                     i1l549:
  6137  0019A4  A2AC               	btfss	4012,1,c	;volatile
  6138  0019A6  D7FE               	goto	i1l549
  6139                           
  6140                           ;weather-v2.c: 1273: TXREG = hum_data_l;
  6141  0019A8  C02B  FFAD         	movff	_hum_data_l,4013	;volatile
  6142  0019AC                     i1l552:
  6143  0019AC  A2AC               	btfss	4012,1,c	;volatile
  6144  0019AE  D7FE               	goto	i1l552
  6145                           
  6146                           ;weather-v2.c: 1275: TXREG = '%';
  6147  0019B0  0E25               	movlw	37
  6148  0019B2  6EAD               	movwf	4013,c	;volatile
  6149  0019B4                     i1l555:
  6150  0019B4  A2AC               	btfss	4012,1,c	;volatile
  6151  0019B6  D7FE               	goto	i1l555
  6152                           
  6153                           ;weather-v2.c: 1278: TXREG = '\n';
  6154  0019B8  0E0A               	movlw	10
  6155  0019BA  6EAD               	movwf	4013,c	;volatile
  6156  0019BC                     i1l558:
  6157  0019BC  A2AC               	btfss	4012,1,c	;volatile
  6158  0019BE  D7FE               	goto	i1l558
  6159                           
  6160                           ;weather-v2.c: 1280: TXREG = '\r';
  6161  0019C0  0E0D               	movlw	13
  6162  0019C2  6EAD               	movwf	4013,c	;volatile
  6163  0019C4                     i1l561:
  6164  0019C4  B2AC               	btfsc	4012,1,c	;volatile
  6165  0019C6  0012               	return	
  6166  0019C8  D7FD               	goto	i1l561
  6167  0019CA                     __end_of_bin_io:
  6168                           	opt stack 0
  6169                           pclatu	equ	0xFFB
  6170                           pclath	equ	0xFFA
  6171                           tblptru	equ	0xFF8
  6172                           tblptrh	equ	0xFF7
  6173                           tblptrl	equ	0xFF6
  6174                           tablat	equ	0xFF5
  6175                           prodh	equ	0xFF4
  6176                           prodl	equ	0xFF3
  6177                           intcon	equ	0xFF2
  6178                           intcon2	equ	0xFF1
  6179                           intcon3	equ	0xFF0
  6180                           postinc0	equ	0xFEE
  6181                           fsr0h	equ	0xFEA
  6182                           fsr0l	equ	0xFE9
  6183                           wreg	equ	0xFE8
  6184                           fsr1h	equ	0xFE2
  6185                           fsr1l	equ	0xFE1
  6186                           bsr	equ	0xFE0
  6187                           indf2	equ	0xFDF
  6188                           postinc2	equ	0xFDE
  6189                           postdec2	equ	0xFDD
  6190                           fsr2h	equ	0xFDA
  6191                           fsr2l	equ	0xFD9
  6192                           status	equ	0xFD8
  6193                           
  6194 ;; *************** function _high_isr *****************
  6195 ;; Defined at:
  6196 ;;		line 1548 in file "weather-v2.c"
  6197 ;; Parameters:    Size  Location     Type
  6198 ;;		None
  6199 ;; Auto vars:     Size  Location     Type
  6200 ;;  temporary_i     1  103[BANK0 ] unsigned char 
  6201 ;; Return value:  Size  Location     Type
  6202 ;;		None               void
  6203 ;; Registers used:
  6204 ;;		wreg, fsr1l, fsr1h, fsr2l, fsr2h, status,2, status,0, prodl, prodh, cstack
  6205 ;; Tracked objects:
  6206 ;;		On entry : 0/0
  6207 ;;		On exit  : 0/0
  6208 ;;		Unchanged: 0/0
  6209 ;; Data sizes:     COMRAM   BANK0   BANK1   BANK2
  6210 ;;      Params:         0       0       0       0
  6211 ;;      Locals:         0       4       0       0
  6212 ;;      Temps:          0      18       0       0
  6213 ;;      Totals:         0      22       0       0
  6214 ;;Total ram usage:       22 bytes
  6215 ;; Hardware stack levels used:    1
  6216 ;; Hardware stack levels required when called:    2
  6217 ;; This function calls:
  6218 ;;		___awmod
  6219 ;;		___ftadd
  6220 ;;		___ftdiv
  6221 ;;		___ftge
  6222 ;;		___ftmul
  6223 ;;		___ftneg
  6224 ;;		___fttol
  6225 ;;		___lwtoft
  6226 ;;		_read_dsth01
  6227 ;;		i2___awdiv
  6228 ;;		i2___lwdiv
  6229 ;;		i2___lwmod
  6230 ;; This function is called by:
  6231 ;;		Interrupt level 2
  6232 ;; This function uses a non-reentrant model
  6233 ;;
  6234                           
  6235                           	psect	intcode
  6236  000008                     __pintcode:
  6237                           	opt stack 0
  6238  000008                     _high_isr:
  6239                           	opt stack 20
  6240                           
  6241                           ;incstack = 0
  6242  000008  8241               	bsf	btemp,1,c	;set compiler interrupt flag (level 2)
  6243  00000A  CFFA F0B6          	movff	pclath,??_high_isr+4
  6244  00000E  CFFB F0B7          	movff	pclatu,??_high_isr+5
  6245  000012  EDA8  F001         	call	int_func,f	;refresh shadow registers
  6246                           pclatu	equ	0xFFB
  6247                           pclath	equ	0xFFA
  6248                           tblptru	equ	0xFF8
  6249                           tblptrh	equ	0xFF7
  6250                           tblptrl	equ	0xFF6
  6251                           tablat	equ	0xFF5
  6252                           prodh	equ	0xFF4
  6253                           prodl	equ	0xFF3
  6254                           intcon	equ	0xFF2
  6255                           intcon2	equ	0xFF1
  6256                           intcon3	equ	0xFF0
  6257                           postinc0	equ	0xFEE
  6258                           fsr0h	equ	0xFEA
  6259                           fsr0l	equ	0xFE9
  6260                           wreg	equ	0xFE8
  6261                           fsr1h	equ	0xFE2
  6262                           fsr1l	equ	0xFE1
  6263                           bsr	equ	0xFE0
  6264                           indf2	equ	0xFDF
  6265                           postinc2	equ	0xFDE
  6266                           postdec2	equ	0xFDD
  6267                           fsr2h	equ	0xFDA
  6268                           fsr2l	equ	0xFD9
  6269                           status	equ	0xFD8
  6270                           
  6271                           	psect	intcode_body
  6272  000350                     __pintcode_body:
  6273                           	opt stack 20
  6274  000350                     int_func:
  6275                           	opt stack 20
  6276  000350  0006               	pop		; remove dummy address from shadow register refresh
  6277  000352  CFE9 F0B8          	movff	fsr0l,??_high_isr+6
  6278  000356  CFEA F0B9          	movff	fsr0h,??_high_isr+7
  6279  00035A  CFE1 F0BA          	movff	fsr1l,??_high_isr+8
  6280  00035E  CFE2 F0BB          	movff	fsr1h,??_high_isr+9
  6281  000362  CFD9 F0BC          	movff	fsr2l,??_high_isr+10
  6282  000366  CFDA F0BD          	movff	fsr2h,??_high_isr+11
  6283  00036A  CFF3 F0BE          	movff	prodl,??_high_isr+12
  6284  00036E  CFF4 F0BF          	movff	prodh,??_high_isr+13
  6285  000372  CFF6 F0C0          	movff	tblptrl,??_high_isr+14
  6286  000376  CFF7 F0C1          	movff	tblptrh,??_high_isr+15
  6287  00037A  CFF8 F0C2          	movff	tblptru,??_high_isr+16
  6288  00037E  CFF5 F0C3          	movff	tablat,??_high_isr+17
  6289                           
  6290                           ;weather-v2.c: 1550: char temporary_i;
  6291                           ;weather-v2.c: 1552: if(INTCONbits.TMR0IF)
  6292  000382  A4F2               	btfss	intcon,2,c	;volatile
  6293  000384  EF46  F008         	goto	i2l6648
  6294                           
  6295                           ;weather-v2.c: 1553: {
  6296                           ;weather-v2.c: 1554: PORTCbits.RC0 = 1;
  6297  000388  8082               	bsf	3970,0,c	;volatile
  6298                           
  6299                           ;weather-v2.c: 1556: INTCONbits.TMR0IF = 0;
  6300  00038A  94F2               	bcf	intcon,2,c	;volatile
  6301                           
  6302                           ;weather-v2.c: 1557: TMR0 = 0xBDC ;
  6303  00038C  0E0B               	movlw	11
  6304  00038E  6ED7               	movwf	4055,c	;volatile
  6305  000390  0EDC               	movlw	220
  6306  000392  6ED6               	movwf	4054,c	;volatile
  6307                           
  6308                           ;weather-v2.c: 1558: TMR0 = 0xC2F7 ;
  6309  000394  0EC2               	movlw	194
  6310  000396  6ED7               	movwf	4055,c	;volatile
  6311  000398  0EF7               	movlw	247
  6312  00039A  6ED6               	movwf	4054,c	;volatile
  6313                           
  6314                           ;weather-v2.c: 1564: ADRESH=0;
  6315  00039C  0E00               	movlw	0
  6316  00039E  6EC4               	movwf	4036,c	;volatile
  6317                           
  6318                           ;weather-v2.c: 1565: ADRESL=0;
  6319  0003A0  0E00               	movlw	0
  6320  0003A2  6EC3               	movwf	4035,c	;volatile
  6321                           
  6322                           ;weather-v2.c: 1566: ADCON0bits.GO_NOT_DONE = 1;
  6323  0003A4  82C2               	bsf	4034,1,c	;volatile
  6324  0003A6                     i2l736:
  6325  0003A6  B2C2               	btfsc	4034,1,c	;volatile
  6326  0003A8  D7FE               	goto	i2l736
  6327                           
  6328                           ;weather-v2.c: 1569: wind_dir_dec = ADRESH ;
  6329  0003AA  CFC4 F0E3          	movff	4036,_wind_dir_dec	;volatile
  6330  0003AE  0100               	movlb	0	; () banked
  6331  0003B0  6BE4               	clrf	(_wind_dir_dec+1)& (0+255),b
  6332                           
  6333                           ; BSR set to: 0
  6334                           ;weather-v2.c: 1570: wind_dir_dec <<= 8 ;
  6335  0003B2  0100               	movlb	0	; () banked
  6336  0003B4  51E3               	movf	_wind_dir_dec& (0+255),w,b
  6337  0003B6  6FE4               	movwf	(_wind_dir_dec+1)& (0+255),b
  6338  0003B8  6BE3               	clrf	_wind_dir_dec& (0+255),b
  6339                           
  6340                           ; BSR set to: 0
  6341                           ;weather-v2.c: 1571: wind_dir_dec += ADRESL ;
  6342  0003BA  50C3               	movf	4035,w,c	;volatile
  6343  0003BC  0100               	movlb	0	; () banked
  6344  0003BE  27E3               	addwf	_wind_dir_dec& (0+255),f,b
  6345  0003C0  0E00               	movlw	0
  6346  0003C2  23E4               	addwfc	(_wind_dir_dec+1)& (0+255),f,b
  6347                           
  6348                           ; BSR set to: 0
  6349                           ;weather-v2.c: 1572: wind_dir_dec >>= 6 ;
  6350  0003C4  0E06               	movlw	6
  6351  0003C6  0100               	movlb	0	; () banked
  6352  0003C8  6FB2               	movwf	??_high_isr& (0+255),b
  6353  0003CA                     i2u764_45:
  6354  0003CA  90D8               	bcf	status,0,c
  6355  0003CC  0100               	movlb	0	; () banked
  6356  0003CE  33E4               	rrcf	(_wind_dir_dec+1)& (0+255),f,b
  6357  0003D0  33E3               	rrcf	_wind_dir_dec& (0+255),f,b
  6358  0003D2  0100               	movlb	0	; () banked
  6359  0003D4  2FB2               	decfsz	??_high_isr& (0+255),f,b
  6360  0003D6  D7F9               	goto	i2u764_45
  6361                           
  6362                           ; BSR set to: 0
  6363                           ;weather-v2.c: 1574: wind_dir_voltage = wind_dir_dec*3.35/1023;
  6364  0003D8  0E66               	movlw	102
  6365  0003DA  0100               	movlb	0	; () banked
  6366  0003DC  6F6E               	movwf	___ftmul@f2& (0+255),b
  6367  0003DE  0E56               	movlw	86
  6368  0003E0  0100               	movlb	0	; () banked
  6369  0003E2  6F6F               	movwf	(___ftmul@f2+1)& (0+255),b
  6370  0003E4  0E40               	movlw	64
  6371  0003E6  0100               	movlb	0	; () banked
  6372  0003E8  6F70               	movwf	(___ftmul@f2+2)& (0+255),b
  6373  0003EA  C0E3  F068         	movff	_wind_dir_dec,___lwtoft@c
  6374  0003EE  C0E4  F069         	movff	_wind_dir_dec+1,___lwtoft@c+1
  6375  0003F2  EC01  F018         	call	___lwtoft	;wreg free
  6376  0003F6  C068  F06B         	movff	?___lwtoft,___ftmul@f1
  6377  0003FA  C069  F06C         	movff	?___lwtoft+1,___ftmul@f1+1
  6378  0003FE  C06A  F06D         	movff	?___lwtoft+2,___ftmul@f1+2
  6379  000402  EC14  F00F         	call	___ftmul	;wreg free
  6380  000406  C06B  F07A         	movff	?___ftmul,___ftdiv@f1
  6381  00040A  C06C  F07B         	movff	?___ftmul+1,___ftdiv@f1+1
  6382  00040E  C06D  F07C         	movff	?___ftmul+2,___ftdiv@f1+2
  6383  000412  0EC0               	movlw	192
  6384  000414  0100               	movlb	0	; () banked
  6385  000416  6F7D               	movwf	___ftdiv@f2& (0+255),b
  6386  000418  0E7F               	movlw	127
  6387  00041A  0100               	movlb	0	; () banked
  6388  00041C  6F7E               	movwf	(___ftdiv@f2+1)& (0+255),b
  6389  00041E  0E44               	movlw	68
  6390  000420  0100               	movlb	0	; () banked
  6391  000422  6F7F               	movwf	(___ftdiv@f2+2)& (0+255),b
  6392  000424  ECC3  F00F         	call	___ftdiv	;wreg free
  6393  000428  C07A  F0CE         	movff	?___ftdiv,_wind_dir_voltage
  6394  00042C  C07B  F0CF         	movff	?___ftdiv+1,_wind_dir_voltage+1
  6395  000430  C07C  F0D0         	movff	?___ftdiv+2,_wind_dir_voltage+2
  6396                           
  6397                           ;weather-v2.c: 1576: if(wind_dir_voltage>=0.2)
  6398  000434  C0CE  F060         	movff	_wind_dir_voltage,___ftge@ff1
  6399  000438  C0CF  F061         	movff	_wind_dir_voltage+1,___ftge@ff1+1
  6400  00043C  C0D0  F062         	movff	_wind_dir_voltage+2,___ftge@ff1+2
  6401  000440  0ECD               	movlw	205
  6402  000442  0100               	movlb	0	; () banked
  6403  000444  6F63               	movwf	___ftge@ff2& (0+255),b
  6404  000446  0E4C               	movlw	76
  6405  000448  0100               	movlb	0	; () banked
  6406  00044A  6F64               	movwf	(___ftge@ff2+1)& (0+255),b
  6407  00044C  0E3E               	movlw	62
  6408  00044E  0100               	movlb	0	; () banked
  6409  000450  6F65               	movwf	(___ftge@ff2+2)& (0+255),b
  6410  000452  EC78  F013         	call	___ftge	;wreg free
  6411  000456  0100               	movlb	0	; () banked
  6412  000458  A0D8               	btfss	status,0,c
  6413  00045A  D00D               	goto	i2l6454
  6414                           
  6415                           ; BSR set to: 0
  6416                           ;weather-v2.c: 1577: wind_dir_buffer[inte_sample_counter] = 90 ;
  6417  00045C  0100               	movlb	0	; () banked
  6418  00045E  51DD               	movf	_inte_sample_counter& (0+255),w,b
  6419  000460  0D02               	mullw	2
  6420  000462  0E7D               	movlw	low _wind_dir_buffer
  6421  000464  24F3               	addwf	prodl,w,c
  6422  000466  6ED9               	movwf	fsr2l,c
  6423  000468  0E01               	movlw	high _wind_dir_buffer
  6424  00046A  20F4               	addwfc	prodh,w,c
  6425  00046C  6EDA               	movwf	fsr2h,c
  6426  00046E  0E5A               	movlw	90
  6427  000470  6EDE               	movwf	postinc2,c
  6428  000472  0E00               	movlw	0
  6429  000474  6EDD               	movwf	postdec2,c
  6430  000476                     i2l6454:
  6431                           
  6432                           ; BSR set to: 0
  6433                           ;weather-v2.c: 1578: if(wind_dir_voltage>=0.5)
  6434  000476  C0CE  F060         	movff	_wind_dir_voltage,___ftge@ff1
  6435  00047A  C0CF  F061         	movff	_wind_dir_voltage+1,___ftge@ff1+1
  6436  00047E  C0D0  F062         	movff	_wind_dir_voltage+2,___ftge@ff1+2
  6437  000482  0E00               	movlw	0
  6438  000484  0100               	movlb	0	; () banked
  6439  000486  6F63               	movwf	___ftge@ff2& (0+255),b
  6440  000488  0E00               	movlw	0
  6441  00048A  0100               	movlb	0	; () banked
  6442  00048C  6F64               	movwf	(___ftge@ff2+1)& (0+255),b
  6443  00048E  0E3F               	movlw	63
  6444  000490  0100               	movlb	0	; () banked
  6445  000492  6F65               	movwf	(___ftge@ff2+2)& (0+255),b
  6446  000494  EC78  F013         	call	___ftge	;wreg free
  6447  000498  0100               	movlb	0	; () banked
  6448  00049A  A0D8               	btfss	status,0,c
  6449  00049C  D00D               	goto	i2l6458
  6450                           
  6451                           ; BSR set to: 0
  6452                           ;weather-v2.c: 1579: wind_dir_buffer[inte_sample_counter] = 135 ;
  6453  00049E  0100               	movlb	0	; () banked
  6454  0004A0  51DD               	movf	_inte_sample_counter& (0+255),w,b
  6455  0004A2  0D02               	mullw	2
  6456  0004A4  0E7D               	movlw	low _wind_dir_buffer
  6457  0004A6  24F3               	addwf	prodl,w,c
  6458  0004A8  6ED9               	movwf	fsr2l,c
  6459  0004AA  0E01               	movlw	high _wind_dir_buffer
  6460  0004AC  20F4               	addwfc	prodh,w,c
  6461  0004AE  6EDA               	movwf	fsr2h,c
  6462  0004B0  0E87               	movlw	135
  6463  0004B2  6EDE               	movwf	postinc2,c
  6464  0004B4  0E00               	movlw	0
  6465  0004B6  6EDD               	movwf	postdec2,c
  6466  0004B8                     i2l6458:
  6467                           
  6468                           ; BSR set to: 0
  6469                           ;weather-v2.c: 1580: if(wind_dir_voltage>=.9)
  6470  0004B8  C0CE  F060         	movff	_wind_dir_voltage,___ftge@ff1
  6471  0004BC  C0CF  F061         	movff	_wind_dir_voltage+1,___ftge@ff1+1
  6472  0004C0  C0D0  F062         	movff	_wind_dir_voltage+2,___ftge@ff1+2
  6473  0004C4  0E66               	movlw	102
  6474  0004C6  0100               	movlb	0	; () banked
  6475  0004C8  6F63               	movwf	___ftge@ff2& (0+255),b
  6476  0004CA  0E66               	movlw	102
  6477  0004CC  0100               	movlb	0	; () banked
  6478  0004CE  6F64               	movwf	(___ftge@ff2+1)& (0+255),b
  6479  0004D0  0E3F               	movlw	63
  6480  0004D2  0100               	movlb	0	; () banked
  6481  0004D4  6F65               	movwf	(___ftge@ff2+2)& (0+255),b
  6482  0004D6  EC78  F013         	call	___ftge	;wreg free
  6483  0004DA  0100               	movlb	0	; () banked
  6484  0004DC  A0D8               	btfss	status,0,c
  6485  0004DE  D00D               	goto	i2l6462
  6486                           
  6487                           ; BSR set to: 0
  6488                           ;weather-v2.c: 1581: wind_dir_buffer[inte_sample_counter] = 180 ;
  6489  0004E0  0100               	movlb	0	; () banked
  6490  0004E2  51DD               	movf	_inte_sample_counter& (0+255),w,b
  6491  0004E4  0D02               	mullw	2
  6492  0004E6  0E7D               	movlw	low _wind_dir_buffer
  6493  0004E8  24F3               	addwf	prodl,w,c
  6494  0004EA  6ED9               	movwf	fsr2l,c
  6495  0004EC  0E01               	movlw	high _wind_dir_buffer
  6496  0004EE  20F4               	addwfc	prodh,w,c
  6497  0004F0  6EDA               	movwf	fsr2h,c
  6498  0004F2  0EB4               	movlw	180
  6499  0004F4  6EDE               	movwf	postinc2,c
  6500  0004F6  0E00               	movlw	0
  6501  0004F8  6EDD               	movwf	postdec2,c
  6502  0004FA                     i2l6462:
  6503                           
  6504                           ; BSR set to: 0
  6505                           ;weather-v2.c: 1582: if(wind_dir_voltage>=1.4)
  6506  0004FA  C0CE  F060         	movff	_wind_dir_voltage,___ftge@ff1
  6507  0004FE  C0CF  F061         	movff	_wind_dir_voltage+1,___ftge@ff1+1
  6508  000502  C0D0  F062         	movff	_wind_dir_voltage+2,___ftge@ff1+2
  6509  000506  0E33               	movlw	51
  6510  000508  0100               	movlb	0	; () banked
  6511  00050A  6F63               	movwf	___ftge@ff2& (0+255),b
  6512  00050C  0EB3               	movlw	179
  6513  00050E  0100               	movlb	0	; () banked
  6514  000510  6F64               	movwf	(___ftge@ff2+1)& (0+255),b
  6515  000512  0E3F               	movlw	63
  6516  000514  0100               	movlb	0	; () banked
  6517  000516  6F65               	movwf	(___ftge@ff2+2)& (0+255),b
  6518  000518  EC78  F013         	call	___ftge	;wreg free
  6519  00051C  0100               	movlb	0	; () banked
  6520  00051E  A0D8               	btfss	status,0,c
  6521  000520  D00D               	goto	i2l6466
  6522                           
  6523                           ; BSR set to: 0
  6524                           ;weather-v2.c: 1583: wind_dir_buffer[inte_sample_counter] = 45 ;
  6525  000522  0100               	movlb	0	; () banked
  6526  000524  51DD               	movf	_inte_sample_counter& (0+255),w,b
  6527  000526  0D02               	mullw	2
  6528  000528  0E7D               	movlw	low _wind_dir_buffer
  6529  00052A  24F3               	addwf	prodl,w,c
  6530  00052C  6ED9               	movwf	fsr2l,c
  6531  00052E  0E01               	movlw	high _wind_dir_buffer
  6532  000530  20F4               	addwfc	prodh,w,c
  6533  000532  6EDA               	movwf	fsr2h,c
  6534  000534  0E2D               	movlw	45
  6535  000536  6EDE               	movwf	postinc2,c
  6536  000538  0E00               	movlw	0
  6537  00053A  6EDD               	movwf	postdec2,c
  6538  00053C                     i2l6466:
  6539                           
  6540                           ; BSR set to: 0
  6541                           ;weather-v2.c: 1584: if(wind_dir_voltage>=2)
  6542  00053C  C0CE  F060         	movff	_wind_dir_voltage,___ftge@ff1
  6543  000540  C0CF  F061         	movff	_wind_dir_voltage+1,___ftge@ff1+1
  6544  000544  C0D0  F062         	movff	_wind_dir_voltage+2,___ftge@ff1+2
  6545  000548  0E00               	movlw	0
  6546  00054A  0100               	movlb	0	; () banked
  6547  00054C  6F63               	movwf	___ftge@ff2& (0+255),b
  6548  00054E  0E00               	movlw	0
  6549  000550  0100               	movlb	0	; () banked
  6550  000552  6F64               	movwf	(___ftge@ff2+1)& (0+255),b
  6551  000554  0E40               	movlw	64
  6552  000556  0100               	movlb	0	; () banked
  6553  000558  6F65               	movwf	(___ftge@ff2+2)& (0+255),b
  6554  00055A  EC78  F013         	call	___ftge	;wreg free
  6555  00055E  0100               	movlb	0	; () banked
  6556  000560  A0D8               	btfss	status,0,c
  6557  000562  D00D               	goto	i2l6470
  6558                           
  6559                           ; BSR set to: 0
  6560                           ;weather-v2.c: 1585: wind_dir_buffer[inte_sample_counter] = 225 ;
  6561  000564  0100               	movlb	0	; () banked
  6562  000566  51DD               	movf	_inte_sample_counter& (0+255),w,b
  6563  000568  0D02               	mullw	2
  6564  00056A  0E7D               	movlw	low _wind_dir_buffer
  6565  00056C  24F3               	addwf	prodl,w,c
  6566  00056E  6ED9               	movwf	fsr2l,c
  6567  000570  0E01               	movlw	high _wind_dir_buffer
  6568  000572  20F4               	addwfc	prodh,w,c
  6569  000574  6EDA               	movwf	fsr2h,c
  6570  000576  0EE1               	movlw	225
  6571  000578  6EDE               	movwf	postinc2,c
  6572  00057A  0E00               	movlw	0
  6573  00057C  6EDD               	movwf	postdec2,c
  6574  00057E                     i2l6470:
  6575                           
  6576                           ; BSR set to: 0
  6577                           ;weather-v2.c: 1586: if(wind_dir_voltage>=2.5)
  6578  00057E  C0CE  F060         	movff	_wind_dir_voltage,___ftge@ff1
  6579  000582  C0CF  F061         	movff	_wind_dir_voltage+1,___ftge@ff1+1
  6580  000586  C0D0  F062         	movff	_wind_dir_voltage+2,___ftge@ff1+2
  6581  00058A  0E00               	movlw	0
  6582  00058C  0100               	movlb	0	; () banked
  6583  00058E  6F63               	movwf	___ftge@ff2& (0+255),b
  6584  000590  0E20               	movlw	32
  6585  000592  0100               	movlb	0	; () banked
  6586  000594  6F64               	movwf	(___ftge@ff2+1)& (0+255),b
  6587  000596  0E40               	movlw	64
  6588  000598  0100               	movlb	0	; () banked
  6589  00059A  6F65               	movwf	(___ftge@ff2+2)& (0+255),b
  6590  00059C  EC78  F013         	call	___ftge	;wreg free
  6591  0005A0  0100               	movlb	0	; () banked
  6592  0005A2  A0D8               	btfss	status,0,c
  6593  0005A4  D00D               	goto	i2l6474
  6594                           
  6595                           ; BSR set to: 0
  6596                           ;weather-v2.c: 1587: wind_dir_buffer[inte_sample_counter] = 0 ;
  6597  0005A6  0100               	movlb	0	; () banked
  6598  0005A8  51DD               	movf	_inte_sample_counter& (0+255),w,b
  6599  0005AA  0D02               	mullw	2
  6600  0005AC  0E7D               	movlw	low _wind_dir_buffer
  6601  0005AE  24F3               	addwf	prodl,w,c
  6602  0005B0  6ED9               	movwf	fsr2l,c
  6603  0005B2  0E01               	movlw	high _wind_dir_buffer
  6604  0005B4  20F4               	addwfc	prodh,w,c
  6605  0005B6  6EDA               	movwf	fsr2h,c
  6606  0005B8  0E00               	movlw	0
  6607  0005BA  6EDE               	movwf	postinc2,c
  6608  0005BC  0E00               	movlw	0
  6609  0005BE  6EDD               	movwf	postdec2,c
  6610  0005C0                     i2l6474:
  6611                           
  6612                           ; BSR set to: 0
  6613                           ;weather-v2.c: 1588: if(wind_dir_voltage>=2.8)
  6614  0005C0  C0CE  F060         	movff	_wind_dir_voltage,___ftge@ff1
  6615  0005C4  C0CF  F061         	movff	_wind_dir_voltage+1,___ftge@ff1+1
  6616  0005C8  C0D0  F062         	movff	_wind_dir_voltage+2,___ftge@ff1+2
  6617  0005CC  0E33               	movlw	51
  6618  0005CE  0100               	movlb	0	; () banked
  6619  0005D0  6F63               	movwf	___ftge@ff2& (0+255),b
  6620  0005D2  0E33               	movlw	51
  6621  0005D4  0100               	movlb	0	; () banked
  6622  0005D6  6F64               	movwf	(___ftge@ff2+1)& (0+255),b
  6623  0005D8  0E40               	movlw	64
  6624  0005DA  0100               	movlb	0	; () banked
  6625  0005DC  6F65               	movwf	(___ftge@ff2+2)& (0+255),b
  6626  0005DE  EC78  F013         	call	___ftge	;wreg free
  6627  0005E2  0100               	movlb	0	; () banked
  6628  0005E4  A0D8               	btfss	status,0,c
  6629  0005E6  D00D               	goto	i2l6478
  6630                           
  6631                           ; BSR set to: 0
  6632                           ;weather-v2.c: 1589: wind_dir_buffer[inte_sample_counter] = 315 ;
  6633  0005E8  0100               	movlb	0	; () banked
  6634  0005EA  51DD               	movf	_inte_sample_counter& (0+255),w,b
  6635  0005EC  0D02               	mullw	2
  6636  0005EE  0E7D               	movlw	low _wind_dir_buffer
  6637  0005F0  24F3               	addwf	prodl,w,c
  6638  0005F2  6ED9               	movwf	fsr2l,c
  6639  0005F4  0E01               	movlw	high _wind_dir_buffer
  6640  0005F6  20F4               	addwfc	prodh,w,c
  6641  0005F8  6EDA               	movwf	fsr2h,c
  6642  0005FA  0E3B               	movlw	59
  6643  0005FC  6EDE               	movwf	postinc2,c
  6644  0005FE  0E01               	movlw	1
  6645  000600  6EDD               	movwf	postdec2,c
  6646  000602                     i2l6478:
  6647                           
  6648                           ; BSR set to: 0
  6649                           ;weather-v2.c: 1590: if(wind_dir_voltage>=3.0)
  6650  000602  C0CE  F060         	movff	_wind_dir_voltage,___ftge@ff1
  6651  000606  C0CF  F061         	movff	_wind_dir_voltage+1,___ftge@ff1+1
  6652  00060A  C0D0  F062         	movff	_wind_dir_voltage+2,___ftge@ff1+2
  6653  00060E  0E00               	movlw	0
  6654  000610  0100               	movlb	0	; () banked
  6655  000612  6F63               	movwf	___ftge@ff2& (0+255),b
  6656  000614  0E40               	movlw	64
  6657  000616  0100               	movlb	0	; () banked
  6658  000618  6F64               	movwf	(___ftge@ff2+1)& (0+255),b
  6659  00061A  0E40               	movlw	64
  6660  00061C  0100               	movlb	0	; () banked
  6661  00061E  6F65               	movwf	(___ftge@ff2+2)& (0+255),b
  6662  000620  EC78  F013         	call	___ftge	;wreg free
  6663  000624  0100               	movlb	0	; () banked
  6664  000626  A0D8               	btfss	status,0,c
  6665  000628  D00D               	goto	i2l6482
  6666                           
  6667                           ; BSR set to: 0
  6668                           ;weather-v2.c: 1591: wind_dir_buffer[inte_sample_counter] = 270 ;
  6669  00062A  0100               	movlb	0	; () banked
  6670  00062C  51DD               	movf	_inte_sample_counter& (0+255),w,b
  6671  00062E  0D02               	mullw	2
  6672  000630  0E7D               	movlw	low _wind_dir_buffer
  6673  000632  24F3               	addwf	prodl,w,c
  6674  000634  6ED9               	movwf	fsr2l,c
  6675  000636  0E01               	movlw	high _wind_dir_buffer
  6676  000638  20F4               	addwfc	prodh,w,c
  6677  00063A  6EDA               	movwf	fsr2h,c
  6678  00063C  0E0E               	movlw	14
  6679  00063E  6EDE               	movwf	postinc2,c
  6680  000640  0E01               	movlw	1
  6681  000642  6EDD               	movwf	postdec2,c
  6682  000644                     i2l6482:
  6683                           
  6684                           ; BSR set to: 0
  6685                           ;weather-v2.c: 1592: if(wind_dir_voltage>=3.25||wind_dir_voltage<0.2)
  6686  000644  C0CE  F060         	movff	_wind_dir_voltage,___ftge@ff1
  6687  000648  C0CF  F061         	movff	_wind_dir_voltage+1,___ftge@ff1+1
  6688  00064C  C0D0  F062         	movff	_wind_dir_voltage+2,___ftge@ff1+2
  6689  000650  0E00               	movlw	0
  6690  000652  0100               	movlb	0	; () banked
  6691  000654  6F63               	movwf	___ftge@ff2& (0+255),b
  6692  000656  0E50               	movlw	80
  6693  000658  0100               	movlb	0	; () banked
  6694  00065A  6F64               	movwf	(___ftge@ff2+1)& (0+255),b
  6695  00065C  0E40               	movlw	64
  6696  00065E  0100               	movlb	0	; () banked
  6697  000660  6F65               	movwf	(___ftge@ff2+2)& (0+255),b
  6698  000662  EC78  F013         	call	___ftge	;wreg free
  6699  000666  0100               	movlb	0	; () banked
  6700  000668  B0D8               	btfsc	status,0,c
  6701  00066A  D014               	goto	i2l6486
  6702                           
  6703                           ; BSR set to: 0
  6704  00066C  C0CE  F060         	movff	_wind_dir_voltage,___ftge@ff1
  6705  000670  C0CF  F061         	movff	_wind_dir_voltage+1,___ftge@ff1+1
  6706  000674  C0D0  F062         	movff	_wind_dir_voltage+2,___ftge@ff1+2
  6707  000678  0ECD               	movlw	205
  6708  00067A  0100               	movlb	0	; () banked
  6709  00067C  6F63               	movwf	___ftge@ff2& (0+255),b
  6710  00067E  0E4C               	movlw	76
  6711  000680  0100               	movlb	0	; () banked
  6712  000682  6F64               	movwf	(___ftge@ff2+1)& (0+255),b
  6713  000684  0E3E               	movlw	62
  6714  000686  0100               	movlb	0	; () banked
  6715  000688  6F65               	movwf	(___ftge@ff2+2)& (0+255),b
  6716  00068A  EC78  F013         	call	___ftge	;wreg free
  6717  00068E  0100               	movlb	0	; () banked
  6718  000690  B0D8               	btfsc	status,0,c
  6719  000692  D03E               	goto	i2l6492
  6720  000694                     i2l6486:
  6721                           
  6722                           ; BSR set to: 0
  6723                           ;weather-v2.c: 1593: {
  6724                           ;weather-v2.c: 1594: if(inte_sample_counter>0)
  6725  000694  0100               	movlb	0	; () banked
  6726  000696  51DD               	movf	_inte_sample_counter& (0+255),w,b
  6727  000698  B4D8               	btfsc	status,2,c
  6728  00069A  D02D               	goto	i2l6490
  6729                           
  6730                           ; BSR set to: 0
  6731                           ;weather-v2.c: 1595: wind_dir_buffer[inte_sample_counter] = wind_dir_buffer[inte_sample_
      +                          counter-1] ;
  6732  00069C  0EFE               	movlw	254
  6733  00069E  0100               	movlb	0	; () banked
  6734  0006A0  6FB2               	movwf	??_high_isr& (0+255),b
  6735  0006A2  0EFF               	movlw	255
  6736  0006A4  0100               	movlb	0	; () banked
  6737  0006A6  6FB3               	movwf	(??_high_isr+1)& (0+255),b
  6738  0006A8  0100               	movlb	0	; () banked
  6739  0006AA  51DD               	movf	_inte_sample_counter& (0+255),w,b
  6740  0006AC  0100               	movlb	0	; () banked
  6741  0006AE  6FB4               	movwf	(??_high_isr+2)& (0+255),b
  6742  0006B0  6BB5               	clrf	(??_high_isr+3)& (0+255),b
  6743  0006B2  90D8               	bcf	status,0,c
  6744  0006B4  0100               	movlb	0	; () banked
  6745  0006B6  37B4               	rlcf	(??_high_isr+2)& (0+255),f,b
  6746  0006B8  37B5               	rlcf	(??_high_isr+3)& (0+255),f,b
  6747  0006BA  0100               	movlb	0	; () banked
  6748  0006BC  51B2               	movf	??_high_isr& (0+255),w,b
  6749  0006BE  0100               	movlb	0	; () banked
  6750  0006C0  27B4               	addwf	(??_high_isr+2)& (0+255),f,b
  6751  0006C2  0100               	movlb	0	; () banked
  6752  0006C4  51B3               	movf	(??_high_isr+1)& (0+255),w,b
  6753  0006C6  0100               	movlb	0	; () banked
  6754  0006C8  23B5               	addwfc	(??_high_isr+3)& (0+255),f,b
  6755  0006CA  0E7D               	movlw	low _wind_dir_buffer
  6756  0006CC  0100               	movlb	0	; () banked
  6757  0006CE  25B4               	addwf	(??_high_isr+2)& (0+255),w,b
  6758  0006D0  6ED9               	movwf	fsr2l,c
  6759  0006D2  0E01               	movlw	high _wind_dir_buffer
  6760  0006D4  0100               	movlb	0	; () banked
  6761  0006D6  21B5               	addwfc	(??_high_isr+3)& (0+255),w,b
  6762  0006D8  6EDA               	movwf	fsr2h,c
  6763  0006DA  0100               	movlb	0	; () banked
  6764  0006DC  51DD               	movf	_inte_sample_counter& (0+255),w,b
  6765  0006DE  0D02               	mullw	2
  6766  0006E0  0E7D               	movlw	low _wind_dir_buffer
  6767  0006E2  24F3               	addwf	prodl,w,c
  6768  0006E4  6EE1               	movwf	fsr1l,c
  6769  0006E6  0E01               	movlw	high _wind_dir_buffer
  6770  0006E8  20F4               	addwfc	prodh,w,c
  6771  0006EA  6EE2               	movwf	fsr1h,c
  6772  0006EC  CFDE FFE6          	movff	postinc2,postinc1
  6773  0006F0  CFDD FFE5          	movff	postdec2,postdec1
  6774  0006F4  D00D               	goto	i2l6492
  6775  0006F6                     i2l6490:
  6776                           
  6777                           ; BSR set to: 0
  6778                           ;weather-v2.c: 1596: else
  6779                           ;weather-v2.c: 1597: wind_dir_buffer[inte_sample_counter] = wind_dir_buffer[9] ;
  6780  0006F6  0100               	movlb	0	; () banked
  6781  0006F8  51DD               	movf	_inte_sample_counter& (0+255),w,b
  6782  0006FA  0D02               	mullw	2
  6783  0006FC  0E7D               	movlw	low _wind_dir_buffer
  6784  0006FE  24F3               	addwf	prodl,w,c
  6785  000700  6ED9               	movwf	fsr2l,c
  6786  000702  0E01               	movlw	high _wind_dir_buffer
  6787  000704  20F4               	addwfc	prodh,w,c
  6788  000706  6EDA               	movwf	fsr2h,c
  6789  000708  C18F  FFDE         	movff	_wind_dir_buffer+18,postinc2
  6790  00070C  C190  FFDD         	movff	_wind_dir_buffer+19,postdec2
  6791  000710                     i2l6492:
  6792                           
  6793                           ; BSR set to: 0
  6794                           ;weather-v2.c: 1598: }
  6795                           ;weather-v2.c: 1604: dsth_error=read_dsth01();
  6796  000710  EC29  F012         	call	_read_dsth01	;wreg free
  6797  000714  0100               	movlb	0	; () banked
  6798  000716  6FDC               	movwf	_dsth_error& (0+255),b
  6799  000718  0004               	clrwdt		;# 
  6800                           
  6801                           ;weather-v2.c: 1606: PORTCbits.RC0 = 0;
  6802  00071A  9082               	bcf	3970,0,c	;volatile
  6803                           
  6804                           ;weather-v2.c: 1608: temp_word = tempH;
  6805  00071C  C03C  F0D5         	movff	_tempH,_temp_word
  6806  000720  0100               	movlb	0	; () banked
  6807  000722  6BD6               	clrf	(_temp_word+1)& (0+255),b
  6808                           
  6809                           ; BSR set to: 0
  6810                           ;weather-v2.c: 1609: temp_word <<= 8 ;
  6811  000724  0100               	movlb	0	; () banked
  6812  000726  51D5               	movf	_temp_word& (0+255),w,b
  6813  000728  6FD6               	movwf	(_temp_word+1)& (0+255),b
  6814  00072A  6BD5               	clrf	_temp_word& (0+255),b
  6815                           
  6816                           ; BSR set to: 0
  6817                           ;weather-v2.c: 1610: temp_word += tempL ;
  6818  00072C  503D               	movf	_tempL,w,c
  6819  00072E  0100               	movlb	0	; () banked
  6820  000730  27D5               	addwf	_temp_word& (0+255),f,b
  6821  000732  0E00               	movlw	0
  6822  000734  23D6               	addwfc	(_temp_word+1)& (0+255),f,b
  6823                           
  6824                           ; BSR set to: 0
  6825                           ;weather-v2.c: 1611: temp_word >>= 2;
  6826  000736  0100               	movlb	0	; () banked
  6827  000738  90D8               	bcf	status,0,c
  6828  00073A  33D6               	rrcf	(_temp_word+1)& (0+255),f,b
  6829  00073C  33D5               	rrcf	_temp_word& (0+255),f,b
  6830  00073E  0100               	movlb	0	; () banked
  6831  000740  90D8               	bcf	status,0,c
  6832  000742  33D6               	rrcf	(_temp_word+1)& (0+255),f,b
  6833  000744  33D5               	rrcf	_temp_word& (0+255),f,b
  6834                           
  6835                           ; BSR set to: 0
  6836                           ;weather-v2.c: 1612: temp_buffer[inte_sample_counter] = temp_word/32 - 50 ;
  6837  000746  C0D5  F0B2         	movff	_temp_word,??_high_isr
  6838  00074A  C0D6  F0B3         	movff	_temp_word+1,??_high_isr+1
  6839  00074E  0E05               	movlw	5
  6840  000750  0100               	movlb	0	; () banked
  6841  000752  6FB4               	movwf	(??_high_isr+2)& (0+255),b
  6842  000754                     i2u776_45:
  6843  000754  0100               	movlb	0	; () banked
  6844  000756  90D8               	bcf	status,0,c
  6845  000758  33B3               	rrcf	(??_high_isr+1)& (0+255),f,b
  6846  00075A  33B2               	rrcf	??_high_isr& (0+255),f,b
  6847  00075C  0100               	movlb	0	; () banked
  6848  00075E  2FB4               	decfsz	(??_high_isr+2)& (0+255),f,b
  6849  000760  D7F9               	goto	i2u776_45
  6850  000762  0ECE               	movlw	206
  6851  000764  0100               	movlb	0	; () banked
  6852  000766  25B2               	addwf	??_high_isr& (0+255),w,b
  6853  000768  0100               	movlb	0	; () banked
  6854  00076A  6F68               	movwf	___lwtoft@c& (0+255),b
  6855  00076C  0EFF               	movlw	255
  6856  00076E  0100               	movlb	0	; () banked
  6857  000770  21B3               	addwfc	(??_high_isr+1)& (0+255),w,b
  6858  000772  0100               	movlb	0	; () banked
  6859  000774  6F69               	movwf	(___lwtoft@c+1)& (0+255),b
  6860  000776  EC01  F018         	call	___lwtoft	;wreg free
  6861  00077A  0100               	movlb	0	; () banked
  6862  00077C  51DD               	movf	_inte_sample_counter& (0+255),w,b
  6863  00077E  0D03               	mullw	3
  6864  000780  0E00               	movlw	low _temp_buffer
  6865  000782  24F3               	addwf	prodl,w,c
  6866  000784  6ED9               	movwf	fsr2l,c
  6867  000786  0E01               	movlw	high _temp_buffer
  6868  000788  20F4               	addwfc	prodh,w,c
  6869  00078A  6EDA               	movwf	fsr2h,c
  6870  00078C  C068  FFDE         	movff	?___lwtoft,postinc2
  6871  000790  C069  FFDE         	movff	?___lwtoft+1,postinc2
  6872  000794  C06A  FFDE         	movff	?___lwtoft+2,postinc2
  6873                           
  6874                           ; BSR set to: 0
  6875                           ;weather-v2.c: 1614: hum_word = humH;
  6876  000798  C03A  F0D3         	movff	_humH,_hum_word
  6877  00079C  0100               	movlb	0	; () banked
  6878  00079E  6BD4               	clrf	(_hum_word+1)& (0+255),b
  6879                           
  6880                           ; BSR set to: 0
  6881                           ;weather-v2.c: 1615: hum_word <<= 8 ;
  6882  0007A0  0100               	movlb	0	; () banked
  6883  0007A2  51D3               	movf	_hum_word& (0+255),w,b
  6884  0007A4  6FD4               	movwf	(_hum_word+1)& (0+255),b
  6885  0007A6  6BD3               	clrf	_hum_word& (0+255),b
  6886                           
  6887                           ; BSR set to: 0
  6888                           ;weather-v2.c: 1616: hum_word += humL ;
  6889  0007A8  503B               	movf	_humL,w,c
  6890  0007AA  0100               	movlb	0	; () banked
  6891  0007AC  27D3               	addwf	_hum_word& (0+255),f,b
  6892  0007AE  0E00               	movlw	0
  6893  0007B0  23D4               	addwfc	(_hum_word+1)& (0+255),f,b
  6894                           
  6895                           ; BSR set to: 0
  6896                           ;weather-v2.c: 1617: hum_word >>= 4;
  6897  0007B2  0100               	movlb	0	; () banked
  6898  0007B4  3BD3               	swapf	_hum_word& (0+255),f,b
  6899  0007B6  3BD4               	swapf	(_hum_word+1)& (0+255),f,b
  6900  0007B8  0E0F               	movlw	15
  6901  0007BA  17D3               	andwf	_hum_word& (0+255),f,b
  6902  0007BC  51D4               	movf	(_hum_word+1)& (0+255),w,b
  6903  0007BE  0BF0               	andlw	240
  6904  0007C0  13D3               	iorwf	_hum_word& (0+255),f,b
  6905  0007C2  0E0F               	movlw	15
  6906  0007C4  17D4               	andwf	(_hum_word+1)& (0+255),f,b
  6907                           
  6908                           ; BSR set to: 0
  6909                           ;weather-v2.c: 1618: hum_buffer[inte_sample_counter] = (int)(hum_word/16.0 - 24) ;
  6910  0007C6  0E00               	movlw	0
  6911  0007C8  0100               	movlb	0	; () banked
  6912  0007CA  6F8C               	movwf	___ftadd@f2& (0+255),b
  6913  0007CC  0EC0               	movlw	192
  6914  0007CE  0100               	movlb	0	; () banked
  6915  0007D0  6F8D               	movwf	(___ftadd@f2+1)& (0+255),b
  6916  0007D2  0EC1               	movlw	193
  6917  0007D4  0100               	movlb	0	; () banked
  6918  0007D6  6F8E               	movwf	(___ftadd@f2+2)& (0+255),b
  6919  0007D8  0E00               	movlw	0
  6920  0007DA  0100               	movlb	0	; () banked
  6921  0007DC  6F7D               	movwf	___ftdiv@f2& (0+255),b
  6922  0007DE  0E80               	movlw	128
  6923  0007E0  0100               	movlb	0	; () banked
  6924  0007E2  6F7E               	movwf	(___ftdiv@f2+1)& (0+255),b
  6925  0007E4  0E41               	movlw	65
  6926  0007E6  0100               	movlb	0	; () banked
  6927  0007E8  6F7F               	movwf	(___ftdiv@f2+2)& (0+255),b
  6928  0007EA  C0D3  F068         	movff	_hum_word,___lwtoft@c
  6929  0007EE  C0D4  F069         	movff	_hum_word+1,___lwtoft@c+1
  6930  0007F2  EC01  F018         	call	___lwtoft	;wreg free
  6931  0007F6  C068  F07A         	movff	?___lwtoft,___ftdiv@f1
  6932  0007FA  C069  F07B         	movff	?___lwtoft+1,___ftdiv@f1+1
  6933  0007FE  C06A  F07C         	movff	?___lwtoft+2,___ftdiv@f1+2
  6934  000802  ECC3  F00F         	call	___ftdiv	;wreg free
  6935  000806  C07A  F089         	movff	?___ftdiv,___ftadd@f1
  6936  00080A  C07B  F08A         	movff	?___ftdiv+1,___ftadd@f1+1
  6937  00080E  C07C  F08B         	movff	?___ftdiv+2,___ftadd@f1+2
  6938  000812  ECAC  F00A         	call	___ftadd	;wreg free
  6939  000816  C089  F095         	movff	?___ftadd,___fttol@f1
  6940  00081A  C08A  F096         	movff	?___ftadd+1,___fttol@f1+1
  6941  00081E  C08B  F097         	movff	?___ftadd+2,___fttol@f1+2
  6942  000822  EC69  F010         	call	___fttol	;wreg free
  6943  000826  0100               	movlb	0	; () banked
  6944  000828  51DD               	movf	_inte_sample_counter& (0+255),w,b
  6945  00082A  0D02               	mullw	2
  6946  00082C  0E4B               	movlw	low _hum_buffer
  6947  00082E  24F3               	addwf	prodl,w,c
  6948  000830  6ED9               	movwf	fsr2l,c
  6949  000832  0E01               	movlw	high _hum_buffer
  6950  000834  20F4               	addwfc	prodh,w,c
  6951  000836  6EDA               	movwf	fsr2h,c
  6952  000838  0100               	movlb	0	; () banked
  6953  00083A  C095  FFDE         	movff	?___fttol,postinc2
  6954  00083E  0100               	movlb	0	; () banked
  6955  000840  C096  FFDD         	movff	?___fttol+1,postdec2
  6956                           
  6957                           ; BSR set to: 0
  6958                           ;weather-v2.c: 1620: wind_dir_instant= wind_dir_buffer[inte_sample_counter];
  6959  000844  0100               	movlb	0	; () banked
  6960  000846  51DD               	movf	_inte_sample_counter& (0+255),w,b
  6961  000848  0D02               	mullw	2
  6962  00084A  0E7D               	movlw	low _wind_dir_buffer
  6963  00084C  24F3               	addwf	prodl,w,c
  6964  00084E  6ED9               	movwf	fsr2l,c
  6965  000850  0E01               	movlw	high _wind_dir_buffer
  6966  000852  20F4               	addwfc	prodh,w,c
  6967  000854  6EDA               	movwf	fsr2h,c
  6968  000856  CFDE F0D9          	movff	postinc2,_wind_dir_instant
  6969  00085A  CFDD F0DA          	movff	postdec2,_wind_dir_instant+1
  6970                           
  6971                           ; BSR set to: 0
  6972                           ;weather-v2.c: 1621: temp_buffer_instant = temp_buffer[inte_sample_counter];
  6973  00085E  0100               	movlb	0	; () banked
  6974  000860  51DD               	movf	_inte_sample_counter& (0+255),w,b
  6975  000862  0D03               	mullw	3
  6976  000864  0E00               	movlw	low _temp_buffer
  6977  000866  24F3               	addwf	prodl,w,c
  6978  000868  6ED9               	movwf	fsr2l,c
  6979  00086A  0E01               	movlw	high _temp_buffer
  6980  00086C  20F4               	addwfc	prodh,w,c
  6981  00086E  6EDA               	movwf	fsr2h,c
  6982  000870  CFDE F0CB          	movff	postinc2,_temp_buffer_instant
  6983  000874  CFDE F0CC          	movff	postinc2,_temp_buffer_instant+1
  6984  000878  CFDD F0CD          	movff	postdec2,_temp_buffer_instant+2
  6985                           
  6986                           ; BSR set to: 0
  6987                           ;weather-v2.c: 1622: hum_buffer_instant = hum_buffer[inte_sample_counter] ;
  6988  00087C  0100               	movlb	0	; () banked
  6989  00087E  51DD               	movf	_inte_sample_counter& (0+255),w,b
  6990  000880  0D02               	mullw	2
  6991  000882  0E4B               	movlw	low _hum_buffer
  6992  000884  24F3               	addwf	prodl,w,c
  6993  000886  6ED9               	movwf	fsr2l,c
  6994  000888  0E01               	movlw	high _hum_buffer
  6995  00088A  20F4               	addwfc	prodh,w,c
  6996  00088C  6EDA               	movwf	fsr2h,c
  6997  00088E  CFDE F0D1          	movff	postinc2,_hum_buffer_instant
  6998  000892  CFDD F0D2          	movff	postdec2,_hum_buffer_instant+1
  6999                           
  7000                           ; BSR set to: 0
  7001                           ;weather-v2.c: 1624: inte_sample_counter++;
  7002  000896  0100               	movlb	0	; () banked
  7003  000898  2BDD               	incf	_inte_sample_counter& (0+255),f,b
  7004                           
  7005                           ; BSR set to: 0
  7006                           ;weather-v2.c: 1627: if(inte_sample_counter==10)
  7007  00089A  0E0A               	movlw	10
  7008  00089C  0100               	movlb	0	; () banked
  7009  00089E  19DD               	xorwf	_inte_sample_counter& (0+255),w,b
  7010  0008A0  A4D8               	btfss	status,2,c
  7011  0008A2  D3F4               	goto	i2l6648
  7012                           
  7013                           ; BSR set to: 0
  7014                           ;weather-v2.c: 1628: {
  7015                           ;weather-v2.c: 1629: inte_sample_counter=0;
  7016  0008A4  0E00               	movlw	0
  7017  0008A6  0100               	movlb	0	; () banked
  7018  0008A8  6FDD               	movwf	_inte_sample_counter& (0+255),b
  7019                           
  7020                           ;weather-v2.c: 1631: wind_dir_dec = 0 ;
  7021  0008AA  0E00               	movlw	0
  7022  0008AC  0100               	movlb	0	; () banked
  7023  0008AE  6FE4               	movwf	(_wind_dir_dec+1)& (0+255),b
  7024  0008B0  0E00               	movlw	0
  7025  0008B2  6FE3               	movwf	_wind_dir_dec& (0+255),b
  7026                           
  7027                           ;weather-v2.c: 1632: temp_data = 0 ;
  7028  0008B4  0E00               	movlw	0
  7029  0008B6  0100               	movlb	0	; () banked
  7030  0008B8  6FEB               	movwf	_temp_data& (0+255),b
  7031  0008BA  0E00               	movlw	0
  7032  0008BC  0100               	movlb	0	; () banked
  7033  0008BE  6FEC               	movwf	(_temp_data+1)& (0+255),b
  7034  0008C0  0E00               	movlw	0
  7035  0008C2  0100               	movlb	0	; () banked
  7036  0008C4  6FED               	movwf	(_temp_data+2)& (0+255),b
  7037                           
  7038                           ;weather-v2.c: 1633: hum_data = 0 ;
  7039  0008C6  0E00               	movlw	0
  7040  0008C8  0100               	movlb	0	; () banked
  7041  0008CA  6FE8               	movwf	_hum_data& (0+255),b
  7042  0008CC  0E00               	movlw	0
  7043  0008CE  0100               	movlb	0	; () banked
  7044  0008D0  6FE9               	movwf	(_hum_data+1)& (0+255),b
  7045  0008D2  0E00               	movlw	0
  7046  0008D4  0100               	movlb	0	; () banked
  7047  0008D6  6FEA               	movwf	(_hum_data+2)& (0+255),b
  7048                           
  7049                           ;weather-v2.c: 1635: for(temporary_i=0;temporary_i<10;temporary_i++)
  7050  0008D8  0E00               	movlw	0
  7051  0008DA  0100               	movlb	0	; () banked
  7052  0008DC  6FC7               	movwf	high_isr@temporary_i& (0+255),b
  7053  0008DE                     i2l6528:
  7054                           
  7055                           ; BSR set to: 0
  7056  0008DE  0E09               	movlw	9
  7057  0008E0  0100               	movlb	0	; () banked
  7058  0008E2  65C7               	cpfsgt	high_isr@temporary_i& (0+255),b
  7059  0008E4  D001               	goto	i2l6532
  7060  0008E6  D052               	goto	i2l6542
  7061  0008E8                     i2l6532:
  7062                           
  7063                           ; BSR set to: 0
  7064                           ;weather-v2.c: 1636: {
  7065                           ;weather-v2.c: 1637: wind_dir_dec += wind_dir_buffer[temporary_i] ;
  7066  0008E8  0100               	movlb	0	; () banked
  7067  0008EA  51C7               	movf	high_isr@temporary_i& (0+255),w,b
  7068  0008EC  0D02               	mullw	2
  7069  0008EE  0E7D               	movlw	low _wind_dir_buffer
  7070  0008F0  24F3               	addwf	prodl,w,c
  7071  0008F2  6ED9               	movwf	fsr2l,c
  7072  0008F4  0E01               	movlw	high _wind_dir_buffer
  7073  0008F6  20F4               	addwfc	prodh,w,c
  7074  0008F8  6EDA               	movwf	fsr2h,c
  7075  0008FA  50DE               	movf	postinc2,w,c
  7076  0008FC  0100               	movlb	0	; () banked
  7077  0008FE  27E3               	addwf	_wind_dir_dec& (0+255),f,b
  7078  000900  50DD               	movf	postdec2,w,c
  7079  000902  0100               	movlb	0	; () banked
  7080  000904  23E4               	addwfc	(_wind_dir_dec+1)& (0+255),f,b
  7081                           
  7082                           ; BSR set to: 0
  7083                           ;weather-v2.c: 1638: temp_data += temp_buffer[temporary_i] ;
  7084  000906  C0EB  F089         	movff	_temp_data,___ftadd@f1
  7085  00090A  C0EC  F08A         	movff	_temp_data+1,___ftadd@f1+1
  7086  00090E  C0ED  F08B         	movff	_temp_data+2,___ftadd@f1+2
  7087  000912  0100               	movlb	0	; () banked
  7088  000914  51C7               	movf	high_isr@temporary_i& (0+255),w,b
  7089  000916  0D03               	mullw	3
  7090  000918  0E00               	movlw	low _temp_buffer
  7091  00091A  24F3               	addwf	prodl,w,c
  7092  00091C  6ED9               	movwf	fsr2l,c
  7093  00091E  0E01               	movlw	high _temp_buffer
  7094  000920  20F4               	addwfc	prodh,w,c
  7095  000922  6EDA               	movwf	fsr2h,c
  7096  000924  CFDE F08C          	movff	postinc2,___ftadd@f2
  7097  000928  CFDE F08D          	movff	postinc2,___ftadd@f2+1
  7098  00092C  CFDD F08E          	movff	postdec2,___ftadd@f2+2
  7099  000930  ECAC  F00A         	call	___ftadd	;wreg free
  7100  000934  C089  F0EB         	movff	?___ftadd,_temp_data
  7101  000938  C08A  F0EC         	movff	?___ftadd+1,_temp_data+1
  7102  00093C  C08B  F0ED         	movff	?___ftadd+2,_temp_data+2
  7103                           
  7104                           ;weather-v2.c: 1639: hum_data += hum_buffer[temporary_i] ;
  7105  000940  C0E8  F089         	movff	_hum_data,___ftadd@f1
  7106  000944  C0E9  F08A         	movff	_hum_data+1,___ftadd@f1+1
  7107  000948  C0EA  F08B         	movff	_hum_data+2,___ftadd@f1+2
  7108  00094C  0100               	movlb	0	; () banked
  7109  00094E  51C7               	movf	high_isr@temporary_i& (0+255),w,b
  7110  000950  0D02               	mullw	2
  7111  000952  0E4B               	movlw	low _hum_buffer
  7112  000954  24F3               	addwf	prodl,w,c
  7113  000956  6ED9               	movwf	fsr2l,c
  7114  000958  0E01               	movlw	high _hum_buffer
  7115  00095A  20F4               	addwfc	prodh,w,c
  7116  00095C  6EDA               	movwf	fsr2h,c
  7117  00095E  CFDE F068          	movff	postinc2,___lwtoft@c
  7118  000962  CFDD F069          	movff	postdec2,___lwtoft@c+1
  7119  000966  EC01  F018         	call	___lwtoft	;wreg free
  7120  00096A  C068  F08C         	movff	?___lwtoft,___ftadd@f2
  7121  00096E  C069  F08D         	movff	?___lwtoft+1,___ftadd@f2+1
  7122  000972  C06A  F08E         	movff	?___lwtoft+2,___ftadd@f2+2
  7123  000976  ECAC  F00A         	call	___ftadd	;wreg free
  7124  00097A  C089  F0E8         	movff	?___ftadd,_hum_data
  7125  00097E  C08A  F0E9         	movff	?___ftadd+1,_hum_data+1
  7126  000982  C08B  F0EA         	movff	?___ftadd+2,_hum_data+2
  7127  000986  0100               	movlb	0	; () banked
  7128  000988  2BC7               	incf	high_isr@temporary_i& (0+255),f,b
  7129  00098A  D7A9               	goto	i2l6528
  7130  00098C                     i2l6542:
  7131                           
  7132                           ; BSR set to: 0
  7133                           ;weather-v2.c: 1640: }
  7134                           ;weather-v2.c: 1642: wind_dir_data = 0.1*wind_dir_dec ;
  7135  00098C  0ECD               	movlw	205
  7136  00098E  0100               	movlb	0	; () banked
  7137  000990  6F6E               	movwf	___ftmul@f2& (0+255),b
  7138  000992  0ECC               	movlw	204
  7139  000994  0100               	movlb	0	; () banked
  7140  000996  6F6F               	movwf	(___ftmul@f2+1)& (0+255),b
  7141  000998  0E3D               	movlw	61
  7142  00099A  0100               	movlb	0	; () banked
  7143  00099C  6F70               	movwf	(___ftmul@f2+2)& (0+255),b
  7144  00099E  C0E3  F068         	movff	_wind_dir_dec,___lwtoft@c
  7145  0009A2  C0E4  F069         	movff	_wind_dir_dec+1,___lwtoft@c+1
  7146  0009A6  EC01  F018         	call	___lwtoft	;wreg free
  7147  0009AA  C068  F06B         	movff	?___lwtoft,___ftmul@f1
  7148  0009AE  C069  F06C         	movff	?___lwtoft+1,___ftmul@f1+1
  7149  0009B2  C06A  F06D         	movff	?___lwtoft+2,___ftmul@f1+2
  7150  0009B6  EC14  F00F         	call	___ftmul	;wreg free
  7151  0009BA  C06B  F095         	movff	?___ftmul,___fttol@f1
  7152  0009BE  C06C  F096         	movff	?___ftmul+1,___fttol@f1+1
  7153  0009C2  C06D  F097         	movff	?___ftmul+2,___fttol@f1+2
  7154  0009C6  EC69  F010         	call	___fttol	;wreg free
  7155  0009CA  C095  F0D7         	movff	?___fttol,_wind_dir_data
  7156  0009CE  C096  F0D8         	movff	?___fttol+1,_wind_dir_data+1
  7157                           
  7158                           ;weather-v2.c: 1643: wind_dir_data = wind_dir_buffer[9];
  7159  0009D2  C18F  F0D7         	movff	_wind_dir_buffer+18,_wind_dir_data
  7160  0009D6  C190  F0D8         	movff	_wind_dir_buffer+19,_wind_dir_data+1
  7161                           
  7162                           ;weather-v2.c: 1644: temp_data = 0.1*temp_data ;
  7163  0009DA  C0EB  F06B         	movff	_temp_data,___ftmul@f1
  7164  0009DE  C0EC  F06C         	movff	_temp_data+1,___ftmul@f1+1
  7165  0009E2  C0ED  F06D         	movff	_temp_data+2,___ftmul@f1+2
  7166  0009E6  0ECD               	movlw	205
  7167  0009E8  0100               	movlb	0	; () banked
  7168  0009EA  6F6E               	movwf	___ftmul@f2& (0+255),b
  7169  0009EC  0ECC               	movlw	204
  7170  0009EE  0100               	movlb	0	; () banked
  7171  0009F0  6F6F               	movwf	(___ftmul@f2+1)& (0+255),b
  7172  0009F2  0E3D               	movlw	61
  7173  0009F4  0100               	movlb	0	; () banked
  7174  0009F6  6F70               	movwf	(___ftmul@f2+2)& (0+255),b
  7175  0009F8  EC14  F00F         	call	___ftmul	;wreg free
  7176  0009FC  C06B  F0EB         	movff	?___ftmul,_temp_data
  7177  000A00  C06C  F0EC         	movff	?___ftmul+1,_temp_data+1
  7178  000A04  C06D  F0ED         	movff	?___ftmul+2,_temp_data+2
  7179                           
  7180                           ;weather-v2.c: 1645: hum_data = 0.1*hum_data ;
  7181  000A08  C0E8  F06B         	movff	_hum_data,___ftmul@f1
  7182  000A0C  C0E9  F06C         	movff	_hum_data+1,___ftmul@f1+1
  7183  000A10  C0EA  F06D         	movff	_hum_data+2,___ftmul@f1+2
  7184  000A14  0ECD               	movlw	205
  7185  000A16  0100               	movlb	0	; () banked
  7186  000A18  6F6E               	movwf	___ftmul@f2& (0+255),b
  7187  000A1A  0ECC               	movlw	204
  7188  000A1C  0100               	movlb	0	; () banked
  7189  000A1E  6F6F               	movwf	(___ftmul@f2+1)& (0+255),b
  7190  000A20  0E3D               	movlw	61
  7191  000A22  0100               	movlb	0	; () banked
  7192  000A24  6F70               	movwf	(___ftmul@f2+2)& (0+255),b
  7193  000A26  EC14  F00F         	call	___ftmul	;wreg free
  7194  000A2A  C06B  F0E8         	movff	?___ftmul,_hum_data
  7195  000A2E  C06C  F0E9         	movff	?___ftmul+1,_hum_data+1
  7196  000A32  C06D  F0EA         	movff	?___ftmul+2,_hum_data+2
  7197                           
  7198                           ;weather-v2.c: 1646: dew_data = temp_data-(100-hum_data)/5.0;
  7199  000A36  0E00               	movlw	0
  7200  000A38  0100               	movlb	0	; () banked
  7201  000A3A  6F7D               	movwf	___ftdiv@f2& (0+255),b
  7202  000A3C  0EA0               	movlw	160
  7203  000A3E  0100               	movlb	0	; () banked
  7204  000A40  6F7E               	movwf	(___ftdiv@f2+1)& (0+255),b
  7205  000A42  0E40               	movlw	64
  7206  000A44  0100               	movlb	0	; () banked
  7207  000A46  6F7F               	movwf	(___ftdiv@f2+2)& (0+255),b
  7208  000A48  0E00               	movlw	0
  7209  000A4A  0100               	movlb	0	; () banked
  7210  000A4C  6F8C               	movwf	___ftadd@f2& (0+255),b
  7211  000A4E  0EC8               	movlw	200
  7212  000A50  0100               	movlb	0	; () banked
  7213  000A52  6F8D               	movwf	(___ftadd@f2+1)& (0+255),b
  7214  000A54  0E42               	movlw	66
  7215  000A56  0100               	movlb	0	; () banked
  7216  000A58  6F8E               	movwf	(___ftadd@f2+2)& (0+255),b
  7217  000A5A  C0E8  F060         	movff	_hum_data,___ftneg@f1
  7218  000A5E  C0E9  F061         	movff	_hum_data+1,___ftneg@f1+1
  7219  000A62  C0EA  F062         	movff	_hum_data+2,___ftneg@f1+2
  7220  000A66  ECE9  F017         	call	___ftneg	;wreg free
  7221  000A6A  C060  F089         	movff	?___ftneg,___ftadd@f1
  7222  000A6E  C061  F08A         	movff	?___ftneg+1,___ftadd@f1+1
  7223  000A72  C062  F08B         	movff	?___ftneg+2,___ftadd@f1+2
  7224  000A76  ECAC  F00A         	call	___ftadd	;wreg free
  7225  000A7A  C089  F07A         	movff	?___ftadd,___ftdiv@f1
  7226  000A7E  C08A  F07B         	movff	?___ftadd+1,___ftdiv@f1+1
  7227  000A82  C08B  F07C         	movff	?___ftadd+2,___ftdiv@f1+2
  7228  000A86  ECC3  F00F         	call	___ftdiv	;wreg free
  7229  000A8A  C07A  F0C4         	movff	?___ftdiv,_high_isr$2251
  7230  000A8E  C07B  F0C5         	movff	?___ftdiv+1,_high_isr$2251+1
  7231  000A92  C07C  F0C6         	movff	?___ftdiv+2,_high_isr$2251+2
  7232                           
  7233                           ;weather-v2.c: 1646: dew_data = temp_data-(100-hum_data)/5.0;
  7234  000A96  C0C4  F060         	movff	_high_isr$2251,___ftneg@f1
  7235  000A9A  C0C5  F061         	movff	_high_isr$2251+1,___ftneg@f1+1
  7236  000A9E  C0C6  F062         	movff	_high_isr$2251+2,___ftneg@f1+2
  7237  000AA2  ECE9  F017         	call	___ftneg	;wreg free
  7238  000AA6  C060  F089         	movff	?___ftneg,___ftadd@f1
  7239  000AAA  C061  F08A         	movff	?___ftneg+1,___ftadd@f1+1
  7240  000AAE  C062  F08B         	movff	?___ftneg+2,___ftadd@f1+2
  7241  000AB2  C0EB  F08C         	movff	_temp_data,___ftadd@f2
  7242  000AB6  C0EC  F08D         	movff	_temp_data+1,___ftadd@f2+1
  7243  000ABA  C0ED  F08E         	movff	_temp_data+2,___ftadd@f2+2
  7244  000ABE  ECAC  F00A         	call	___ftadd	;wreg free
  7245  000AC2  C089  F0C8         	movff	?___ftadd,_dew_data
  7246  000AC6  C08A  F0C9         	movff	?___ftadd+1,_dew_data+1
  7247  000ACA  C08B  F0CA         	movff	?___ftadd+2,_dew_data+2
  7248                           
  7249                           ;weather-v2.c: 1648: if(dsth_error)
  7250  000ACE  0100               	movlb	0	; () banked
  7251  000AD0  51DC               	movf	_dsth_error& (0+255),w,b
  7252  000AD2  B4D8               	btfsc	status,2,c
  7253  000AD4  D022               	goto	i2l6570
  7254                           
  7255                           ; BSR set to: 0
  7256                           ;weather-v2.c: 1649: {
  7257                           ;weather-v2.c: 1650: if(dsth_error<5)
  7258  000AD6  0E05               	movlw	5
  7259  000AD8  0100               	movlb	0	; () banked
  7260  000ADA  61DC               	cpfslt	_dsth_error& (0+255),b
  7261  000ADC  D008               	goto	i2l6554
  7262                           
  7263                           ; BSR set to: 0
  7264                           ;weather-v2.c: 1651: {
  7265                           ;weather-v2.c: 1652: temp_data_h = 'E';
  7266  000ADE  0E45               	movlw	69
  7267  000AE0  6E2E               	movwf	_temp_data_h,c
  7268                           
  7269                           ;weather-v2.c: 1653: temp_data_m = 'r';
  7270  000AE2  0E72               	movlw	114
  7271  000AE4  6E30               	movwf	_temp_data_m,c
  7272                           
  7273                           ; BSR set to: 0
  7274                           ;weather-v2.c: 1654: temp_data_l = dsth_error+48;
  7275  000AE6  0100               	movlb	0	; () banked
  7276  000AE8  51DC               	movf	_dsth_error& (0+255),w,b
  7277  000AEA  0F30               	addlw	48
  7278  000AEC  6E2F               	movwf	_temp_data_l,c
  7279  000AEE                     i2l6554:
  7280                           
  7281                           ; BSR set to: 0
  7282                           ;weather-v2.c: 1655: }
  7283                           ;weather-v2.c: 1656: if(dsth_error>5)
  7284  000AEE  0E05               	movlw	5
  7285  000AF0  0100               	movlb	0	; () banked
  7286  000AF2  65DC               	cpfsgt	_dsth_error& (0+255),b
  7287  000AF4  D008               	goto	i2l6560
  7288                           
  7289                           ; BSR set to: 0
  7290                           ;weather-v2.c: 1657: {
  7291                           ;weather-v2.c: 1658: hum_data_h = 'E';
  7292  000AF6  0E45               	movlw	69
  7293  000AF8  6E2A               	movwf	_hum_data_h,c
  7294                           
  7295                           ;weather-v2.c: 1659: hum_data_m = 'r';
  7296  000AFA  0E72               	movlw	114
  7297  000AFC  6E2C               	movwf	_hum_data_m,c
  7298                           
  7299                           ; BSR set to: 0
  7300                           ;weather-v2.c: 1660: hum_data_l = dsth_error+48;
  7301  000AFE  0100               	movlb	0	; () banked
  7302  000B00  51DC               	movf	_dsth_error& (0+255),w,b
  7303  000B02  0F30               	addlw	48
  7304  000B04  6E2B               	movwf	_hum_data_l,c
  7305  000B06                     i2l6560:
  7306                           
  7307                           ; BSR set to: 0
  7308                           ;weather-v2.c: 1661: }
  7309                           ;weather-v2.c: 1663: PORTCbits.RC2 = 1 ;
  7310  000B06  8482               	bsf	3970,2,c	;volatile
  7311                           
  7312                           ; BSR set to: 0
  7313                           ;weather-v2.c: 1665: T2CONbits.TMR2ON = 0;
  7314  000B08  94CA               	bcf	4042,2,c	;volatile
  7315                           
  7316                           ; BSR set to: 0
  7317                           ;weather-v2.c: 1666: PIR1bits.TMR2IF = 0;
  7318  000B0A  929E               	bcf	3998,1,c	;volatile
  7319                           
  7320                           ; BSR set to: 0
  7321                           ;weather-v2.c: 1667: TMR2 = 0 ;
  7322  000B0C  0E00               	movlw	0
  7323  000B0E  6ECC               	movwf	4044,c	;volatile
  7324                           
  7325                           ; BSR set to: 0
  7326                           ;weather-v2.c: 1668: T2CONbits.TMR2ON = 1;
  7327  000B10  84CA               	bsf	4042,2,c	;volatile
  7328  000B12                     i2l758:
  7329  000B12  A29E               	btfss	3998,1,c	;volatile
  7330  000B14  D7FE               	goto	i2l758
  7331                           
  7332                           ;weather-v2.c: 1671: PORTCbits.RC2 = 0 ;
  7333  000B16  9482               	bcf	3970,2,c	;volatile
  7334                           
  7335                           ;weather-v2.c: 1672: }
  7336  000B18  D183               	goto	i2l6604
  7337  000B1A                     i2l6570:
  7338                           
  7339                           ;weather-v2.c: 1674: else
  7340                           ;weather-v2.c: 1675: {
  7341                           ;weather-v2.c: 1676: temp_data_h = ((int)temp_data)/100+48;
  7342  000B1A  C0EB  F095         	movff	_temp_data,___fttol@f1
  7343  000B1E  C0EC  F096         	movff	_temp_data+1,___fttol@f1+1
  7344  000B22  C0ED  F097         	movff	_temp_data+2,___fttol@f1+2
  7345  000B26  EC69  F010         	call	___fttol	;wreg free
  7346  000B2A  C095  F0A4         	movff	?___fttol,i2___awdiv@dividend
  7347  000B2E  C096  F0A5         	movff	?___fttol+1,i2___awdiv@dividend+1
  7348  000B32  0E00               	movlw	0
  7349  000B34  0100               	movlb	0	; () banked
  7350  000B36  6FA7               	movwf	(i2___awdiv@divisor+1)& (0+255),b
  7351  000B38  0E64               	movlw	100
  7352  000B3A  6FA6               	movwf	i2___awdiv@divisor& (0+255),b
  7353  000B3C  EC3B  F014         	call	i2___awdiv	;wreg free
  7354  000B40  0100               	movlb	0	; () banked
  7355  000B42  51A4               	movf	?i2___awdiv& (0+255),w,b
  7356  000B44  0F30               	addlw	48
  7357  000B46  6E2E               	movwf	_temp_data_h,c
  7358                           
  7359                           ;weather-v2.c: 1677: temp_data_m = (((int)temp_data)/10)%10+48;
  7360  000B48  0E00               	movlw	0
  7361  000B4A  0100               	movlb	0	; () banked
  7362  000B4C  6FA7               	movwf	(i2___awdiv@divisor+1)& (0+255),b
  7363  000B4E  0E0A               	movlw	10
  7364  000B50  6FA6               	movwf	i2___awdiv@divisor& (0+255),b
  7365  000B52  C0EB  F095         	movff	_temp_data,___fttol@f1
  7366  000B56  C0EC  F096         	movff	_temp_data+1,___fttol@f1+1
  7367  000B5A  C0ED  F097         	movff	_temp_data+2,___fttol@f1+2
  7368  000B5E  EC69  F010         	call	___fttol	;wreg free
  7369  000B62  C095  F0A4         	movff	?___fttol,i2___awdiv@dividend
  7370  000B66  C096  F0A5         	movff	?___fttol+1,i2___awdiv@dividend+1
  7371  000B6A  EC3B  F014         	call	i2___awdiv	;wreg free
  7372  000B6E  C0A4  F0AC         	movff	?i2___awdiv,___awmod@dividend
  7373  000B72  C0A5  F0AD         	movff	?i2___awdiv+1,___awmod@dividend+1
  7374  000B76  0E00               	movlw	0
  7375  000B78  0100               	movlb	0	; () banked
  7376  000B7A  6FAF               	movwf	(___awmod@divisor+1)& (0+255),b
  7377  000B7C  0E0A               	movlw	10
  7378  000B7E  6FAE               	movwf	___awmod@divisor& (0+255),b
  7379  000B80  EC9A  F014         	call	___awmod	;wreg free
  7380  000B84  0100               	movlb	0	; () banked
  7381  000B86  51AC               	movf	?___awmod& (0+255),w,b
  7382  000B88  0F30               	addlw	48
  7383  000B8A  6E30               	movwf	_temp_data_m,c
  7384                           
  7385                           ;weather-v2.c: 1678: temp_data_l = ((int)temp_data)%10+48;
  7386  000B8C  C0EB  F095         	movff	_temp_data,___fttol@f1
  7387  000B90  C0EC  F096         	movff	_temp_data+1,___fttol@f1+1
  7388  000B94  C0ED  F097         	movff	_temp_data+2,___fttol@f1+2
  7389  000B98  EC69  F010         	call	___fttol	;wreg free
  7390  000B9C  C095  F0AC         	movff	?___fttol,___awmod@dividend
  7391  000BA0  C096  F0AD         	movff	?___fttol+1,___awmod@dividend+1
  7392  000BA4  0E00               	movlw	0
  7393  000BA6  0100               	movlb	0	; () banked
  7394  000BA8  6FAF               	movwf	(___awmod@divisor+1)& (0+255),b
  7395  000BAA  0E0A               	movlw	10
  7396  000BAC  6FAE               	movwf	___awmod@divisor& (0+255),b
  7397  000BAE  EC9A  F014         	call	___awmod	;wreg free
  7398  000BB2  0100               	movlb	0	; () banked
  7399  000BB4  51AC               	movf	?___awmod& (0+255),w,b
  7400  000BB6  0F30               	addlw	48
  7401  000BB8  6E2F               	movwf	_temp_data_l,c
  7402                           
  7403                           ;weather-v2.c: 1679: temp_data_f = ((int)(temp_data*10))%10+48;
  7404  000BBA  0E00               	movlw	0
  7405  000BBC  0100               	movlb	0	; () banked
  7406  000BBE  6F6E               	movwf	___ftmul@f2& (0+255),b
  7407  000BC0  0E20               	movlw	32
  7408  000BC2  0100               	movlb	0	; () banked
  7409  000BC4  6F6F               	movwf	(___ftmul@f2+1)& (0+255),b
  7410  000BC6  0E41               	movlw	65
  7411  000BC8  0100               	movlb	0	; () banked
  7412  000BCA  6F70               	movwf	(___ftmul@f2+2)& (0+255),b
  7413  000BCC  C0EB  F06B         	movff	_temp_data,___ftmul@f1
  7414  000BD0  C0EC  F06C         	movff	_temp_data+1,___ftmul@f1+1
  7415  000BD4  C0ED  F06D         	movff	_temp_data+2,___ftmul@f1+2
  7416  000BD8  EC14  F00F         	call	___ftmul	;wreg free
  7417  000BDC  C06B  F095         	movff	?___ftmul,___fttol@f1
  7418  000BE0  C06C  F096         	movff	?___ftmul+1,___fttol@f1+1
  7419  000BE4  C06D  F097         	movff	?___ftmul+2,___fttol@f1+2
  7420  000BE8  EC69  F010         	call	___fttol	;wreg free
  7421  000BEC  C095  F0AC         	movff	?___fttol,___awmod@dividend
  7422  000BF0  C096  F0AD         	movff	?___fttol+1,___awmod@dividend+1
  7423  000BF4  0E00               	movlw	0
  7424  000BF6  0100               	movlb	0	; () banked
  7425  000BF8  6FAF               	movwf	(___awmod@divisor+1)& (0+255),b
  7426  000BFA  0E0A               	movlw	10
  7427  000BFC  6FAE               	movwf	___awmod@divisor& (0+255),b
  7428  000BFE  EC9A  F014         	call	___awmod	;wreg free
  7429  000C02  0100               	movlb	0	; () banked
  7430  000C04  51AC               	movf	?___awmod& (0+255),w,b
  7431  000C06  0F30               	addlw	48
  7432  000C08  6E2D               	movwf	_temp_data_f,c
  7433                           
  7434                           ; BSR set to: 0
  7435                           ;weather-v2.c: 1681: if(temp_data>=0)
  7436  000C0A  0100               	movlb	0	; () banked
  7437  000C0C  BFED               	btfsc	(_temp_data+2)& (0+255),7,b
  7438  000C0E  D002               	goto	i2l6576
  7439                           
  7440                           ; BSR set to: 0
  7441                           ;weather-v2.c: 1682: temp_sign = '+';
  7442  000C10  0E2B               	movlw	43
  7443  000C12  D001               	goto	L1
  7444  000C14                     i2l6576:
  7445                           
  7446                           ; BSR set to: 0
  7447                           ;weather-v2.c: 1683: else
  7448                           ;weather-v2.c: 1684: temp_sign = '-';
  7449  000C14  0E2D               	movlw	45
  7450  000C16                     L1:
  7451  000C16  6E31               	movwf	_temp_sign,c
  7452                           
  7453                           ; BSR set to: 0
  7454                           ;weather-v2.c: 1686: hum_data = hum_data -7;
  7455                           
  7456                           ; BSR set to: 0
  7457  000C18  C0E8  F089         	movff	_hum_data,___ftadd@f1
  7458  000C1C  C0E9  F08A         	movff	_hum_data+1,___ftadd@f1+1
  7459  000C20  C0EA  F08B         	movff	_hum_data+2,___ftadd@f1+2
  7460  000C24  0E00               	movlw	0
  7461  000C26  0100               	movlb	0	; () banked
  7462  000C28  6F8C               	movwf	___ftadd@f2& (0+255),b
  7463  000C2A  0EE0               	movlw	224
  7464  000C2C  0100               	movlb	0	; () banked
  7465  000C2E  6F8D               	movwf	(___ftadd@f2+1)& (0+255),b
  7466  000C30  0EC0               	movlw	192
  7467  000C32  0100               	movlb	0	; () banked
  7468  000C34  6F8E               	movwf	(___ftadd@f2+2)& (0+255),b
  7469  000C36  ECAC  F00A         	call	___ftadd	;wreg free
  7470  000C3A  C089  F0E8         	movff	?___ftadd,_hum_data
  7471  000C3E  C08A  F0E9         	movff	?___ftadd+1,_hum_data+1
  7472  000C42  C08B  F0EA         	movff	?___ftadd+2,_hum_data+2
  7473                           
  7474                           ;weather-v2.c: 1687: if(hum_data>100)
  7475  000C46  0E00               	movlw	0
  7476  000C48  0100               	movlb	0	; () banked
  7477  000C4A  6F60               	movwf	___ftge@ff1& (0+255),b
  7478  000C4C  0EC8               	movlw	200
  7479  000C4E  0100               	movlb	0	; () banked
  7480  000C50  6F61               	movwf	(___ftge@ff1+1)& (0+255),b
  7481  000C52  0E42               	movlw	66
  7482  000C54  0100               	movlb	0	; () banked
  7483  000C56  6F62               	movwf	(___ftge@ff1+2)& (0+255),b
  7484  000C58  C0E8  F063         	movff	_hum_data,___ftge@ff2
  7485  000C5C  C0E9  F064         	movff	_hum_data+1,___ftge@ff2+1
  7486  000C60  C0EA  F065         	movff	_hum_data+2,___ftge@ff2+2
  7487  000C64  EC78  F013         	call	___ftge	;wreg free
  7488  000C68  0100               	movlb	0	; () banked
  7489  000C6A  B0D8               	btfsc	status,0,c
  7490  000C6C  D009               	goto	i2l6584
  7491                           
  7492                           ; BSR set to: 0
  7493                           ;weather-v2.c: 1688: hum_data=100;
  7494  000C6E  0E00               	movlw	0
  7495  000C70  0100               	movlb	0	; () banked
  7496  000C72  6FE8               	movwf	_hum_data& (0+255),b
  7497  000C74  0EC8               	movlw	200
  7498  000C76  0100               	movlb	0	; () banked
  7499  000C78  6FE9               	movwf	(_hum_data+1)& (0+255),b
  7500  000C7A  0E42               	movlw	66
  7501  000C7C  0100               	movlb	0	; () banked
  7502  000C7E  6FEA               	movwf	(_hum_data+2)& (0+255),b
  7503  000C80                     i2l6584:
  7504                           
  7505                           ; BSR set to: 0
  7506                           ;weather-v2.c: 1689: hum_data_h = ((int)hum_data)/100+48;
  7507  000C80  C0E8  F095         	movff	_hum_data,___fttol@f1
  7508  000C84  C0E9  F096         	movff	_hum_data+1,___fttol@f1+1
  7509  000C88  C0EA  F097         	movff	_hum_data+2,___fttol@f1+2
  7510  000C8C  EC69  F010         	call	___fttol	;wreg free
  7511  000C90  C095  F0A4         	movff	?___fttol,i2___awdiv@dividend
  7512  000C94  C096  F0A5         	movff	?___fttol+1,i2___awdiv@dividend+1
  7513  000C98  0E00               	movlw	0
  7514  000C9A  0100               	movlb	0	; () banked
  7515  000C9C  6FA7               	movwf	(i2___awdiv@divisor+1)& (0+255),b
  7516  000C9E  0E64               	movlw	100
  7517  000CA0  6FA6               	movwf	i2___awdiv@divisor& (0+255),b
  7518  000CA2  EC3B  F014         	call	i2___awdiv	;wreg free
  7519  000CA6  0100               	movlb	0	; () banked
  7520  000CA8  51A4               	movf	?i2___awdiv& (0+255),w,b
  7521  000CAA  0F30               	addlw	48
  7522  000CAC  6E2A               	movwf	_hum_data_h,c
  7523                           
  7524                           ; BSR set to: 0
  7525                           ;weather-v2.c: 1690: hum_data_m = (((int)hum_data)/10)%10+48;
  7526  000CAE  0E00               	movlw	0
  7527  000CB0  0100               	movlb	0	; () banked
  7528  000CB2  6FA7               	movwf	(i2___awdiv@divisor+1)& (0+255),b
  7529  000CB4  0E0A               	movlw	10
  7530  000CB6  6FA6               	movwf	i2___awdiv@divisor& (0+255),b
  7531  000CB8  C0E8  F095         	movff	_hum_data,___fttol@f1
  7532  000CBC  C0E9  F096         	movff	_hum_data+1,___fttol@f1+1
  7533  000CC0  C0EA  F097         	movff	_hum_data+2,___fttol@f1+2
  7534  000CC4  EC69  F010         	call	___fttol	;wreg free
  7535  000CC8  C095  F0A4         	movff	?___fttol,i2___awdiv@dividend
  7536  000CCC  C096  F0A5         	movff	?___fttol+1,i2___awdiv@dividend+1
  7537  000CD0  EC3B  F014         	call	i2___awdiv	;wreg free
  7538  000CD4  C0A4  F0AC         	movff	?i2___awdiv,___awmod@dividend
  7539  000CD8  C0A5  F0AD         	movff	?i2___awdiv+1,___awmod@dividend+1
  7540  000CDC  0E00               	movlw	0
  7541  000CDE  0100               	movlb	0	; () banked
  7542  000CE0  6FAF               	movwf	(___awmod@divisor+1)& (0+255),b
  7543  000CE2  0E0A               	movlw	10
  7544  000CE4  6FAE               	movwf	___awmod@divisor& (0+255),b
  7545  000CE6  EC9A  F014         	call	___awmod	;wreg free
  7546  000CEA  0100               	movlb	0	; () banked
  7547  000CEC  51AC               	movf	?___awmod& (0+255),w,b
  7548  000CEE  0F30               	addlw	48
  7549  000CF0  6E2C               	movwf	_hum_data_m,c
  7550                           
  7551                           ; BSR set to: 0
  7552                           ;weather-v2.c: 1691: hum_data_l = ((int)hum_data)%10+48;
  7553  000CF2  C0E8  F095         	movff	_hum_data,___fttol@f1
  7554  000CF6  C0E9  F096         	movff	_hum_data+1,___fttol@f1+1
  7555  000CFA  C0EA  F097         	movff	_hum_data+2,___fttol@f1+2
  7556  000CFE  EC69  F010         	call	___fttol	;wreg free
  7557  000D02  C095  F0AC         	movff	?___fttol,___awmod@dividend
  7558  000D06  C096  F0AD         	movff	?___fttol+1,___awmod@dividend+1
  7559  000D0A  0E00               	movlw	0
  7560  000D0C  0100               	movlb	0	; () banked
  7561  000D0E  6FAF               	movwf	(___awmod@divisor+1)& (0+255),b
  7562  000D10  0E0A               	movlw	10
  7563  000D12  6FAE               	movwf	___awmod@divisor& (0+255),b
  7564  000D14  EC9A  F014         	call	___awmod	;wreg free
  7565  000D18  0100               	movlb	0	; () banked
  7566  000D1A  51AC               	movf	?___awmod& (0+255),w,b
  7567  000D1C  0F30               	addlw	48
  7568  000D1E  6E2B               	movwf	_hum_data_l,c
  7569                           
  7570                           ; BSR set to: 0
  7571                           ;weather-v2.c: 1694: dew_data_h = ((int)dew_data)/100+48;
  7572  000D20  C0C8  F095         	movff	_dew_data,___fttol@f1
  7573  000D24  C0C9  F096         	movff	_dew_data+1,___fttol@f1+1
  7574  000D28  C0CA  F097         	movff	_dew_data+2,___fttol@f1+2
  7575  000D2C  EC69  F010         	call	___fttol	;wreg free
  7576  000D30  C095  F0A4         	movff	?___fttol,i2___awdiv@dividend
  7577  000D34  C096  F0A5         	movff	?___fttol+1,i2___awdiv@dividend+1
  7578  000D38  0E00               	movlw	0
  7579  000D3A  0100               	movlb	0	; () banked
  7580  000D3C  6FA7               	movwf	(i2___awdiv@divisor+1)& (0+255),b
  7581  000D3E  0E64               	movlw	100
  7582  000D40  6FA6               	movwf	i2___awdiv@divisor& (0+255),b
  7583  000D42  EC3B  F014         	call	i2___awdiv	;wreg free
  7584  000D46  0100               	movlb	0	; () banked
  7585  000D48  51A4               	movf	?i2___awdiv& (0+255),w,b
  7586  000D4A  0F30               	addlw	48
  7587  000D4C  0100               	movlb	0	; () banked
  7588  000D4E  6FDB               	movwf	_dew_data_h& (0+255),b
  7589                           
  7590                           ; BSR set to: 0
  7591                           ;weather-v2.c: 1695: dew_data_m = ((int)dew_data)/10%10+48;
  7592  000D50  0E00               	movlw	0
  7593  000D52  0100               	movlb	0	; () banked
  7594  000D54  6FA7               	movwf	(i2___awdiv@divisor+1)& (0+255),b
  7595  000D56  0E0A               	movlw	10
  7596  000D58  6FA6               	movwf	i2___awdiv@divisor& (0+255),b
  7597  000D5A  C0C8  F095         	movff	_dew_data,___fttol@f1
  7598  000D5E  C0C9  F096         	movff	_dew_data+1,___fttol@f1+1
  7599  000D62  C0CA  F097         	movff	_dew_data+2,___fttol@f1+2
  7600  000D66  EC69  F010         	call	___fttol	;wreg free
  7601  000D6A  C095  F0A4         	movff	?___fttol,i2___awdiv@dividend
  7602  000D6E  C096  F0A5         	movff	?___fttol+1,i2___awdiv@dividend+1
  7603  000D72  EC3B  F014         	call	i2___awdiv	;wreg free
  7604  000D76  C0A4  F0AC         	movff	?i2___awdiv,___awmod@dividend
  7605  000D7A  C0A5  F0AD         	movff	?i2___awdiv+1,___awmod@dividend+1
  7606  000D7E  0E00               	movlw	0
  7607  000D80  0100               	movlb	0	; () banked
  7608  000D82  6FAF               	movwf	(___awmod@divisor+1)& (0+255),b
  7609  000D84  0E0A               	movlw	10
  7610  000D86  6FAE               	movwf	___awmod@divisor& (0+255),b
  7611  000D88  EC9A  F014         	call	___awmod	;wreg free
  7612  000D8C  0100               	movlb	0	; () banked
  7613  000D8E  51AC               	movf	?___awmod& (0+255),w,b
  7614  000D90  0F30               	addlw	48
  7615  000D92  6E28               	movwf	_dew_data_m,c
  7616                           
  7617                           ; BSR set to: 0
  7618                           ;weather-v2.c: 1696: dew_data_l = ((int)dew_data)%10+48;
  7619  000D94  C0C8  F095         	movff	_dew_data,___fttol@f1
  7620  000D98  C0C9  F096         	movff	_dew_data+1,___fttol@f1+1
  7621  000D9C  C0CA  F097         	movff	_dew_data+2,___fttol@f1+2
  7622  000DA0  EC69  F010         	call	___fttol	;wreg free
  7623  000DA4  C095  F0AC         	movff	?___fttol,___awmod@dividend
  7624  000DA8  C096  F0AD         	movff	?___fttol+1,___awmod@dividend+1
  7625  000DAC  0E00               	movlw	0
  7626  000DAE  0100               	movlb	0	; () banked
  7627  000DB0  6FAF               	movwf	(___awmod@divisor+1)& (0+255),b
  7628  000DB2  0E0A               	movlw	10
  7629  000DB4  6FAE               	movwf	___awmod@divisor& (0+255),b
  7630  000DB6  EC9A  F014         	call	___awmod	;wreg free
  7631  000DBA  0100               	movlb	0	; () banked
  7632  000DBC  51AC               	movf	?___awmod& (0+255),w,b
  7633  000DBE  0F30               	addlw	48
  7634  000DC0  6E27               	movwf	_dew_data_l,c
  7635                           
  7636                           ; BSR set to: 0
  7637                           ;weather-v2.c: 1697: dew_data_f = ((int)(dew_data*10))%10+48;
  7638  000DC2  0E00               	movlw	0
  7639  000DC4  0100               	movlb	0	; () banked
  7640  000DC6  6F6E               	movwf	___ftmul@f2& (0+255),b
  7641  000DC8  0E20               	movlw	32
  7642  000DCA  0100               	movlb	0	; () banked
  7643  000DCC  6F6F               	movwf	(___ftmul@f2+1)& (0+255),b
  7644  000DCE  0E41               	movlw	65
  7645  000DD0  0100               	movlb	0	; () banked
  7646  000DD2  6F70               	movwf	(___ftmul@f2+2)& (0+255),b
  7647  000DD4  C0C8  F06B         	movff	_dew_data,___ftmul@f1
  7648  000DD8  C0C9  F06C         	movff	_dew_data+1,___ftmul@f1+1
  7649  000DDC  C0CA  F06D         	movff	_dew_data+2,___ftmul@f1+2
  7650  000DE0  EC14  F00F         	call	___ftmul	;wreg free
  7651  000DE4  C06B  F095         	movff	?___ftmul,___fttol@f1
  7652  000DE8  C06C  F096         	movff	?___ftmul+1,___fttol@f1+1
  7653  000DEC  C06D  F097         	movff	?___ftmul+2,___fttol@f1+2
  7654  000DF0  EC69  F010         	call	___fttol	;wreg free
  7655  000DF4  C095  F0AC         	movff	?___fttol,___awmod@dividend
  7656  000DF8  C096  F0AD         	movff	?___fttol+1,___awmod@dividend+1
  7657  000DFC  0E00               	movlw	0
  7658  000DFE  0100               	movlb	0	; () banked
  7659  000E00  6FAF               	movwf	(___awmod@divisor+1)& (0+255),b
  7660  000E02  0E0A               	movlw	10
  7661  000E04  6FAE               	movwf	___awmod@divisor& (0+255),b
  7662  000E06  EC9A  F014         	call	___awmod	;wreg free
  7663  000E0A  0100               	movlb	0	; () banked
  7664  000E0C  51AC               	movf	?___awmod& (0+255),w,b
  7665  000E0E  0F30               	addlw	48
  7666  000E10  6E26               	movwf	_dew_data_f,c
  7667                           
  7668                           ; BSR set to: 0
  7669                           ;weather-v2.c: 1699: if(dew_data>=0)
  7670  000E12  0100               	movlb	0	; () banked
  7671  000E14  BFCA               	btfsc	(_dew_data+2)& (0+255),7,b
  7672  000E16  D002               	goto	i2l6602
  7673                           
  7674                           ; BSR set to: 0
  7675                           ;weather-v2.c: 1700: dew_sign = '+';
  7676  000E18  0E2B               	movlw	43
  7677  000E1A  D001               	goto	L2
  7678  000E1C                     i2l6602:
  7679                           
  7680                           ; BSR set to: 0
  7681                           ;weather-v2.c: 1701: else
  7682                           ;weather-v2.c: 1702: dew_sign = '-';
  7683  000E1C  0E2D               	movlw	45
  7684  000E1E                     L2:
  7685  000E1E  6E29               	movwf	_dew_sign,c
  7686  000E20                     i2l6604:
  7687                           
  7688                           ;weather-v2.c: 1705: }
  7689                           ;weather-v2.c: 1707: wind_dir_data_h = wind_dir_data/100+48;
  7690  000E20  C0D7  F060         	movff	_wind_dir_data,i2___lwdiv@dividend
  7691  000E24  C0D8  F061         	movff	_wind_dir_data+1,i2___lwdiv@dividend+1
  7692  000E28  0E00               	movlw	0
  7693  000E2A  0100               	movlb	0	; () banked
  7694  000E2C  6F63               	movwf	(i2___lwdiv@divisor+1)& (0+255),b
  7695  000E2E  0E64               	movlw	100
  7696  000E30  6F62               	movwf	i2___lwdiv@divisor& (0+255),b
  7697  000E32  EC6C  F015         	call	i2___lwdiv	;wreg free
  7698  000E36  0100               	movlb	0	; () banked
  7699  000E38  5160               	movf	?i2___lwdiv& (0+255),w,b
  7700  000E3A  0F30               	addlw	48
  7701  000E3C  6E33               	movwf	_wind_dir_data_h,c
  7702                           
  7703                           ; BSR set to: 0
  7704                           ;weather-v2.c: 1708: wind_dir_data_m = wind_dir_data/10%10+48;
  7705  000E3E  0E00               	movlw	0
  7706  000E40  0100               	movlb	0	; () banked
  7707  000E42  6F63               	movwf	(i2___lwdiv@divisor+1)& (0+255),b
  7708  000E44  0E0A               	movlw	10
  7709  000E46  6F62               	movwf	i2___lwdiv@divisor& (0+255),b
  7710  000E48  C0D7  F060         	movff	_wind_dir_data,i2___lwdiv@dividend
  7711  000E4C  C0D8  F061         	movff	_wind_dir_data+1,i2___lwdiv@dividend+1
  7712  000E50  EC6C  F015         	call	i2___lwdiv	;wreg free
  7713  000E54  C060  F067         	movff	?i2___lwdiv,i2___lwmod@dividend
  7714  000E58  C061  F068         	movff	?i2___lwdiv+1,i2___lwmod@dividend+1
  7715  000E5C  0E00               	movlw	0
  7716  000E5E  0100               	movlb	0	; () banked
  7717  000E60  6F6A               	movwf	(i2___lwmod@divisor+1)& (0+255),b
  7718  000E62  0E0A               	movlw	10
  7719  000E64  6F69               	movwf	i2___lwmod@divisor& (0+255),b
  7720  000E66  ECDB  F015         	call	i2___lwmod	;wreg free
  7721  000E6A  0100               	movlb	0	; () banked
  7722  000E6C  5167               	movf	?i2___lwmod& (0+255),w,b
  7723  000E6E  0F30               	addlw	48
  7724  000E70  6E35               	movwf	_wind_dir_data_m,c
  7725                           
  7726                           ; BSR set to: 0
  7727                           ;weather-v2.c: 1709: wind_dir_data_l = wind_dir_data%10+48;
  7728  000E72  C0D7  F067         	movff	_wind_dir_data,i2___lwmod@dividend
  7729  000E76  C0D8  F068         	movff	_wind_dir_data+1,i2___lwmod@dividend+1
  7730  000E7A  0E00               	movlw	0
  7731  000E7C  0100               	movlb	0	; () banked
  7732  000E7E  6F6A               	movwf	(i2___lwmod@divisor+1)& (0+255),b
  7733  000E80  0E0A               	movlw	10
  7734  000E82  6F69               	movwf	i2___lwmod@divisor& (0+255),b
  7735  000E84  ECDB  F015         	call	i2___lwmod	;wreg free
  7736  000E88  0100               	movlb	0	; () banked
  7737  000E8A  5167               	movf	?i2___lwmod& (0+255),w,b
  7738  000E8C  0F30               	addlw	48
  7739  000E8E  6E34               	movwf	_wind_dir_data_l,c
  7740                           
  7741                           ; BSR set to: 0
  7742                           ;weather-v2.c: 1712: wind_vel = 0.67*wind_count ;
  7743  000E90  C0E1  F068         	movff	_wind_count,___lwtoft@c
  7744  000E94  C0E2  F069         	movff	_wind_count+1,___lwtoft@c+1
  7745  000E98  EC01  F018         	call	___lwtoft	;wreg free
  7746  000E9C  C068  F06B         	movff	?___lwtoft,___ftmul@f1
  7747  000EA0  C069  F06C         	movff	?___lwtoft+1,___ftmul@f1+1
  7748  000EA4  C06A  F06D         	movff	?___lwtoft+2,___ftmul@f1+2
  7749  000EA8  0E85               	movlw	133
  7750  000EAA  0100               	movlb	0	; () banked
  7751  000EAC  6F6E               	movwf	___ftmul@f2& (0+255),b
  7752  000EAE  0E2B               	movlw	43
  7753  000EB0  0100               	movlb	0	; () banked
  7754  000EB2  6F6F               	movwf	(___ftmul@f2+1)& (0+255),b
  7755  000EB4  0E3F               	movlw	63
  7756  000EB6  0100               	movlb	0	; () banked
  7757  000EB8  6F70               	movwf	(___ftmul@f2+2)& (0+255),b
  7758  000EBA  EC14  F00F         	call	___ftmul	;wreg free
  7759  000EBE  C06B  F0E5         	movff	?___ftmul,_wind_vel
  7760  000EC2  C06C  F0E6         	movff	?___ftmul+1,_wind_vel+1
  7761  000EC6  C06D  F0E7         	movff	?___ftmul+2,_wind_vel+2
  7762                           
  7763                           ;weather-v2.c: 1713: wind_count = 0 ;
  7764  000ECA  0E00               	movlw	0
  7765  000ECC  0100               	movlb	0	; () banked
  7766  000ECE  6FE2               	movwf	(_wind_count+1)& (0+255),b
  7767  000ED0  0E00               	movlw	0
  7768  000ED2  6FE1               	movwf	_wind_count& (0+255),b
  7769                           
  7770                           ; BSR set to: 0
  7771                           ;weather-v2.c: 1714: rain_ = 0.2794*rain_count;
  7772  000ED4  0E0E               	movlw	14
  7773  000ED6  0100               	movlb	0	; () banked
  7774  000ED8  6F6E               	movwf	___ftmul@f2& (0+255),b
  7775  000EDA  0E8F               	movlw	143
  7776  000EDC  0100               	movlb	0	; () banked
  7777  000EDE  6F6F               	movwf	(___ftmul@f2+1)& (0+255),b
  7778  000EE0  0E3E               	movlw	62
  7779  000EE2  0100               	movlb	0	; () banked
  7780  000EE4  6F70               	movwf	(___ftmul@f2+2)& (0+255),b
  7781  000EE6  C0DF  F068         	movff	_rain_count,___lwtoft@c
  7782  000EEA  C0E0  F069         	movff	_rain_count+1,___lwtoft@c+1
  7783  000EEE  EC01  F018         	call	___lwtoft	;wreg free
  7784  000EF2  C068  F06B         	movff	?___lwtoft,___ftmul@f1
  7785  000EF6  C069  F06C         	movff	?___lwtoft+1,___ftmul@f1+1
  7786  000EFA  C06A  F06D         	movff	?___lwtoft+2,___ftmul@f1+2
  7787  000EFE  EC14  F00F         	call	___ftmul	;wreg free
  7788  000F02  C06B  F095         	movff	?___ftmul,___fttol@f1
  7789  000F06  C06C  F096         	movff	?___ftmul+1,___fttol@f1+1
  7790  000F0A  C06D  F097         	movff	?___ftmul+2,___fttol@f1+2
  7791  000F0E  EC69  F010         	call	___fttol	;wreg free
  7792  000F12  0100               	movlb	0	; () banked
  7793  000F14  5195               	movf	?___fttol& (0+255),w,b
  7794  000F16  0100               	movlb	0	; () banked
  7795  000F18  6FDE               	movwf	_rain_& (0+255),b
  7796                           
  7797                           ; BSR set to: 0
  7798                           ;weather-v2.c: 1715: rain_count = 0 ;
  7799  000F1A  0E00               	movlw	0
  7800  000F1C  0100               	movlb	0	; () banked
  7801  000F1E  6FE0               	movwf	(_rain_count+1)& (0+255),b
  7802  000F20  0E00               	movlw	0
  7803  000F22  6FDF               	movwf	_rain_count& (0+255),b
  7804                           
  7805                           ;weather-v2.c: 1717: wind_vel_data_h = (((int)wind_vel)/10)%10+48;
  7806  000F24  0E00               	movlw	0
  7807  000F26  0100               	movlb	0	; () banked
  7808  000F28  6FA7               	movwf	(i2___awdiv@divisor+1)& (0+255),b
  7809  000F2A  0E0A               	movlw	10
  7810  000F2C  6FA6               	movwf	i2___awdiv@divisor& (0+255),b
  7811  000F2E  C0E5  F095         	movff	_wind_vel,___fttol@f1
  7812  000F32  C0E6  F096         	movff	_wind_vel+1,___fttol@f1+1
  7813  000F36  C0E7  F097         	movff	_wind_vel+2,___fttol@f1+2
  7814  000F3A  EC69  F010         	call	___fttol	;wreg free
  7815  000F3E  C095  F0A4         	movff	?___fttol,i2___awdiv@dividend
  7816  000F42  C096  F0A5         	movff	?___fttol+1,i2___awdiv@dividend+1
  7817  000F46  EC3B  F014         	call	i2___awdiv	;wreg free
  7818  000F4A  C0A4  F0AC         	movff	?i2___awdiv,___awmod@dividend
  7819  000F4E  C0A5  F0AD         	movff	?i2___awdiv+1,___awmod@dividend+1
  7820  000F52  0E00               	movlw	0
  7821  000F54  0100               	movlb	0	; () banked
  7822  000F56  6FAF               	movwf	(___awmod@divisor+1)& (0+255),b
  7823  000F58  0E0A               	movlw	10
  7824  000F5A  6FAE               	movwf	___awmod@divisor& (0+255),b
  7825  000F5C  EC9A  F014         	call	___awmod	;wreg free
  7826  000F60  0100               	movlb	0	; () banked
  7827  000F62  51AC               	movf	?___awmod& (0+255),w,b
  7828  000F64  0F30               	addlw	48
  7829  000F66  6E37               	movwf	_wind_vel_data_h,c
  7830                           
  7831                           ;weather-v2.c: 1718: wind_vel_data_l = ((int)wind_vel)%10+48;
  7832  000F68  C0E5  F095         	movff	_wind_vel,___fttol@f1
  7833  000F6C  C0E6  F096         	movff	_wind_vel+1,___fttol@f1+1
  7834  000F70  C0E7  F097         	movff	_wind_vel+2,___fttol@f1+2
  7835  000F74  EC69  F010         	call	___fttol	;wreg free
  7836  000F78  C095  F0AC         	movff	?___fttol,___awmod@dividend
  7837  000F7C  C096  F0AD         	movff	?___fttol+1,___awmod@dividend+1
  7838  000F80  0E00               	movlw	0
  7839  000F82  0100               	movlb	0	; () banked
  7840  000F84  6FAF               	movwf	(___awmod@divisor+1)& (0+255),b
  7841  000F86  0E0A               	movlw	10
  7842  000F88  6FAE               	movwf	___awmod@divisor& (0+255),b
  7843  000F8A  EC9A  F014         	call	___awmod	;wreg free
  7844  000F8E  0100               	movlb	0	; () banked
  7845  000F90  51AC               	movf	?___awmod& (0+255),w,b
  7846  000F92  0F30               	addlw	48
  7847  000F94  6E38               	movwf	_wind_vel_data_l,c
  7848                           
  7849                           ;weather-v2.c: 1719: wind_vel_data_f = ((int)(wind_vel*10))%10+48;
  7850  000F96  0E00               	movlw	0
  7851  000F98  0100               	movlb	0	; () banked
  7852  000F9A  6F6E               	movwf	___ftmul@f2& (0+255),b
  7853  000F9C  0E20               	movlw	32
  7854  000F9E  0100               	movlb	0	; () banked
  7855  000FA0  6F6F               	movwf	(___ftmul@f2+1)& (0+255),b
  7856  000FA2  0E41               	movlw	65
  7857  000FA4  0100               	movlb	0	; () banked
  7858  000FA6  6F70               	movwf	(___ftmul@f2+2)& (0+255),b
  7859  000FA8  C0E5  F06B         	movff	_wind_vel,___ftmul@f1
  7860  000FAC  C0E6  F06C         	movff	_wind_vel+1,___ftmul@f1+1
  7861  000FB0  C0E7  F06D         	movff	_wind_vel+2,___ftmul@f1+2
  7862  000FB4  EC14  F00F         	call	___ftmul	;wreg free
  7863  000FB8  C06B  F095         	movff	?___ftmul,___fttol@f1
  7864  000FBC  C06C  F096         	movff	?___ftmul+1,___fttol@f1+1
  7865  000FC0  C06D  F097         	movff	?___ftmul+2,___fttol@f1+2
  7866  000FC4  EC69  F010         	call	___fttol	;wreg free
  7867  000FC8  C095  F0AC         	movff	?___fttol,___awmod@dividend
  7868  000FCC  C096  F0AD         	movff	?___fttol+1,___awmod@dividend+1
  7869  000FD0  0E00               	movlw	0
  7870  000FD2  0100               	movlb	0	; () banked
  7871  000FD4  6FAF               	movwf	(___awmod@divisor+1)& (0+255),b
  7872  000FD6  0E0A               	movlw	10
  7873  000FD8  6FAE               	movwf	___awmod@divisor& (0+255),b
  7874  000FDA  EC9A  F014         	call	___awmod	;wreg free
  7875  000FDE  0100               	movlb	0	; () banked
  7876  000FE0  51AC               	movf	?___awmod& (0+255),w,b
  7877  000FE2  0F30               	addlw	48
  7878  000FE4  6E36               	movwf	_wind_vel_data_f,c
  7879                           
  7880                           ; BSR set to: 0
  7881                           ;weather-v2.c: 1721: if(wind_dir_data==0)
  7882  000FE6  0100               	movlb	0	; () banked
  7883  000FE8  51D7               	movf	_wind_dir_data& (0+255),w,b
  7884  000FEA  0100               	movlb	0	; () banked
  7885  000FEC  11D8               	iorwf	(_wind_dir_data+1)& (0+255),w,b
  7886  000FEE  A4D8               	btfss	status,2,c
  7887  000FF0  D004               	goto	i2l6620
  7888                           
  7889                           ; BSR set to: 0
  7890                           ;weather-v2.c: 1722: {
  7891                           ;weather-v2.c: 1723: wind_dirH=' ' ;
  7892  000FF2  0E20               	movlw	32
  7893  000FF4  6E3F               	movwf	_wind_dirH,c
  7894                           
  7895                           ;weather-v2.c: 1724: wind_dirL='N' ;
  7896  000FF6  0E4E               	movlw	78
  7897  000FF8  D009               	goto	L3
  7898  000FFA                     i2l6620:
  7899                           
  7900                           ; BSR set to: 0
  7901                           ;weather-v2.c: 1726: else if(wind_dir_data==45)
  7902  000FFA  0E2D               	movlw	45
  7903  000FFC  0100               	movlb	0	; () banked
  7904  000FFE  19D7               	xorwf	_wind_dir_data& (0+255),w,b
  7905  001000  0100               	movlb	0	; () banked
  7906  001002  11D8               	iorwf	(_wind_dir_data+1)& (0+255),w,b
  7907  001004  A4D8               	btfss	status,2,c
  7908  001006  D004               	goto	i2l6624
  7909                           
  7910                           ; BSR set to: 0
  7911                           ;weather-v2.c: 1727: {
  7912                           ;weather-v2.c: 1728: wind_dirH='N' ;
  7913  001008  0E4E               	movlw	78
  7914  00100A  D013               	goto	L5
  7915  00100C                     L3:
  7916  00100C  6E40               	movwf	_wind_dirL,c
  7917                           
  7918                           ;weather-v2.c: 1730: }
  7919  00100E  D03E               	goto	i2l6648
  7920  001010                     i2l6624:
  7921                           
  7922                           ; BSR set to: 0
  7923                           ;weather-v2.c: 1731: else if(wind_dir_data==90)
  7924  001010  0E5A               	movlw	90
  7925  001012  0100               	movlb	0	; () banked
  7926  001014  19D7               	xorwf	_wind_dir_data& (0+255),w,b
  7927  001016  0100               	movlb	0	; () banked
  7928  001018  11D8               	iorwf	(_wind_dir_data+1)& (0+255),w,b
  7929  00101A  A4D8               	btfss	status,2,c
  7930  00101C  D002               	goto	i2l6628
  7931                           
  7932                           ; BSR set to: 0
  7933                           ;weather-v2.c: 1732: {
  7934                           ;weather-v2.c: 1733: wind_dirH=' ' ;
  7935  00101E  0E20               	movlw	32
  7936  001020  D008               	goto	L5
  7937  001022                     i2l6628:
  7938                           
  7939                           ; BSR set to: 0
  7940                           ;weather-v2.c: 1736: else if(wind_dir_data==135)
  7941  001022  0E87               	movlw	135
  7942  001024  0100               	movlb	0	; () banked
  7943  001026  19D7               	xorwf	_wind_dir_data& (0+255),w,b
  7944  001028  0100               	movlb	0	; () banked
  7945  00102A  11D8               	iorwf	(_wind_dir_data+1)& (0+255),w,b
  7946  00102C  A4D8               	btfss	status,2,c
  7947  00102E  D004               	goto	i2l6632
  7948                           
  7949                           ; BSR set to: 0
  7950                           ;weather-v2.c: 1737: {
  7951                           ;weather-v2.c: 1738: wind_dirH='S' ;
  7952  001030  0E53               	movlw	83
  7953  001032                     L5:
  7954  001032  6E3F               	movwf	_wind_dirH,c
  7955                           
  7956                           ;weather-v2.c: 1739: wind_dirL='E' ;
  7957  001034  0E45               	movlw	69
  7958  001036  D7EA               	goto	L3
  7959  001038                     i2l6632:
  7960                           
  7961                           ; BSR set to: 0
  7962                           ;weather-v2.c: 1741: else if(wind_dir_data==180)
  7963  001038  0EB4               	movlw	180
  7964  00103A  0100               	movlb	0	; () banked
  7965  00103C  19D7               	xorwf	_wind_dir_data& (0+255),w,b
  7966  00103E  0100               	movlb	0	; () banked
  7967  001040  11D8               	iorwf	(_wind_dir_data+1)& (0+255),w,b
  7968  001042  A4D8               	btfss	status,2,c
  7969  001044  D004               	goto	i2l6636
  7970                           
  7971                           ; BSR set to: 0
  7972                           ;weather-v2.c: 1742: {
  7973                           ;weather-v2.c: 1743: wind_dirH=' ' ;
  7974  001046  0E20               	movlw	32
  7975  001048  6E3F               	movwf	_wind_dirH,c
  7976                           
  7977                           ;weather-v2.c: 1744: wind_dirL='S' ;
  7978  00104A  0E53               	movlw	83
  7979  00104C  D7DF               	goto	L3
  7980  00104E                     i2l6636:
  7981                           
  7982                           ; BSR set to: 0
  7983                           ;weather-v2.c: 1746: else if(wind_dir_data==225)
  7984  00104E  0EE1               	movlw	225
  7985  001050  0100               	movlb	0	; () banked
  7986  001052  19D7               	xorwf	_wind_dir_data& (0+255),w,b
  7987  001054  0100               	movlb	0	; () banked
  7988  001056  11D8               	iorwf	(_wind_dir_data+1)& (0+255),w,b
  7989  001058  A4D8               	btfss	status,2,c
  7990  00105A  D002               	goto	i2l6640
  7991                           
  7992                           ; BSR set to: 0
  7993                           ;weather-v2.c: 1747: {
  7994                           ;weather-v2.c: 1748: wind_dirH='S' ;
  7995  00105C  0E53               	movlw	83
  7996  00105E  D013               	goto	L7
  7997  001060                     i2l6640:
  7998                           
  7999                           ; BSR set to: 0
  8000                           ;weather-v2.c: 1751: else if(wind_dir_data==270)
  8001  001060  0E0E               	movlw	14
  8002  001062  0100               	movlb	0	; () banked
  8003  001064  19D7               	xorwf	_wind_dir_data& (0+255),w,b
  8004  001066  E106               	bnz	i2l6644
  8005  001068  0100               	movlb	0	; () banked
  8006  00106A  05D8               	decf	(_wind_dir_data+1)& (0+255),w,b
  8007  00106C  A4D8               	btfss	status,2,c
  8008  00106E  D002               	goto	i2l6644
  8009                           
  8010                           ; BSR set to: 0
  8011                           ;weather-v2.c: 1752: {
  8012                           ;weather-v2.c: 1753: wind_dirH=' ' ;
  8013  001070  0E20               	movlw	32
  8014  001072  D009               	goto	L7
  8015  001074                     i2l6644:
  8016                           
  8017                           ; BSR set to: 0
  8018                           ;weather-v2.c: 1756: else if(wind_dir_data==315)
  8019  001074  0E3B               	movlw	59
  8020  001076  0100               	movlb	0	; () banked
  8021  001078  19D7               	xorwf	_wind_dir_data& (0+255),w,b
  8022  00107A  E108               	bnz	i2l6648
  8023  00107C  0100               	movlb	0	; () banked
  8024  00107E  05D8               	decf	(_wind_dir_data+1)& (0+255),w,b
  8025  001080  A4D8               	btfss	status,2,c
  8026  001082  D004               	goto	i2l6648
  8027                           
  8028                           ; BSR set to: 0
  8029                           ;weather-v2.c: 1757: {
  8030                           ;weather-v2.c: 1758: wind_dirH='N' ;
  8031  001084  0E4E               	movlw	78
  8032  001086                     L7:
  8033  001086  6E3F               	movwf	_wind_dirH,c
  8034                           
  8035                           ;weather-v2.c: 1759: wind_dirL='W' ;
  8036  001088  0E57               	movlw	87
  8037  00108A  D7C0               	goto	L3
  8038  00108C                     i2l6648:
  8039                           
  8040                           ;weather-v2.c: 1760: }
  8041                           ;weather-v2.c: 1765: }
  8042                           ;weather-v2.c: 1769: }
  8043                           ;weather-v2.c: 1771: if(INTCONbits.INT0IF)
  8044  00108C  A2F2               	btfss	intcon,1,c	;volatile
  8045  00108E  D004               	goto	i2l6654
  8046                           
  8047                           ;weather-v2.c: 1772: {
  8048                           ;weather-v2.c: 1774: INTCONbits.INT0IF = 0;
  8049  001090  92F2               	bcf	intcon,1,c	;volatile
  8050                           
  8051                           ;weather-v2.c: 1775: wind_count++ ;
  8052  001092  0100               	movlb	0	; () banked
  8053  001094  4BE1               	infsnz	_wind_count& (0+255),f,b
  8054  001096  2BE2               	incf	(_wind_count+1)& (0+255),f,b
  8055  001098                     i2l6654:
  8056                           
  8057                           ;weather-v2.c: 1777: }
  8058                           ;weather-v2.c: 1779: if(INTCON3bits.INT1F)
  8059  001098  A0F0               	btfss	intcon3,0,c	;volatile
  8060  00109A  D004               	goto	i2l783
  8061                           
  8062                           ;weather-v2.c: 1780: {
  8063                           ;weather-v2.c: 1782: INTCON3bits.INT1F = 0;
  8064  00109C  90F0               	bcf	intcon3,0,c	;volatile
  8065                           
  8066                           ;weather-v2.c: 1783: rain_count++ ;
  8067  00109E  0100               	movlb	0	; () banked
  8068  0010A0  4BDF               	infsnz	_rain_count& (0+255),f,b
  8069  0010A2  2BE0               	incf	(_rain_count+1)& (0+255),f,b
  8070  0010A4                     i2l783:
  8071  0010A4  0004               	clrwdt		;# 
  8072  0010A6  C0C3  FFF5         	movff	??_high_isr+17,tablat
  8073  0010AA  C0C2  FFF8         	movff	??_high_isr+16,tblptru
  8074  0010AE  C0C1  FFF7         	movff	??_high_isr+15,tblptrh
  8075  0010B2  C0C0  FFF6         	movff	??_high_isr+14,tblptrl
  8076  0010B6  C0BF  FFF4         	movff	??_high_isr+13,prodh
  8077  0010BA  C0BE  FFF3         	movff	??_high_isr+12,prodl
  8078  0010BE  C0BD  FFDA         	movff	??_high_isr+11,fsr2h
  8079  0010C2  C0BC  FFD9         	movff	??_high_isr+10,fsr2l
  8080  0010C6  C0BB  FFE2         	movff	??_high_isr+9,fsr1h
  8081  0010CA  C0BA  FFE1         	movff	??_high_isr+8,fsr1l
  8082  0010CE  C0B9  FFEA         	movff	??_high_isr+7,fsr0h
  8083  0010D2  C0B8  FFE9         	movff	??_high_isr+6,fsr0l
  8084  0010D6  C0B7  FFFB         	movff	??_high_isr+5,pclatu
  8085  0010DA  C0B6  FFFA         	movff	??_high_isr+4,pclath
  8086  0010DE  9241               	bcf	btemp,1,c	;clear compiler interrupt flag (level 2)
  8087  0010E0  0011               	retfie		f
  8088  0010E2                     __end_of_high_isr:
  8089                           	opt stack 0
  8090                           pclatu	equ	0xFFB
  8091                           pclath	equ	0xFFA
  8092                           tblptru	equ	0xFF8
  8093                           tblptrh	equ	0xFF7
  8094                           tblptrl	equ	0xFF6
  8095                           tablat	equ	0xFF5
  8096                           prodh	equ	0xFF4
  8097                           prodl	equ	0xFF3
  8098                           intcon	equ	0xFF2
  8099                           intcon2	equ	0xFF1
  8100                           intcon3	equ	0xFF0
  8101                           postinc0	equ	0xFEE
  8102                           fsr0h	equ	0xFEA
  8103                           fsr0l	equ	0xFE9
  8104                           wreg	equ	0xFE8
  8105                           postinc1	equ	0xFE6
  8106                           postdec1	equ	0xFE5
  8107                           fsr1h	equ	0xFE2
  8108                           fsr1l	equ	0xFE1
  8109                           bsr	equ	0xFE0
  8110                           indf2	equ	0xFDF
  8111                           postinc2	equ	0xFDE
  8112                           postdec2	equ	0xFDD
  8113                           fsr2h	equ	0xFDA
  8114                           fsr2l	equ	0xFD9
  8115                           status	equ	0xFD8
  8116                           
  8117 ;; *************** function i2___lwmod *****************
  8118 ;; Defined at:
  8119 ;;		line 8 in file "C:\Program Files\Microchip\xc8\v1.35\sources\common\lwmod.c"
  8120 ;; Parameters:    Size  Location     Type
  8121 ;;  dividend        2    7[BANK0 ] unsigned int 
  8122 ;;  divisor         2    9[BANK0 ] unsigned int 
  8123 ;; Auto vars:     Size  Location     Type
  8124 ;;  __lwmod         1   11[BANK0 ] unsigned char 
  8125 ;; Return value:  Size  Location     Type
  8126 ;;                  2    7[BANK0 ] unsigned int 
  8127 ;; Registers used:
  8128 ;;		wreg, status,2, status,0
  8129 ;; Tracked objects:
  8130 ;;		On entry : 0/0
  8131 ;;		On exit  : 0/0
  8132 ;;		Unchanged: 0/0
  8133 ;; Data sizes:     COMRAM   BANK0   BANK1   BANK2
  8134 ;;      Params:         0       4       0       0
  8135 ;;      Locals:         0       1       0       0
  8136 ;;      Temps:          0       0       0       0
  8137 ;;      Totals:         0       5       0       0
  8138 ;;Total ram usage:        5 bytes
  8139 ;; Hardware stack levels used:    1
  8140 ;; This function calls:
  8141 ;;		Nothing
  8142 ;; This function is called by:
  8143 ;;		_high_isr
  8144 ;; This function uses a non-reentrant model
  8145 ;;
  8146                           
  8147                           	psect	text28
  8148  002BB6                     __ptext28:
  8149                           	opt stack 0
  8150  002BB6                     i2___lwmod:
  8151                           	opt stack 21
  8152                           
  8153                           ;incstack = 0
  8154  002BB6  0100               	movlb	0	; () banked
  8155  002BB8  5169               	movf	i2___lwmod@divisor& (0+255),w,b
  8156  002BBA  0100               	movlb	0	; () banked
  8157  002BBC  116A               	iorwf	(i2___lwmod@divisor+1)& (0+255),w,b
  8158  002BBE  B4D8               	btfsc	status,2,c
  8159  002BC0  D026               	goto	i2l1213
  8160                           
  8161                           ; BSR set to: 0
  8162  002BC2  0E01               	movlw	1
  8163  002BC4  0100               	movlb	0	; () banked
  8164  002BC6  6F6B               	movwf	i2___lwmod@counter& (0+255),b
  8165  002BC8  D006               	goto	i2l6352
  8166  002BCA                     i2l6350:
  8167                           
  8168                           ; BSR set to: 0
  8169  002BCA  0100               	movlb	0	; () banked
  8170  002BCC  90D8               	bcf	status,0,c
  8171  002BCE  3769               	rlcf	i2___lwmod@divisor& (0+255),f,b
  8172  002BD0  376A               	rlcf	(i2___lwmod@divisor+1)& (0+255),f,b
  8173  002BD2  0100               	movlb	0	; () banked
  8174  002BD4  2B6B               	incf	i2___lwmod@counter& (0+255),f,b
  8175  002BD6                     i2l6352:
  8176                           
  8177                           ; BSR set to: 0
  8178  002BD6  0100               	movlb	0	; () banked
  8179  002BD8  AF6A               	btfss	(i2___lwmod@divisor+1)& (0+255),7,b
  8180  002BDA  D7F7               	goto	i2l6350
  8181  002BDC                     i2l6354:
  8182                           
  8183                           ; BSR set to: 0
  8184  002BDC  0100               	movlb	0	; () banked
  8185  002BDE  5169               	movf	i2___lwmod@divisor& (0+255),w,b
  8186  002BE0  0100               	movlb	0	; () banked
  8187  002BE2  5D67               	subwf	i2___lwmod@dividend& (0+255),w,b
  8188  002BE4  0100               	movlb	0	; () banked
  8189  002BE6  516A               	movf	(i2___lwmod@divisor+1)& (0+255),w,b
  8190  002BE8  0100               	movlb	0	; () banked
  8191  002BEA  5968               	subwfb	(i2___lwmod@dividend+1)& (0+255),w,b
  8192  002BEC  A0D8               	btfss	status,0,c
  8193  002BEE  D008               	goto	i2l6358
  8194                           
  8195                           ; BSR set to: 0
  8196  002BF0  0100               	movlb	0	; () banked
  8197  002BF2  5169               	movf	i2___lwmod@divisor& (0+255),w,b
  8198  002BF4  0100               	movlb	0	; () banked
  8199  002BF6  5F67               	subwf	i2___lwmod@dividend& (0+255),f,b
  8200  002BF8  0100               	movlb	0	; () banked
  8201  002BFA  516A               	movf	(i2___lwmod@divisor+1)& (0+255),w,b
  8202  002BFC  0100               	movlb	0	; () banked
  8203  002BFE  5B68               	subwfb	(i2___lwmod@dividend+1)& (0+255),f,b
  8204  002C00                     i2l6358:
  8205                           
  8206                           ; BSR set to: 0
  8207  002C00  0100               	movlb	0	; () banked
  8208  002C02  90D8               	bcf	status,0,c
  8209  002C04  336A               	rrcf	(i2___lwmod@divisor+1)& (0+255),f,b
  8210  002C06  3369               	rrcf	i2___lwmod@divisor& (0+255),f,b
  8211                           
  8212                           ; BSR set to: 0
  8213  002C08  0100               	movlb	0	; () banked
  8214  002C0A  2F6B               	decfsz	i2___lwmod@counter& (0+255),f,b
  8215  002C0C  D7E7               	goto	i2l6354
  8216  002C0E                     i2l1213:
  8217                           
  8218                           ; BSR set to: 0
  8219  002C0E  C067  F067         	movff	i2___lwmod@dividend,?i2___lwmod
  8220  002C12  C068  F068         	movff	i2___lwmod@dividend+1,?i2___lwmod+1
  8221                           
  8222                           ; BSR set to: 0
  8223  002C16  0012               	return		;funcret
  8224  002C18                     __end_ofi2___lwmod:
  8225                           	opt stack 0
  8226                           pclatu	equ	0xFFB
  8227                           pclath	equ	0xFFA
  8228                           tblptru	equ	0xFF8
  8229                           tblptrh	equ	0xFF7
  8230                           tblptrl	equ	0xFF6
  8231                           tablat	equ	0xFF5
  8232                           prodh	equ	0xFF4
  8233                           prodl	equ	0xFF3
  8234                           intcon	equ	0xFF2
  8235                           intcon2	equ	0xFF1
  8236                           intcon3	equ	0xFF0
  8237                           postinc0	equ	0xFEE
  8238                           fsr0h	equ	0xFEA
  8239                           fsr0l	equ	0xFE9
  8240                           wreg	equ	0xFE8
  8241                           postinc1	equ	0xFE6
  8242                           postdec1	equ	0xFE5
  8243                           fsr1h	equ	0xFE2
  8244                           fsr1l	equ	0xFE1
  8245                           bsr	equ	0xFE0
  8246                           indf2	equ	0xFDF
  8247                           postinc2	equ	0xFDE
  8248                           postdec2	equ	0xFDD
  8249                           fsr2h	equ	0xFDA
  8250                           fsr2l	equ	0xFD9
  8251                           status	equ	0xFD8
  8252                           
  8253 ;; *************** function i2___lwdiv *****************
  8254 ;; Defined at:
  8255 ;;		line 8 in file "C:\Program Files\Microchip\xc8\v1.35\sources\common\lwdiv.c"
  8256 ;; Parameters:    Size  Location     Type
  8257 ;;  dividend        2    0[BANK0 ] unsigned int 
  8258 ;;  divisor         2    2[BANK0 ] unsigned int 
  8259 ;; Auto vars:     Size  Location     Type
  8260 ;;  __lwdiv         2    5[BANK0 ] unsigned int 
  8261 ;;  __lwdiv         1    4[BANK0 ] unsigned char 
  8262 ;; Return value:  Size  Location     Type
  8263 ;;                  2    0[BANK0 ] unsigned int 
  8264 ;; Registers used:
  8265 ;;		wreg, status,2, status,0
  8266 ;; Tracked objects:
  8267 ;;		On entry : 0/0
  8268 ;;		On exit  : 0/0
  8269 ;;		Unchanged: 0/0
  8270 ;; Data sizes:     COMRAM   BANK0   BANK1   BANK2
  8271 ;;      Params:         0       4       0       0
  8272 ;;      Locals:         0       3       0       0
  8273 ;;      Temps:          0       0       0       0
  8274 ;;      Totals:         0       7       0       0
  8275 ;;Total ram usage:        7 bytes
  8276 ;; Hardware stack levels used:    1
  8277 ;; This function calls:
  8278 ;;		Nothing
  8279 ;; This function is called by:
  8280 ;;		_high_isr
  8281 ;; This function uses a non-reentrant model
  8282 ;;
  8283                           
  8284                           	psect	text29
  8285  002AD8                     __ptext29:
  8286                           	opt stack 0
  8287  002AD8                     i2___lwdiv:
  8288                           	opt stack 21
  8289                           
  8290                           ; BSR set to: 0
  8291                           ;incstack = 0
  8292  002AD8  0E00               	movlw	0
  8293  002ADA  0100               	movlb	0	; () banked
  8294  002ADC  6F66               	movwf	(i2___lwdiv@quotient+1)& (0+255),b
  8295  002ADE  0E00               	movlw	0
  8296  002AE0  6F65               	movwf	i2___lwdiv@quotient& (0+255),b
  8297                           
  8298                           ; BSR set to: 0
  8299  002AE2  0100               	movlb	0	; () banked
  8300  002AE4  5162               	movf	i2___lwdiv@divisor& (0+255),w,b
  8301  002AE6  0100               	movlb	0	; () banked
  8302  002AE8  1163               	iorwf	(i2___lwdiv@divisor+1)& (0+255),w,b
  8303  002AEA  B4D8               	btfsc	status,2,c
  8304  002AEC  D02C               	goto	i2l1203
  8305                           
  8306                           ; BSR set to: 0
  8307  002AEE  0E01               	movlw	1
  8308  002AF0  0100               	movlb	0	; () banked
  8309  002AF2  6F64               	movwf	i2___lwdiv@counter& (0+255),b
  8310  002AF4  D006               	goto	i2l6332
  8311  002AF6                     i2l6330:
  8312                           
  8313                           ; BSR set to: 0
  8314  002AF6  0100               	movlb	0	; () banked
  8315  002AF8  90D8               	bcf	status,0,c
  8316  002AFA  3762               	rlcf	i2___lwdiv@divisor& (0+255),f,b
  8317  002AFC  3763               	rlcf	(i2___lwdiv@divisor+1)& (0+255),f,b
  8318  002AFE  0100               	movlb	0	; () banked
  8319  002B00  2B64               	incf	i2___lwdiv@counter& (0+255),f,b
  8320  002B02                     i2l6332:
  8321                           
  8322                           ; BSR set to: 0
  8323  002B02  0100               	movlb	0	; () banked
  8324  002B04  AF63               	btfss	(i2___lwdiv@divisor+1)& (0+255),7,b
  8325  002B06  D7F7               	goto	i2l6330
  8326  002B08                     i2l6334:
  8327                           
  8328                           ; BSR set to: 0
  8329  002B08  0100               	movlb	0	; () banked
  8330  002B0A  90D8               	bcf	status,0,c
  8331  002B0C  3765               	rlcf	i2___lwdiv@quotient& (0+255),f,b
  8332  002B0E  3766               	rlcf	(i2___lwdiv@quotient+1)& (0+255),f,b
  8333                           
  8334                           ; BSR set to: 0
  8335  002B10  0100               	movlb	0	; () banked
  8336  002B12  5162               	movf	i2___lwdiv@divisor& (0+255),w,b
  8337  002B14  0100               	movlb	0	; () banked
  8338  002B16  5D60               	subwf	i2___lwdiv@dividend& (0+255),w,b
  8339  002B18  0100               	movlb	0	; () banked
  8340  002B1A  5163               	movf	(i2___lwdiv@divisor+1)& (0+255),w,b
  8341  002B1C  0100               	movlb	0	; () banked
  8342  002B1E  5961               	subwfb	(i2___lwdiv@dividend+1)& (0+255),w,b
  8343  002B20  A0D8               	btfss	status,0,c
  8344  002B22  D00A               	goto	i2l6342
  8345                           
  8346                           ; BSR set to: 0
  8347  002B24  0100               	movlb	0	; () banked
  8348  002B26  5162               	movf	i2___lwdiv@divisor& (0+255),w,b
  8349  002B28  0100               	movlb	0	; () banked
  8350  002B2A  5F60               	subwf	i2___lwdiv@dividend& (0+255),f,b
  8351  002B2C  0100               	movlb	0	; () banked
  8352  002B2E  5163               	movf	(i2___lwdiv@divisor+1)& (0+255),w,b
  8353  002B30  0100               	movlb	0	; () banked
  8354  002B32  5B61               	subwfb	(i2___lwdiv@dividend+1)& (0+255),f,b
  8355                           
  8356                           ; BSR set to: 0
  8357  002B34  0100               	movlb	0	; () banked
  8358  002B36  8165               	bsf	i2___lwdiv@quotient& (0+255),0,b
  8359  002B38                     i2l6342:
  8360                           
  8361                           ; BSR set to: 0
  8362  002B38  0100               	movlb	0	; () banked
  8363  002B3A  90D8               	bcf	status,0,c
  8364  002B3C  3363               	rrcf	(i2___lwdiv@divisor+1)& (0+255),f,b
  8365  002B3E  3362               	rrcf	i2___lwdiv@divisor& (0+255),f,b
  8366                           
  8367                           ; BSR set to: 0
  8368  002B40  0100               	movlb	0	; () banked
  8369  002B42  2F64               	decfsz	i2___lwdiv@counter& (0+255),f,b
  8370  002B44  D7E1               	goto	i2l6334
  8371  002B46                     i2l1203:
  8372                           
  8373                           ; BSR set to: 0
  8374  002B46  C065  F060         	movff	i2___lwdiv@quotient,?i2___lwdiv
  8375  002B4A  C066  F061         	movff	i2___lwdiv@quotient+1,?i2___lwdiv+1
  8376                           
  8377                           ; BSR set to: 0
  8378  002B4E  0012               	return		;funcret
  8379  002B50                     __end_ofi2___lwdiv:
  8380                           	opt stack 0
  8381                           pclatu	equ	0xFFB
  8382                           pclath	equ	0xFFA
  8383                           tblptru	equ	0xFF8
  8384                           tblptrh	equ	0xFF7
  8385                           tblptrl	equ	0xFF6
  8386                           tablat	equ	0xFF5
  8387                           prodh	equ	0xFF4
  8388                           prodl	equ	0xFF3
  8389                           intcon	equ	0xFF2
  8390                           intcon2	equ	0xFF1
  8391                           intcon3	equ	0xFF0
  8392                           postinc0	equ	0xFEE
  8393                           fsr0h	equ	0xFEA
  8394                           fsr0l	equ	0xFE9
  8395                           wreg	equ	0xFE8
  8396                           postinc1	equ	0xFE6
  8397                           postdec1	equ	0xFE5
  8398                           fsr1h	equ	0xFE2
  8399                           fsr1l	equ	0xFE1
  8400                           bsr	equ	0xFE0
  8401                           indf2	equ	0xFDF
  8402                           postinc2	equ	0xFDE
  8403                           postdec2	equ	0xFDD
  8404                           fsr2h	equ	0xFDA
  8405                           fsr2l	equ	0xFD9
  8406                           status	equ	0xFD8
  8407                           
  8408 ;; *************** function i2___awdiv *****************
  8409 ;; Defined at:
  8410 ;;		line 8 in file "C:\Program Files\Microchip\xc8\v1.35\sources\common\awdiv.c"
  8411 ;; Parameters:    Size  Location     Type
  8412 ;;  dividend        2   68[BANK0 ] int 
  8413 ;;  divisor         2   70[BANK0 ] int 
  8414 ;; Auto vars:     Size  Location     Type
  8415 ;;  __awdiv         2   74[BANK0 ] int 
  8416 ;;  __awdiv         1   73[BANK0 ] unsigned char 
  8417 ;;  __awdiv         1   72[BANK0 ] unsigned char 
  8418 ;; Return value:  Size  Location     Type
  8419 ;;                  2   68[BANK0 ] int 
  8420 ;; Registers used:
  8421 ;;		wreg, status,2, status,0
  8422 ;; Tracked objects:
  8423 ;;		On entry : 0/0
  8424 ;;		On exit  : 0/0
  8425 ;;		Unchanged: 0/0
  8426 ;; Data sizes:     COMRAM   BANK0   BANK1   BANK2
  8427 ;;      Params:         0       4       0       0
  8428 ;;      Locals:         0       4       0       0
  8429 ;;      Temps:          0       0       0       0
  8430 ;;      Totals:         0       8       0       0
  8431 ;;Total ram usage:        8 bytes
  8432 ;; Hardware stack levels used:    1
  8433 ;; This function calls:
  8434 ;;		Nothing
  8435 ;; This function is called by:
  8436 ;;		_high_isr
  8437 ;; This function uses a non-reentrant model
  8438 ;;
  8439                           
  8440                           	psect	text30
  8441  002876                     __ptext30:
  8442                           	opt stack 0
  8443  002876                     i2___awdiv:
  8444                           	opt stack 21
  8445                           
  8446                           ; BSR set to: 0
  8447                           ;incstack = 0
  8448  002876  0E00               	movlw	0
  8449  002878  0100               	movlb	0	; () banked
  8450  00287A  6FA9               	movwf	i2___awdiv@sign& (0+255),b
  8451                           
  8452                           ; BSR set to: 0
  8453  00287C  0100               	movlb	0	; () banked
  8454  00287E  AFA7               	btfss	(i2___awdiv@divisor+1)& (0+255),7,b
  8455  002880  D008               	goto	i2l6288
  8456                           
  8457                           ; BSR set to: 0
  8458  002882  0100               	movlb	0	; () banked
  8459  002884  6DA6               	negf	i2___awdiv@divisor& (0+255),b
  8460  002886  1FA7               	comf	(i2___awdiv@divisor+1)& (0+255),f,b
  8461  002888  B0D8               	btfsc	status,0,c
  8462  00288A  2BA7               	incf	(i2___awdiv@divisor+1)& (0+255),f,b
  8463                           
  8464                           ; BSR set to: 0
  8465  00288C  0E01               	movlw	1
  8466  00288E  0100               	movlb	0	; () banked
  8467  002890  6FA9               	movwf	i2___awdiv@sign& (0+255),b
  8468  002892                     i2l6288:
  8469                           
  8470                           ; BSR set to: 0
  8471  002892  0100               	movlb	0	; () banked
  8472  002894  AFA5               	btfss	(i2___awdiv@dividend+1)& (0+255),7,b
  8473  002896  D008               	goto	i2l6294
  8474                           
  8475                           ; BSR set to: 0
  8476  002898  0100               	movlb	0	; () banked
  8477  00289A  6DA4               	negf	i2___awdiv@dividend& (0+255),b
  8478  00289C  1FA5               	comf	(i2___awdiv@dividend+1)& (0+255),f,b
  8479  00289E  B0D8               	btfsc	status,0,c
  8480  0028A0  2BA5               	incf	(i2___awdiv@dividend+1)& (0+255),f,b
  8481                           
  8482                           ; BSR set to: 0
  8483  0028A2  0E01               	movlw	1
  8484  0028A4  0100               	movlb	0	; () banked
  8485  0028A6  1BA9               	xorwf	i2___awdiv@sign& (0+255),f,b
  8486  0028A8                     i2l6294:
  8487                           
  8488                           ; BSR set to: 0
  8489  0028A8  0E00               	movlw	0
  8490  0028AA  0100               	movlb	0	; () banked
  8491  0028AC  6FAB               	movwf	(i2___awdiv@quotient+1)& (0+255),b
  8492  0028AE  0E00               	movlw	0
  8493  0028B0  6FAA               	movwf	i2___awdiv@quotient& (0+255),b
  8494                           
  8495                           ; BSR set to: 0
  8496  0028B2  0100               	movlb	0	; () banked
  8497  0028B4  51A6               	movf	i2___awdiv@divisor& (0+255),w,b
  8498  0028B6  0100               	movlb	0	; () banked
  8499  0028B8  11A7               	iorwf	(i2___awdiv@divisor+1)& (0+255),w,b
  8500  0028BA  B4D8               	btfsc	status,2,c
  8501  0028BC  D02C               	goto	i2l6316
  8502                           
  8503                           ; BSR set to: 0
  8504  0028BE  0E01               	movlw	1
  8505  0028C0  0100               	movlb	0	; () banked
  8506  0028C2  6FA8               	movwf	i2___awdiv@counter& (0+255),b
  8507  0028C4  D006               	goto	i2l6302
  8508  0028C6                     i2l6300:
  8509                           
  8510                           ; BSR set to: 0
  8511  0028C6  0100               	movlb	0	; () banked
  8512  0028C8  90D8               	bcf	status,0,c
  8513  0028CA  37A6               	rlcf	i2___awdiv@divisor& (0+255),f,b
  8514  0028CC  37A7               	rlcf	(i2___awdiv@divisor+1)& (0+255),f,b
  8515  0028CE  0100               	movlb	0	; () banked
  8516  0028D0  2BA8               	incf	i2___awdiv@counter& (0+255),f,b
  8517  0028D2                     i2l6302:
  8518                           
  8519                           ; BSR set to: 0
  8520  0028D2  0100               	movlb	0	; () banked
  8521  0028D4  AFA7               	btfss	(i2___awdiv@divisor+1)& (0+255),7,b
  8522  0028D6  D7F7               	goto	i2l6300
  8523  0028D8                     i2l6304:
  8524                           
  8525                           ; BSR set to: 0
  8526  0028D8  0100               	movlb	0	; () banked
  8527  0028DA  90D8               	bcf	status,0,c
  8528  0028DC  37AA               	rlcf	i2___awdiv@quotient& (0+255),f,b
  8529  0028DE  37AB               	rlcf	(i2___awdiv@quotient+1)& (0+255),f,b
  8530                           
  8531                           ; BSR set to: 0
  8532  0028E0  0100               	movlb	0	; () banked
  8533  0028E2  51A6               	movf	i2___awdiv@divisor& (0+255),w,b
  8534  0028E4  0100               	movlb	0	; () banked
  8535  0028E6  5DA4               	subwf	i2___awdiv@dividend& (0+255),w,b
  8536  0028E8  0100               	movlb	0	; () banked
  8537  0028EA  51A7               	movf	(i2___awdiv@divisor+1)& (0+255),w,b
  8538  0028EC  0100               	movlb	0	; () banked
  8539  0028EE  59A5               	subwfb	(i2___awdiv@dividend+1)& (0+255),w,b
  8540  0028F0  A0D8               	btfss	status,0,c
  8541  0028F2  D00A               	goto	i2l6312
  8542                           
  8543                           ; BSR set to: 0
  8544  0028F4  0100               	movlb	0	; () banked
  8545  0028F6  51A6               	movf	i2___awdiv@divisor& (0+255),w,b
  8546  0028F8  0100               	movlb	0	; () banked
  8547  0028FA  5FA4               	subwf	i2___awdiv@dividend& (0+255),f,b
  8548  0028FC  0100               	movlb	0	; () banked
  8549  0028FE  51A7               	movf	(i2___awdiv@divisor+1)& (0+255),w,b
  8550  002900  0100               	movlb	0	; () banked
  8551  002902  5BA5               	subwfb	(i2___awdiv@dividend+1)& (0+255),f,b
  8552                           
  8553                           ; BSR set to: 0
  8554  002904  0100               	movlb	0	; () banked
  8555  002906  81AA               	bsf	i2___awdiv@quotient& (0+255),0,b
  8556  002908                     i2l6312:
  8557                           
  8558                           ; BSR set to: 0
  8559  002908  0100               	movlb	0	; () banked
  8560  00290A  90D8               	bcf	status,0,c
  8561  00290C  33A7               	rrcf	(i2___awdiv@divisor+1)& (0+255),f,b
  8562  00290E  33A6               	rrcf	i2___awdiv@divisor& (0+255),f,b
  8563                           
  8564                           ; BSR set to: 0
  8565  002910  0100               	movlb	0	; () banked
  8566  002912  2FA8               	decfsz	i2___awdiv@counter& (0+255),f,b
  8567  002914  D7E1               	goto	i2l6304
  8568  002916                     i2l6316:
  8569                           
  8570                           ; BSR set to: 0
  8571  002916  0100               	movlb	0	; () banked
  8572  002918  51A9               	movf	i2___awdiv@sign& (0+255),w,b
  8573  00291A  0100               	movlb	0	; () banked
  8574  00291C  B4D8               	btfsc	status,2,c
  8575  00291E  D005               	goto	i2l6320
  8576                           
  8577                           ; BSR set to: 0
  8578  002920  0100               	movlb	0	; () banked
  8579  002922  6DAA               	negf	i2___awdiv@quotient& (0+255),b
  8580  002924  1FAB               	comf	(i2___awdiv@quotient+1)& (0+255),f,b
  8581  002926  B0D8               	btfsc	status,0,c
  8582  002928  2BAB               	incf	(i2___awdiv@quotient+1)& (0+255),f,b
  8583  00292A                     i2l6320:
  8584                           
  8585                           ; BSR set to: 0
  8586  00292A  C0AA  F0A4         	movff	i2___awdiv@quotient,?i2___awdiv
  8587  00292E  C0AB  F0A5         	movff	i2___awdiv@quotient+1,?i2___awdiv+1
  8588  002932  0012               	return	
  8589  002934                     __end_ofi2___awdiv:
  8590                           	opt stack 0
  8591                           pclatu	equ	0xFFB
  8592                           pclath	equ	0xFFA
  8593                           tblptru	equ	0xFF8
  8594                           tblptrh	equ	0xFF7
  8595                           tblptrl	equ	0xFF6
  8596                           tablat	equ	0xFF5
  8597                           prodh	equ	0xFF4
  8598                           prodl	equ	0xFF3
  8599                           intcon	equ	0xFF2
  8600                           intcon2	equ	0xFF1
  8601                           intcon3	equ	0xFF0
  8602                           postinc0	equ	0xFEE
  8603                           fsr0h	equ	0xFEA
  8604                           fsr0l	equ	0xFE9
  8605                           wreg	equ	0xFE8
  8606                           postinc1	equ	0xFE6
  8607                           postdec1	equ	0xFE5
  8608                           fsr1h	equ	0xFE2
  8609                           fsr1l	equ	0xFE1
  8610                           bsr	equ	0xFE0
  8611                           indf2	equ	0xFDF
  8612                           postinc2	equ	0xFDE
  8613                           postdec2	equ	0xFDD
  8614                           fsr2h	equ	0xFDA
  8615                           fsr2l	equ	0xFD9
  8616                           status	equ	0xFD8
  8617                           
  8618 ;; *************** function _read_dsth01 *****************
  8619 ;; Defined at:
  8620 ;;		line 1024 in file "weather-v2.c"
  8621 ;; Parameters:    Size  Location     Type
  8622 ;;		None
  8623 ;; Auto vars:     Size  Location     Type
  8624 ;;		None
  8625 ;; Return value:  Size  Location     Type
  8626 ;;                  1    wreg      unsigned char 
  8627 ;; Registers used:
  8628 ;;		wreg, fsr2l, fsr2h, status,2, status,0, cstack
  8629 ;; Tracked objects:
  8630 ;;		On entry : 0/0
  8631 ;;		On exit  : 0/0
  8632 ;;		Unchanged: 0/0
  8633 ;; Data sizes:     COMRAM   BANK0   BANK1   BANK2
  8634 ;;      Params:         0       0       0       0
  8635 ;;      Locals:         0       0       0       0
  8636 ;;      Temps:          0       0       0       0
  8637 ;;      Totals:         0       0       0       0
  8638 ;;Total ram usage:        0 bytes
  8639 ;; Hardware stack levels used:    1
  8640 ;; Hardware stack levels required when called:    1
  8641 ;; This function calls:
  8642 ;;		_i2c_read
  8643 ;;		_i2c_write
  8644 ;; This function is called by:
  8645 ;;		_high_isr
  8646 ;; This function uses a non-reentrant model
  8647 ;;
  8648                           
  8649                           	psect	text31
  8650  002452                     __ptext31:
  8651                           	opt stack 0
  8652  002452                     _read_dsth01:
  8653                           	opt stack 20
  8654                           
  8655                           ;weather-v2.c: 1068: if(!i2c_write(0x03,0x11))
  8656                           
  8657                           ; BSR set to: 0
  8658                           ;incstack = 0
  8659  002452  0E11               	movlw	17
  8660  002454  0100               	movlb	0	; () banked
  8661  002456  6F60               	movwf	i2c_write@i2c_data& (0+255),b
  8662  002458  0E03               	movlw	3
  8663  00245A  EC14  F013         	call	_i2c_write
  8664  00245E  0900               	iorlw	0
  8665  002460  A4D8               	btfss	status,2,c
  8666  002462  D002               	goto	i2l5998
  8667                           
  8668                           ;weather-v2.c: 1069: return 1;
  8669  002464  0E01               	movlw	1
  8670  002466  0012               	return	
  8671  002468                     i2l5998:
  8672                           
  8673                           ;weather-v2.c: 1070: dsth01_status = 1;
  8674  002468  0E01               	movlw	1
  8675  00246A  6E39               	movwf	_dsth01_status,c
  8676                           
  8677                           ;weather-v2.c: 1072: while(dsth01_status)
  8678  00246C  D00E               	goto	i2l6006
  8679  00246E                     i2l6000:
  8680                           
  8681                           ;weather-v2.c: 1073: {
  8682                           ;weather-v2.c: 1074: if(!i2c_read(0x00, &dsth01_status))
  8683  00246E  0E39               	movlw	low _dsth01_status
  8684  002470  0100               	movlb	0	; () banked
  8685  002472  6F60               	movwf	i2c_read@i2c_data& (0+255),b
  8686  002474  0E00               	movlw	high _dsth01_status
  8687  002476  0100               	movlb	0	; () banked
  8688  002478  6F61               	movwf	(i2c_read@i2c_data+1)& (0+255),b
  8689  00247A  0E00               	movlw	0
  8690  00247C  EC0B  F011         	call	_i2c_read
  8691  002480  0900               	iorlw	0
  8692  002482  A4D8               	btfss	status,2,c
  8693  002484  D002               	goto	i2l6006
  8694                           
  8695                           ;weather-v2.c: 1075: return 2;
  8696  002486  0E02               	movlw	2
  8697  002488  0012               	return	
  8698  00248A                     i2l6006:
  8699  00248A  5039               	movf	_dsth01_status,w,c
  8700  00248C  A4D8               	btfss	status,2,c
  8701  00248E  D7EF               	goto	i2l6000
  8702                           
  8703                           ;weather-v2.c: 1076: }
  8704                           ;weather-v2.c: 1080: if(!i2c_read(0x01, &tempH))
  8705  002490  0E3C               	movlw	low _tempH
  8706  002492  0100               	movlb	0	; () banked
  8707  002494  6F60               	movwf	i2c_read@i2c_data& (0+255),b
  8708  002496  0E00               	movlw	high _tempH
  8709  002498  0100               	movlb	0	; () banked
  8710  00249A  6F61               	movwf	(i2c_read@i2c_data+1)& (0+255),b
  8711  00249C  0E01               	movlw	1
  8712  00249E  EC0B  F011         	call	_i2c_read
  8713  0024A2  0900               	iorlw	0
  8714  0024A4  A4D8               	btfss	status,2,c
  8715  0024A6  D002               	goto	i2l6014
  8716                           
  8717                           ;weather-v2.c: 1081: return 3;
  8718  0024A8  0E03               	movlw	3
  8719  0024AA  0012               	return	
  8720  0024AC                     i2l6014:
  8721                           
  8722                           ;weather-v2.c: 1083: if(!i2c_read(0x02, &tempL))
  8723  0024AC  0E3D               	movlw	low _tempL
  8724  0024AE  0100               	movlb	0	; () banked
  8725  0024B0  6F60               	movwf	i2c_read@i2c_data& (0+255),b
  8726  0024B2  0E00               	movlw	high _tempL
  8727  0024B4  0100               	movlb	0	; () banked
  8728  0024B6  6F61               	movwf	(i2c_read@i2c_data+1)& (0+255),b
  8729  0024B8  0E02               	movlw	2
  8730  0024BA  EC0B  F011         	call	_i2c_read
  8731  0024BE  0900               	iorlw	0
  8732  0024C0  A4D8               	btfss	status,2,c
  8733  0024C2  D002               	goto	i2l359
  8734                           
  8735                           ;weather-v2.c: 1084: return 4;
  8736  0024C4  0E04               	movlw	4
  8737  0024C6  0012               	return	
  8738  0024C8                     i2l359:
  8739                           
  8740                           ;weather-v2.c: 1089: PORTCbits.RC5 = 0 ;
  8741  0024C8  9A82               	bcf	3970,5,c	;volatile
  8742                           
  8743                           ;weather-v2.c: 1090: if(!i2c_write(0x03,0x01))
  8744  0024CA  0E01               	movlw	1
  8745  0024CC  0100               	movlb	0	; () banked
  8746  0024CE  6F60               	movwf	i2c_write@i2c_data& (0+255),b
  8747  0024D0  0E03               	movlw	3
  8748  0024D2  EC14  F013         	call	_i2c_write
  8749  0024D6  0900               	iorlw	0
  8750  0024D8  A4D8               	btfss	status,2,c
  8751  0024DA  D003               	goto	i2l6028
  8752                           
  8753                           ;weather-v2.c: 1091: {
  8754                           ;weather-v2.c: 1092: PORTCbits.RC5 = 1 ;
  8755  0024DC  8A82               	bsf	3970,5,c	;volatile
  8756                           
  8757                           ;weather-v2.c: 1093: return 5;
  8758  0024DE  0E05               	movlw	5
  8759  0024E0  0012               	return	
  8760  0024E2                     i2l6028:
  8761                           
  8762                           ;weather-v2.c: 1094: }
  8763                           ;weather-v2.c: 1096: dsth01_status = 1;
  8764  0024E2  0E01               	movlw	1
  8765  0024E4  6E39               	movwf	_dsth01_status,c
  8766                           
  8767                           ;weather-v2.c: 1097: while(dsth01_status)
  8768  0024E6  D00E               	goto	i2l6036
  8769  0024E8                     i2l6030:
  8770                           
  8771                           ;weather-v2.c: 1098: {
  8772                           ;weather-v2.c: 1099: if(!i2c_read(0x00, &dsth01_status))
  8773  0024E8  0E39               	movlw	low _dsth01_status
  8774  0024EA  0100               	movlb	0	; () banked
  8775  0024EC  6F60               	movwf	i2c_read@i2c_data& (0+255),b
  8776  0024EE  0E00               	movlw	high _dsth01_status
  8777  0024F0  0100               	movlb	0	; () banked
  8778  0024F2  6F61               	movwf	(i2c_read@i2c_data+1)& (0+255),b
  8779  0024F4  0E00               	movlw	0
  8780  0024F6  EC0B  F011         	call	_i2c_read
  8781  0024FA  0900               	iorlw	0
  8782  0024FC  A4D8               	btfss	status,2,c
  8783  0024FE  D002               	goto	i2l6036
  8784                           
  8785                           ;weather-v2.c: 1100: return 6;
  8786  002500  0E06               	movlw	6
  8787  002502  0012               	return	
  8788  002504                     i2l6036:
  8789  002504  5039               	movf	_dsth01_status,w,c
  8790  002506  A4D8               	btfss	status,2,c
  8791  002508  D7EF               	goto	i2l6030
  8792                           
  8793                           ;weather-v2.c: 1101: }
  8794                           ;weather-v2.c: 1102: if(!i2c_read(0x01, &humH))
  8795  00250A  0E3A               	movlw	low _humH
  8796  00250C  0100               	movlb	0	; () banked
  8797  00250E  6F60               	movwf	i2c_read@i2c_data& (0+255),b
  8798  002510  0E00               	movlw	high _humH
  8799  002512  0100               	movlb	0	; () banked
  8800  002514  6F61               	movwf	(i2c_read@i2c_data+1)& (0+255),b
  8801  002516  0E01               	movlw	1
  8802  002518  EC0B  F011         	call	_i2c_read
  8803  00251C  0900               	iorlw	0
  8804  00251E  A4D8               	btfss	status,2,c
  8805  002520  D002               	goto	i2l6044
  8806                           
  8807                           ;weather-v2.c: 1103: return 7;
  8808  002522  0E07               	movlw	7
  8809  002524  0012               	return	
  8810  002526                     i2l6044:
  8811                           
  8812                           ;weather-v2.c: 1104: if(!i2c_read(0x02, &humL))
  8813  002526  0E3B               	movlw	low _humL
  8814  002528  0100               	movlb	0	; () banked
  8815  00252A  6F60               	movwf	i2c_read@i2c_data& (0+255),b
  8816  00252C  0E00               	movlw	high _humL
  8817  00252E  0100               	movlb	0	; () banked
  8818  002530  6F61               	movwf	(i2c_read@i2c_data+1)& (0+255),b
  8819  002532  0E02               	movlw	2
  8820  002534  EC0B  F011         	call	_i2c_read
  8821  002538  0900               	iorlw	0
  8822  00253A  A4D8               	btfss	status,2,c
  8823  00253C  D002               	goto	i2l6050
  8824                           
  8825                           ;weather-v2.c: 1105: return 8;
  8826  00253E  0E08               	movlw	8
  8827  002540  0012               	return	
  8828  002542                     i2l6050:
  8829                           
  8830                           ;weather-v2.c: 1107: return 0;
  8831  002542  0E00               	movlw	0
  8832  002544  0012               	return	
  8833  002546                     __end_of_read_dsth01:
  8834                           	opt stack 0
  8835                           pclatu	equ	0xFFB
  8836                           pclath	equ	0xFFA
  8837                           tblptru	equ	0xFF8
  8838                           tblptrh	equ	0xFF7
  8839                           tblptrl	equ	0xFF6
  8840                           tablat	equ	0xFF5
  8841                           prodh	equ	0xFF4
  8842                           prodl	equ	0xFF3
  8843                           intcon	equ	0xFF2
  8844                           intcon2	equ	0xFF1
  8845                           intcon3	equ	0xFF0
  8846                           postinc0	equ	0xFEE
  8847                           fsr0h	equ	0xFEA
  8848                           fsr0l	equ	0xFE9
  8849                           wreg	equ	0xFE8
  8850                           postinc1	equ	0xFE6
  8851                           postdec1	equ	0xFE5
  8852                           fsr1h	equ	0xFE2
  8853                           fsr1l	equ	0xFE1
  8854                           bsr	equ	0xFE0
  8855                           indf2	equ	0xFDF
  8856                           postinc2	equ	0xFDE
  8857                           postdec2	equ	0xFDD
  8858                           fsr2h	equ	0xFDA
  8859                           fsr2l	equ	0xFD9
  8860                           status	equ	0xFD8
  8861                           
  8862 ;; *************** function _i2c_write *****************
  8863 ;; Defined at:
  8864 ;;		line 723 in file "weather-v2.c"
  8865 ;; Parameters:    Size  Location     Type
  8866 ;;  i2c_add         1    wreg     unsigned char 
  8867 ;;  i2c_data        1    0[BANK0 ] unsigned char 
  8868 ;; Auto vars:     Size  Location     Type
  8869 ;;  i2c_add         1    1[BANK0 ] unsigned char 
  8870 ;; Return value:  Size  Location     Type
  8871 ;;                  1    wreg      unsigned char 
  8872 ;; Registers used:
  8873 ;;		wreg, status,2
  8874 ;; Tracked objects:
  8875 ;;		On entry : 0/0
  8876 ;;		On exit  : 0/0
  8877 ;;		Unchanged: 0/0
  8878 ;; Data sizes:     COMRAM   BANK0   BANK1   BANK2
  8879 ;;      Params:         0       1       0       0
  8880 ;;      Locals:         0       1       0       0
  8881 ;;      Temps:          0       0       0       0
  8882 ;;      Totals:         0       2       0       0
  8883 ;;Total ram usage:        2 bytes
  8884 ;; Hardware stack levels used:    1
  8885 ;; This function calls:
  8886 ;;		Nothing
  8887 ;; This function is called by:
  8888 ;;		_read_dsth01
  8889 ;; This function uses a non-reentrant model
  8890 ;;
  8891                           
  8892                           	psect	text32
  8893  002628                     __ptext32:
  8894                           	opt stack 0
  8895  002628                     _i2c_write:
  8896                           	opt stack 20
  8897                           
  8898                           ;incstack = 0
  8899                           ;i2c_write@i2c_add stored from wreg
  8900  002628  0100               	movlb	0	; () banked
  8901  00262A  6F61               	movwf	i2c_write@i2c_add& (0+255),b
  8902                           
  8903                           ;weather-v2.c: 736: SSPCON2bits.RSEN = 0 ;
  8904  00262C  92C5               	bcf	4037,1,c	;volatile
  8905                           
  8906                           ;weather-v2.c: 737: PIR1bits.SSPIF = 0 ;
  8907  00262E  969E               	bcf	3998,3,c	;volatile
  8908                           
  8909                           ;weather-v2.c: 740: SSPCON2bits.SEN = 1 ;
  8910  002630  80C5               	bsf	4037,0,c	;volatile
  8911                           
  8912                           ;weather-v2.c: 742: T2CONbits.TMR2ON = 0;
  8913  002632  94CA               	bcf	4042,2,c	;volatile
  8914                           
  8915                           ;weather-v2.c: 743: PIR1bits.TMR2IF = 0;
  8916  002634  929E               	bcf	3998,1,c	;volatile
  8917                           
  8918                           ;weather-v2.c: 744: TMR2 = 0 ;
  8919  002636  0E00               	movlw	0
  8920  002638  6ECC               	movwf	4044,c	;volatile
  8921                           
  8922                           ;weather-v2.c: 745: T2CONbits.TMR2ON = 1;
  8923  00263A  84CA               	bsf	4042,2,c	;volatile
  8924                           
  8925                           ;weather-v2.c: 746: while(!PIR1bits.SSPIF)
  8926  00263C  D005               	goto	i2l279
  8927  00263E                     i2l280:
  8928                           
  8929                           ;weather-v2.c: 747: {
  8930                           ;weather-v2.c: 749: if(PIR1bits.TMR2IF)
  8931  00263E  A29E               	btfss	3998,1,c	;volatile
  8932  002640  D003               	goto	i2l279
  8933                           
  8934                           ;weather-v2.c: 750: {
  8935                           ;weather-v2.c: 751: SSPCON2bits.PEN = 1 ;
  8936  002642  84C5               	bsf	4037,2,c	;volatile
  8937                           
  8938                           ;weather-v2.c: 752: return 0;
  8939  002644  0E00               	movlw	0
  8940  002646  0012               	return	
  8941  002648                     i2l279:
  8942  002648  A69E               	btfss	3998,3,c	;volatile
  8943  00264A  D7F9               	goto	i2l280
  8944                           
  8945                           ;weather-v2.c: 753: }
  8946                           ;weather-v2.c: 754: }
  8947                           ;weather-v2.c: 755: PIR1bits.SSPIF = 0 ;
  8948  00264C  969E               	bcf	3998,3,c	;volatile
  8949                           
  8950                           ;weather-v2.c: 758: SSPBUF = 0x80;
  8951  00264E  0E80               	movlw	128
  8952  002650  6EC9               	movwf	4041,c	;volatile
  8953                           
  8954                           ;weather-v2.c: 761: T2CONbits.TMR2ON = 0;
  8955  002652  94CA               	bcf	4042,2,c	;volatile
  8956                           
  8957                           ;weather-v2.c: 762: PIR1bits.TMR2IF = 0;
  8958  002654  929E               	bcf	3998,1,c	;volatile
  8959                           
  8960                           ;weather-v2.c: 763: TMR2 = 0 ;
  8961  002656  0E00               	movlw	0
  8962  002658  6ECC               	movwf	4044,c	;volatile
  8963                           
  8964                           ;weather-v2.c: 764: T2CONbits.TMR2ON = 1;
  8965  00265A  84CA               	bsf	4042,2,c	;volatile
  8966                           
  8967                           ;weather-v2.c: 765: while(!PIR1bits.SSPIF)
  8968  00265C  D005               	goto	i2l284
  8969  00265E                     i2l285:
  8970                           
  8971                           ;weather-v2.c: 766: {
  8972                           ;weather-v2.c: 767: if(PIR1bits.TMR2IF)
  8973  00265E  A29E               	btfss	3998,1,c	;volatile
  8974  002660  D003               	goto	i2l284
  8975                           
  8976                           ;weather-v2.c: 768: {
  8977                           ;weather-v2.c: 769: SSPCON2bits.PEN = 1 ;
  8978  002662  84C5               	bsf	4037,2,c	;volatile
  8979                           
  8980                           ;weather-v2.c: 770: return 0;
  8981  002664  0E00               	movlw	0
  8982  002666  0012               	return	
  8983  002668                     i2l284:
  8984  002668  A69E               	btfss	3998,3,c	;volatile
  8985  00266A  D7F9               	goto	i2l285
  8986                           
  8987                           ;weather-v2.c: 771: }
  8988                           ;weather-v2.c: 772: }
  8989                           ;weather-v2.c: 773: PIR1bits.SSPIF = 0 ;
  8990  00266C  969E               	bcf	3998,3,c	;volatile
  8991                           
  8992                           ;weather-v2.c: 776: if(!SSPCON2bits.ACKSTAT)
  8993  00266E  BCC5               	btfsc	4037,6,c	;volatile
  8994  002670  D03B               	goto	i2l5538
  8995                           
  8996                           ;weather-v2.c: 777: {
  8997                           ;weather-v2.c: 778: SSPCON2bits.ACKSTAT = 1 ;
  8998  002672  8CC5               	bsf	4037,6,c	;volatile
  8999                           
  9000                           ;weather-v2.c: 781: SSPBUF = i2c_add ;
  9001  002674  C061  FFC9         	movff	i2c_write@i2c_add,4041	;volatile
  9002                           
  9003                           ;weather-v2.c: 783: T2CONbits.TMR2ON = 0;
  9004  002678  94CA               	bcf	4042,2,c	;volatile
  9005                           
  9006                           ;weather-v2.c: 784: PIR1bits.TMR2IF = 0;
  9007  00267A  929E               	bcf	3998,1,c	;volatile
  9008                           
  9009                           ;weather-v2.c: 785: TMR2 = 0 ;
  9010  00267C  0E00               	movlw	0
  9011  00267E  6ECC               	movwf	4044,c	;volatile
  9012                           
  9013                           ;weather-v2.c: 786: T2CONbits.TMR2ON = 1;
  9014  002680  84CA               	bsf	4042,2,c	;volatile
  9015                           
  9016                           ;weather-v2.c: 787: while(!PIR1bits.SSPIF)
  9017  002682  D005               	goto	i2l289
  9018  002684                     i2l290:
  9019                           
  9020                           ;weather-v2.c: 788: {
  9021                           ;weather-v2.c: 789: if(PIR1bits.TMR2IF)
  9022  002684  A29E               	btfss	3998,1,c	;volatile
  9023  002686  D003               	goto	i2l289
  9024                           
  9025                           ;weather-v2.c: 790: {
  9026                           ;weather-v2.c: 791: SSPCON2bits.PEN = 1 ;
  9027  002688  84C5               	bsf	4037,2,c	;volatile
  9028                           
  9029                           ;weather-v2.c: 792: return 0;
  9030  00268A  0E00               	movlw	0
  9031  00268C  0012               	return	
  9032  00268E                     i2l289:
  9033  00268E  A69E               	btfss	3998,3,c	;volatile
  9034  002690  D7F9               	goto	i2l290
  9035                           
  9036                           ;weather-v2.c: 793: }
  9037                           ;weather-v2.c: 794: }
  9038                           ;weather-v2.c: 795: PIR1bits.SSPIF = 0 ;
  9039  002692  969E               	bcf	3998,3,c	;volatile
  9040                           
  9041                           ;weather-v2.c: 798: if(!SSPCON2bits.ACKSTAT)
  9042  002694  BCC5               	btfsc	4037,6,c	;volatile
  9043  002696  D026               	goto	i2l5534
  9044                           
  9045                           ;weather-v2.c: 799: {
  9046                           ;weather-v2.c: 800: SSPCON2bits.ACKSTAT = 1 ;
  9047  002698  8CC5               	bsf	4037,6,c	;volatile
  9048                           
  9049                           ;weather-v2.c: 803: SSPBUF = i2c_data ;
  9050  00269A  C060  FFC9         	movff	i2c_write@i2c_data,4041	;volatile
  9051                           
  9052                           ;weather-v2.c: 805: T2CONbits.TMR2ON = 0;
  9053  00269E  94CA               	bcf	4042,2,c	;volatile
  9054                           
  9055                           ;weather-v2.c: 806: PIR1bits.TMR2IF = 0;
  9056  0026A0  929E               	bcf	3998,1,c	;volatile
  9057                           
  9058                           ;weather-v2.c: 807: TMR2 = 0 ;
  9059  0026A2  0E00               	movlw	0
  9060  0026A4  6ECC               	movwf	4044,c	;volatile
  9061                           
  9062                           ;weather-v2.c: 808: T2CONbits.TMR2ON = 1;
  9063  0026A6  84CA               	bsf	4042,2,c	;volatile
  9064                           
  9065                           ;weather-v2.c: 809: while(!PIR1bits.SSPIF)
  9066  0026A8  D005               	goto	i2l294
  9067  0026AA                     i2l295:
  9068                           
  9069                           ;weather-v2.c: 810: {
  9070                           ;weather-v2.c: 811: if(PIR1bits.TMR2IF)
  9071  0026AA  A29E               	btfss	3998,1,c	;volatile
  9072  0026AC  D003               	goto	i2l294
  9073                           
  9074                           ;weather-v2.c: 812: {
  9075                           ;weather-v2.c: 813: SSPCON2bits.PEN = 1 ;
  9076  0026AE  84C5               	bsf	4037,2,c	;volatile
  9077                           
  9078                           ;weather-v2.c: 814: return 0;
  9079  0026B0  0E00               	movlw	0
  9080  0026B2  0012               	return	
  9081  0026B4                     i2l294:
  9082  0026B4  A69E               	btfss	3998,3,c	;volatile
  9083  0026B6  D7F9               	goto	i2l295
  9084                           
  9085                           ;weather-v2.c: 815: }
  9086                           ;weather-v2.c: 816: }
  9087                           ;weather-v2.c: 817: PIR1bits.SSPIF = 0 ;
  9088  0026B8  969E               	bcf	3998,3,c	;volatile
  9089                           
  9090                           ;weather-v2.c: 820: if(!SSPCON2bits.ACKSTAT)
  9091  0026BA  BCC5               	btfsc	4037,6,c	;volatile
  9092  0026BC  D011               	goto	i2l5530
  9093                           
  9094                           ;weather-v2.c: 821: {
  9095                           ;weather-v2.c: 822: SSPCON2bits.ACKSTAT = 1 ;
  9096  0026BE  8CC5               	bsf	4037,6,c	;volatile
  9097                           
  9098                           ;weather-v2.c: 825: SSPCON2bits.PEN = 1 ;
  9099  0026C0  84C5               	bsf	4037,2,c	;volatile
  9100                           
  9101                           ;weather-v2.c: 827: T2CONbits.TMR2ON = 0;
  9102  0026C2  94CA               	bcf	4042,2,c	;volatile
  9103                           
  9104                           ;weather-v2.c: 828: PIR1bits.TMR2IF = 0;
  9105  0026C4  929E               	bcf	3998,1,c	;volatile
  9106                           
  9107                           ;weather-v2.c: 829: TMR2 = 0 ;
  9108  0026C6  0E00               	movlw	0
  9109  0026C8  6ECC               	movwf	4044,c	;volatile
  9110                           
  9111                           ;weather-v2.c: 830: T2CONbits.TMR2ON = 1;
  9112  0026CA  84CA               	bsf	4042,2,c	;volatile
  9113                           
  9114                           ;weather-v2.c: 831: while(!PIR1bits.SSPIF)
  9115  0026CC  D005               	goto	i2l299
  9116  0026CE                     i2l300:
  9117                           
  9118                           ;weather-v2.c: 832: {
  9119                           ;weather-v2.c: 833: if(PIR1bits.TMR2IF)
  9120  0026CE  A29E               	btfss	3998,1,c	;volatile
  9121  0026D0  D003               	goto	i2l299
  9122                           
  9123                           ;weather-v2.c: 834: {
  9124                           ;weather-v2.c: 835: SSPCON2bits.PEN = 1 ;
  9125  0026D2  84C5               	bsf	4037,2,c	;volatile
  9126                           
  9127                           ;weather-v2.c: 836: return 0;
  9128  0026D4  0E00               	movlw	0
  9129  0026D6  0012               	return	
  9130  0026D8                     i2l299:
  9131  0026D8  A69E               	btfss	3998,3,c	;volatile
  9132  0026DA  D7F9               	goto	i2l300
  9133                           
  9134                           ;weather-v2.c: 837: }
  9135                           ;weather-v2.c: 838: }
  9136                           ;weather-v2.c: 839: PIR1bits.SSPIF = 0 ;
  9137  0026DC  969E               	bcf	3998,3,c	;volatile
  9138                           
  9139                           ;weather-v2.c: 840: }
  9140  0026DE  D006               	goto	i2l5542
  9141  0026E0                     i2l5530:
  9142                           
  9143                           ;weather-v2.c: 841: else
  9144                           ;weather-v2.c: 842: return 0 ;
  9145  0026E0  0E00               	movlw	0
  9146  0026E2  0012               	return	
  9147  0026E4                     i2l5534:
  9148                           
  9149                           ;weather-v2.c: 844: else
  9150                           ;weather-v2.c: 845: return 0 ;
  9151  0026E4  0E00               	movlw	0
  9152  0026E6  0012               	return	
  9153  0026E8                     i2l5538:
  9154                           
  9155                           ;weather-v2.c: 847: else
  9156                           ;weather-v2.c: 848: return 0 ;
  9157  0026E8  0E00               	movlw	0
  9158  0026EA  0012               	return	
  9159  0026EC                     i2l5542:
  9160                           
  9161                           ;weather-v2.c: 850: return 1;
  9162  0026EC  0E01               	movlw	1
  9163  0026EE  0012               	return	
  9164  0026F0                     __end_of_i2c_write:
  9165                           	opt stack 0
  9166                           pclatu	equ	0xFFB
  9167                           pclath	equ	0xFFA
  9168                           tblptru	equ	0xFF8
  9169                           tblptrh	equ	0xFF7
  9170                           tblptrl	equ	0xFF6
  9171                           tablat	equ	0xFF5
  9172                           prodh	equ	0xFF4
  9173                           prodl	equ	0xFF3
  9174                           intcon	equ	0xFF2
  9175                           intcon2	equ	0xFF1
  9176                           intcon3	equ	0xFF0
  9177                           postinc0	equ	0xFEE
  9178                           fsr0h	equ	0xFEA
  9179                           fsr0l	equ	0xFE9
  9180                           wreg	equ	0xFE8
  9181                           postinc1	equ	0xFE6
  9182                           postdec1	equ	0xFE5
  9183                           fsr1h	equ	0xFE2
  9184                           fsr1l	equ	0xFE1
  9185                           bsr	equ	0xFE0
  9186                           indf2	equ	0xFDF
  9187                           postinc2	equ	0xFDE
  9188                           postdec2	equ	0xFDD
  9189                           fsr2h	equ	0xFDA
  9190                           fsr2l	equ	0xFD9
  9191                           status	equ	0xFD8
  9192                           
  9193 ;; *************** function _i2c_read *****************
  9194 ;; Defined at:
  9195 ;;		line 853 in file "weather-v2.c"
  9196 ;; Parameters:    Size  Location     Type
  9197 ;;  i2c_add         1    wreg     unsigned char 
  9198 ;;  i2c_data        2    0[BANK0 ] PTR unsigned char 
  9199 ;;		 -> dsth01_status(1), humH(1), humL(1), tempH(1), 
  9200 ;;		 -> tempL(1), 
  9201 ;; Auto vars:     Size  Location     Type
  9202 ;;  i2c_add         1    2[BANK0 ] unsigned char 
  9203 ;; Return value:  Size  Location     Type
  9204 ;;                  1    wreg      unsigned char 
  9205 ;; Registers used:
  9206 ;;		wreg, fsr2l, fsr2h, status,2
  9207 ;; Tracked objects:
  9208 ;;		On entry : 0/0
  9209 ;;		On exit  : 0/0
  9210 ;;		Unchanged: 0/0
  9211 ;; Data sizes:     COMRAM   BANK0   BANK1   BANK2
  9212 ;;      Params:         0       2       0       0
  9213 ;;      Locals:         0       1       0       0
  9214 ;;      Temps:          0       0       0       0
  9215 ;;      Totals:         0       3       0       0
  9216 ;;Total ram usage:        3 bytes
  9217 ;; Hardware stack levels used:    1
  9218 ;; This function calls:
  9219 ;;		Nothing
  9220 ;; This function is called by:
  9221 ;;		_read_dsth01
  9222 ;; This function uses a non-reentrant model
  9223 ;;
  9224                           
  9225                           	psect	text33
  9226  002216                     __ptext33:
  9227                           	opt stack 0
  9228  002216                     _i2c_read:
  9229                           	opt stack 20
  9230                           
  9231                           ;incstack = 0
  9232                           ;i2c_read@i2c_add stored from wreg
  9233  002216  0100               	movlb	0	; () banked
  9234  002218  6F62               	movwf	i2c_read@i2c_add& (0+255),b
  9235                           
  9236                           ;weather-v2.c: 868: SSPCON2bits.RCEN = 0 ;
  9237  00221A  96C5               	bcf	4037,3,c	;volatile
  9238                           
  9239                           ;weather-v2.c: 869: PIR1bits.SSPIF = 0 ;
  9240  00221C  969E               	bcf	3998,3,c	;volatile
  9241                           
  9242                           ;weather-v2.c: 870: SSPCON2bits.SEN = 1 ;
  9243  00221E  80C5               	bsf	4037,0,c	;volatile
  9244                           
  9245                           ;weather-v2.c: 873: T2CONbits.TMR2ON = 0;
  9246  002220  94CA               	bcf	4042,2,c	;volatile
  9247                           
  9248                           ;weather-v2.c: 874: PIR1bits.TMR2IF = 0;
  9249  002222  929E               	bcf	3998,1,c	;volatile
  9250                           
  9251                           ;weather-v2.c: 875: TMR2 = 0 ;
  9252  002224  0E00               	movlw	0
  9253  002226  6ECC               	movwf	4044,c	;volatile
  9254                           
  9255                           ;weather-v2.c: 876: T2CONbits.TMR2ON = 1;
  9256  002228  84CA               	bsf	4042,2,c	;volatile
  9257                           
  9258                           ;weather-v2.c: 877: while(!PIR1bits.SSPIF)
  9259  00222A  D005               	goto	i2l308
  9260  00222C                     i2l309:
  9261                           
  9262                           ;weather-v2.c: 878: {
  9263                           ;weather-v2.c: 879: if(PIR1bits.TMR2IF)
  9264  00222C  A29E               	btfss	3998,1,c	;volatile
  9265  00222E  D003               	goto	i2l308
  9266                           
  9267                           ;weather-v2.c: 880: {
  9268                           ;weather-v2.c: 881: SSPCON2bits.PEN = 1 ;
  9269  002230  84C5               	bsf	4037,2,c	;volatile
  9270                           
  9271                           ;weather-v2.c: 882: return 0;
  9272  002232  0E00               	movlw	0
  9273  002234  0012               	return	
  9274  002236                     i2l308:
  9275  002236  A69E               	btfss	3998,3,c	;volatile
  9276  002238  D7F9               	goto	i2l309
  9277                           
  9278                           ;weather-v2.c: 883: }
  9279                           ;weather-v2.c: 884: }
  9280                           ;weather-v2.c: 885: PIR1bits.SSPIF = 0 ;
  9281  00223A  969E               	bcf	3998,3,c	;volatile
  9282                           
  9283                           ;weather-v2.c: 886: SSPBUF = 0x80 ;
  9284  00223C  0E80               	movlw	128
  9285  00223E  6EC9               	movwf	4041,c	;volatile
  9286                           
  9287                           ;weather-v2.c: 889: T2CONbits.TMR2ON = 0;
  9288  002240  94CA               	bcf	4042,2,c	;volatile
  9289                           
  9290                           ;weather-v2.c: 890: PIR1bits.TMR2IF = 0;
  9291  002242  929E               	bcf	3998,1,c	;volatile
  9292                           
  9293                           ;weather-v2.c: 891: TMR2 = 0 ;
  9294  002244  0E00               	movlw	0
  9295  002246  6ECC               	movwf	4044,c	;volatile
  9296                           
  9297                           ;weather-v2.c: 892: T2CONbits.TMR2ON = 1;
  9298  002248  84CA               	bsf	4042,2,c	;volatile
  9299                           
  9300                           ;weather-v2.c: 893: while(!PIR1bits.SSPIF)
  9301  00224A  D005               	goto	i2l313
  9302  00224C                     i2l314:
  9303                           
  9304                           ;weather-v2.c: 894: {
  9305                           ;weather-v2.c: 895: if(PIR1bits.TMR2IF)
  9306  00224C  A29E               	btfss	3998,1,c	;volatile
  9307  00224E  D003               	goto	i2l313
  9308                           
  9309                           ;weather-v2.c: 896: {
  9310                           ;weather-v2.c: 897: SSPCON2bits.PEN = 1 ;
  9311  002250  84C5               	bsf	4037,2,c	;volatile
  9312                           
  9313                           ;weather-v2.c: 898: return 0;
  9314  002252  0E00               	movlw	0
  9315  002254  0012               	return	
  9316  002256                     i2l313:
  9317  002256  A69E               	btfss	3998,3,c	;volatile
  9318  002258  D7F9               	goto	i2l314
  9319                           
  9320                           ;weather-v2.c: 899: }
  9321                           ;weather-v2.c: 900: }
  9322                           ;weather-v2.c: 901: PIR1bits.SSPIF = 0 ;
  9323  00225A  969E               	bcf	3998,3,c	;volatile
  9324                           
  9325                           ;weather-v2.c: 903: if(!SSPCON2bits.ACKSTAT)
  9326  00225C  BCC5               	btfsc	4037,6,c	;volatile
  9327  00225E  D06F               	goto	i2l5660
  9328                           
  9329                           ;weather-v2.c: 904: {
  9330                           ;weather-v2.c: 905: SSPCON2bits.ACKSTAT = 1 ;
  9331  002260  8CC5               	bsf	4037,6,c	;volatile
  9332                           
  9333                           ;weather-v2.c: 906: SSPBUF = i2c_add ;
  9334  002262  C062  FFC9         	movff	i2c_read@i2c_add,4041	;volatile
  9335                           
  9336                           ;weather-v2.c: 908: T2CONbits.TMR2ON = 0;
  9337  002266  94CA               	bcf	4042,2,c	;volatile
  9338                           
  9339                           ;weather-v2.c: 909: PIR1bits.TMR2IF = 0;
  9340  002268  929E               	bcf	3998,1,c	;volatile
  9341                           
  9342                           ;weather-v2.c: 910: TMR2 = 0 ;
  9343  00226A  0E00               	movlw	0
  9344  00226C  6ECC               	movwf	4044,c	;volatile
  9345                           
  9346                           ;weather-v2.c: 911: T2CONbits.TMR2ON = 1;
  9347  00226E  84CA               	bsf	4042,2,c	;volatile
  9348                           
  9349                           ;weather-v2.c: 912: while(!PIR1bits.SSPIF)
  9350  002270  D005               	goto	i2l318
  9351  002272                     i2l319:
  9352                           
  9353                           ;weather-v2.c: 913: {
  9354                           ;weather-v2.c: 914: if(PIR1bits.TMR2IF)
  9355  002272  A29E               	btfss	3998,1,c	;volatile
  9356  002274  D003               	goto	i2l318
  9357                           
  9358                           ;weather-v2.c: 915: {
  9359                           ;weather-v2.c: 916: SSPCON2bits.PEN = 1 ;
  9360  002276  84C5               	bsf	4037,2,c	;volatile
  9361                           
  9362                           ;weather-v2.c: 917: return 0;
  9363  002278  0E00               	movlw	0
  9364  00227A  0012               	return	
  9365  00227C                     i2l318:
  9366  00227C  A69E               	btfss	3998,3,c	;volatile
  9367  00227E  D7F9               	goto	i2l319
  9368                           
  9369                           ;weather-v2.c: 918: }
  9370                           ;weather-v2.c: 919: }
  9371                           ;weather-v2.c: 920: PIR1bits.SSPIF = 0 ;
  9372  002280  969E               	bcf	3998,3,c	;volatile
  9373                           
  9374                           ;weather-v2.c: 922: if(!SSPCON2bits.ACKSTAT)
  9375  002282  BCC5               	btfsc	4037,6,c	;volatile
  9376  002284  D05A               	goto	i2l5656
  9377                           
  9378                           ;weather-v2.c: 923: {
  9379                           ;weather-v2.c: 924: SSPCON2bits.ACKSTAT = 1 ;
  9380  002286  8CC5               	bsf	4037,6,c	;volatile
  9381                           
  9382                           ;weather-v2.c: 925: SSPCON2bits.RSEN = 1 ;
  9383  002288  82C5               	bsf	4037,1,c	;volatile
  9384                           
  9385                           ;weather-v2.c: 927: T2CONbits.TMR2ON = 0;
  9386  00228A  94CA               	bcf	4042,2,c	;volatile
  9387                           
  9388                           ;weather-v2.c: 928: PIR1bits.TMR2IF = 0;
  9389  00228C  929E               	bcf	3998,1,c	;volatile
  9390                           
  9391                           ;weather-v2.c: 929: TMR2 = 0 ;
  9392  00228E  0E00               	movlw	0
  9393  002290  6ECC               	movwf	4044,c	;volatile
  9394                           
  9395                           ;weather-v2.c: 930: T2CONbits.TMR2ON = 1;
  9396  002292  84CA               	bsf	4042,2,c	;volatile
  9397                           
  9398                           ;weather-v2.c: 931: while(!PIR1bits.SSPIF)
  9399  002294  D005               	goto	i2l323
  9400  002296                     i2l324:
  9401                           
  9402                           ;weather-v2.c: 932: {
  9403                           ;weather-v2.c: 933: if(PIR1bits.TMR2IF)
  9404  002296  A29E               	btfss	3998,1,c	;volatile
  9405  002298  D003               	goto	i2l323
  9406                           
  9407                           ;weather-v2.c: 934: {
  9408                           ;weather-v2.c: 935: SSPCON2bits.PEN = 1 ;
  9409  00229A  84C5               	bsf	4037,2,c	;volatile
  9410                           
  9411                           ;weather-v2.c: 936: return 0;
  9412  00229C  0E00               	movlw	0
  9413  00229E  0012               	return	
  9414  0022A0                     i2l323:
  9415  0022A0  A69E               	btfss	3998,3,c	;volatile
  9416  0022A2  D7F9               	goto	i2l324
  9417                           
  9418                           ;weather-v2.c: 937: }
  9419                           ;weather-v2.c: 938: }
  9420                           ;weather-v2.c: 939: PIR1bits.SSPIF = 0 ;
  9421  0022A4  969E               	bcf	3998,3,c	;volatile
  9422                           
  9423                           ;weather-v2.c: 941: SSPBUF = 0x81 ;
  9424  0022A6  0E81               	movlw	129
  9425  0022A8  6EC9               	movwf	4041,c	;volatile
  9426                           
  9427                           ;weather-v2.c: 943: T2CONbits.TMR2ON = 0;
  9428  0022AA  94CA               	bcf	4042,2,c	;volatile
  9429                           
  9430                           ;weather-v2.c: 944: PIR1bits.TMR2IF = 0;
  9431  0022AC  929E               	bcf	3998,1,c	;volatile
  9432                           
  9433                           ;weather-v2.c: 945: TMR2 = 0 ;
  9434  0022AE  0E00               	movlw	0
  9435  0022B0  6ECC               	movwf	4044,c	;volatile
  9436                           
  9437                           ;weather-v2.c: 946: T2CONbits.TMR2ON = 1;
  9438  0022B2  84CA               	bsf	4042,2,c	;volatile
  9439                           
  9440                           ;weather-v2.c: 947: while(!PIR1bits.SSPIF)
  9441  0022B4  D005               	goto	i2l327
  9442  0022B6                     i2l328:
  9443                           
  9444                           ;weather-v2.c: 948: {
  9445                           ;weather-v2.c: 949: if(PIR1bits.TMR2IF)
  9446  0022B6  A29E               	btfss	3998,1,c	;volatile
  9447  0022B8  D003               	goto	i2l327
  9448                           
  9449                           ;weather-v2.c: 950: {
  9450                           ;weather-v2.c: 951: SSPCON2bits.PEN = 1 ;
  9451  0022BA  84C5               	bsf	4037,2,c	;volatile
  9452                           
  9453                           ;weather-v2.c: 952: return 0;
  9454  0022BC  0E00               	movlw	0
  9455  0022BE  0012               	return	
  9456  0022C0                     i2l327:
  9457  0022C0  A69E               	btfss	3998,3,c	;volatile
  9458  0022C2  D7F9               	goto	i2l328
  9459                           
  9460                           ;weather-v2.c: 953: }
  9461                           ;weather-v2.c: 954: }
  9462                           ;weather-v2.c: 955: PIR1bits.SSPIF = 0 ;
  9463  0022C4  969E               	bcf	3998,3,c	;volatile
  9464                           
  9465                           ;weather-v2.c: 957: if(!SSPCON2bits.ACKSTAT)
  9466  0022C6  BCC5               	btfsc	4037,6,c	;volatile
  9467  0022C8  D036               	goto	i2l5652
  9468                           
  9469                           ;weather-v2.c: 958: {
  9470                           ;weather-v2.c: 959: SSPCON2bits.ACKSTAT = 1 ;
  9471  0022CA  8CC5               	bsf	4037,6,c	;volatile
  9472  0022CC                     i2l332:
  9473  0022CC  B4C7               	btfsc	4039,2,c	;volatile
  9474  0022CE  D7FE               	goto	i2l332
  9475                           
  9476                           ;weather-v2.c: 961: SSPCON2bits.RCEN = 1 ;
  9477  0022D0  86C5               	bsf	4037,3,c	;volatile
  9478                           
  9479                           ;weather-v2.c: 963: PIR1bits.TMR2IF = 0;
  9480  0022D2  929E               	bcf	3998,1,c	;volatile
  9481                           
  9482                           ;weather-v2.c: 964: TMR2 = 0 ;
  9483  0022D4  0E00               	movlw	0
  9484  0022D6  6ECC               	movwf	4044,c	;volatile
  9485                           
  9486                           ;weather-v2.c: 965: T2CONbits.TMR2ON = 1;
  9487  0022D8  84CA               	bsf	4042,2,c	;volatile
  9488                           
  9489                           ;weather-v2.c: 966: while(!PIR1bits.SSPIF)
  9490  0022DA  D005               	goto	i2l335
  9491  0022DC                     i2l336:
  9492                           
  9493                           ;weather-v2.c: 967: {
  9494                           ;weather-v2.c: 968: if(PIR1bits.TMR2IF)
  9495  0022DC  A29E               	btfss	3998,1,c	;volatile
  9496  0022DE  D003               	goto	i2l335
  9497                           
  9498                           ;weather-v2.c: 969: {
  9499                           ;weather-v2.c: 970: SSPCON2bits.PEN = 1 ;
  9500  0022E0  84C5               	bsf	4037,2,c	;volatile
  9501                           
  9502                           ;weather-v2.c: 971: return 0;
  9503  0022E2  0E00               	movlw	0
  9504  0022E4  0012               	return	
  9505  0022E6                     i2l335:
  9506  0022E6  A69E               	btfss	3998,3,c	;volatile
  9507  0022E8  D7F9               	goto	i2l336
  9508                           
  9509                           ;weather-v2.c: 972: }
  9510                           ;weather-v2.c: 973: }
  9511                           ;weather-v2.c: 974: PIR1bits.SSPIF = 0 ;
  9512  0022EA  969E               	bcf	3998,3,c	;volatile
  9513                           
  9514                           ;weather-v2.c: 975: *i2c_data = SSPBUF ;
  9515  0022EC  C060  FFD9         	movff	i2c_read@i2c_data,fsr2l
  9516  0022F0  C061  FFDA         	movff	i2c_read@i2c_data+1,fsr2h
  9517  0022F4  CFC9 FFDF          	movff	4041,indf2	;volatile
  9518                           
  9519                           ;weather-v2.c: 979: SSPCON2bits.ACKDT=1;
  9520  0022F8  8AC5               	bsf	4037,5,c	;volatile
  9521                           
  9522                           ;weather-v2.c: 980: SSPCON2bits.ACKEN=1;
  9523  0022FA  88C5               	bsf	4037,4,c	;volatile
  9524                           
  9525                           ;weather-v2.c: 982: T2CONbits.TMR2ON = 0;
  9526  0022FC  94CA               	bcf	4042,2,c	;volatile
  9527                           
  9528                           ;weather-v2.c: 983: PIR1bits.TMR2IF = 0;
  9529  0022FE  929E               	bcf	3998,1,c	;volatile
  9530                           
  9531                           ;weather-v2.c: 984: TMR2 = 0 ;
  9532  002300  0E00               	movlw	0
  9533  002302  6ECC               	movwf	4044,c	;volatile
  9534                           
  9535                           ;weather-v2.c: 985: T2CONbits.TMR2ON = 1;
  9536  002304  84CA               	bsf	4042,2,c	;volatile
  9537                           
  9538                           ;weather-v2.c: 986: while(!PIR1bits.SSPIF)
  9539  002306  D005               	goto	i2l339
  9540  002308                     i2l340:
  9541                           
  9542                           ;weather-v2.c: 987: {
  9543                           ;weather-v2.c: 988: if(PIR1bits.TMR2IF)
  9544  002308  A29E               	btfss	3998,1,c	;volatile
  9545  00230A  D003               	goto	i2l339
  9546                           
  9547                           ;weather-v2.c: 989: {
  9548                           ;weather-v2.c: 990: SSPCON2bits.PEN = 1 ;
  9549  00230C  84C5               	bsf	4037,2,c	;volatile
  9550                           
  9551                           ;weather-v2.c: 991: return 0;
  9552  00230E  0E00               	movlw	0
  9553  002310  0012               	return	
  9554  002312                     i2l339:
  9555  002312  A69E               	btfss	3998,3,c	;volatile
  9556  002314  D7F9               	goto	i2l340
  9557                           
  9558                           ;weather-v2.c: 992: }
  9559                           ;weather-v2.c: 993: }
  9560                           ;weather-v2.c: 994: PIR1bits.SSPIF = 0 ;
  9561  002316  969E               	bcf	3998,3,c	;volatile
  9562                           
  9563                           ;weather-v2.c: 996: SSPCON2bits.PEN = 1 ;
  9564  002318  84C5               	bsf	4037,2,c	;volatile
  9565                           
  9566                           ;weather-v2.c: 998: PIR1bits.TMR2IF = 0;
  9567  00231A  929E               	bcf	3998,1,c	;volatile
  9568                           
  9569                           ;weather-v2.c: 999: TMR2 = 0 ;
  9570  00231C  0E00               	movlw	0
  9571  00231E  6ECC               	movwf	4044,c	;volatile
  9572                           
  9573                           ;weather-v2.c: 1000: T2CONbits.TMR2ON = 1;
  9574  002320  84CA               	bsf	4042,2,c	;volatile
  9575                           
  9576                           ;weather-v2.c: 1001: while(!PIR1bits.SSPIF)
  9577  002322  D005               	goto	i2l343
  9578  002324                     i2l344:
  9579                           
  9580                           ;weather-v2.c: 1002: {
  9581                           ;weather-v2.c: 1003: if(PIR1bits.TMR2IF)
  9582  002324  A29E               	btfss	3998,1,c	;volatile
  9583  002326  D003               	goto	i2l343
  9584                           
  9585                           ;weather-v2.c: 1004: {
  9586                           ;weather-v2.c: 1005: SSPCON2bits.PEN = 1 ;
  9587  002328  84C5               	bsf	4037,2,c	;volatile
  9588                           
  9589                           ;weather-v2.c: 1006: return 0;
  9590  00232A  0E00               	movlw	0
  9591  00232C  0012               	return	
  9592  00232E                     i2l343:
  9593  00232E  A69E               	btfss	3998,3,c	;volatile
  9594  002330  D7F9               	goto	i2l344
  9595                           
  9596                           ;weather-v2.c: 1007: }
  9597                           ;weather-v2.c: 1008: }
  9598                           ;weather-v2.c: 1009: PIR1bits.SSPIF = 0 ;
  9599  002332  969E               	bcf	3998,3,c	;volatile
  9600                           
  9601                           ;weather-v2.c: 1010: }
  9602  002334  D006               	goto	i2l5664
  9603  002336                     i2l5652:
  9604                           
  9605                           ;weather-v2.c: 1011: else
  9606                           ;weather-v2.c: 1012: return 0 ;
  9607  002336  0E00               	movlw	0
  9608  002338  0012               	return	
  9609  00233A                     i2l5656:
  9610                           
  9611                           ;weather-v2.c: 1014: else
  9612                           ;weather-v2.c: 1015: return 0 ;
  9613  00233A  0E00               	movlw	0
  9614  00233C  0012               	return	
  9615  00233E                     i2l5660:
  9616                           
  9617                           ;weather-v2.c: 1017: else
  9618                           ;weather-v2.c: 1018: return 0 ;
  9619  00233E  0E00               	movlw	0
  9620  002340  0012               	return	
  9621  002342                     i2l5664:
  9622                           
  9623                           ;weather-v2.c: 1020: return 1 ;
  9624  002342  0E01               	movlw	1
  9625  002344  0012               	return	
  9626  002346                     __end_of_i2c_read:
  9627                           	opt stack 0
  9628                           pclatu	equ	0xFFB
  9629                           pclath	equ	0xFFA
  9630                           tblptru	equ	0xFF8
  9631                           tblptrh	equ	0xFF7
  9632                           tblptrl	equ	0xFF6
  9633                           tablat	equ	0xFF5
  9634                           prodh	equ	0xFF4
  9635                           prodl	equ	0xFF3
  9636                           intcon	equ	0xFF2
  9637                           intcon2	equ	0xFF1
  9638                           intcon3	equ	0xFF0
  9639                           postinc0	equ	0xFEE
  9640                           fsr0h	equ	0xFEA
  9641                           fsr0l	equ	0xFE9
  9642                           wreg	equ	0xFE8
  9643                           postinc1	equ	0xFE6
  9644                           postdec1	equ	0xFE5
  9645                           fsr1h	equ	0xFE2
  9646                           fsr1l	equ	0xFE1
  9647                           bsr	equ	0xFE0
  9648                           indf2	equ	0xFDF
  9649                           postinc2	equ	0xFDE
  9650                           postdec2	equ	0xFDD
  9651                           fsr2h	equ	0xFDA
  9652                           fsr2l	equ	0xFD9
  9653                           status	equ	0xFD8
  9654                           
  9655 ;; *************** function ___lwtoft *****************
  9656 ;; Defined at:
  9657 ;;		line 28 in file "C:\Program Files\Microchip\xc8\v1.35\sources\common\lwtoft.c"
  9658 ;; Parameters:    Size  Location     Type
  9659 ;;  c               2    8[BANK0 ] unsigned int 
  9660 ;; Auto vars:     Size  Location     Type
  9661 ;;		None
  9662 ;; Return value:  Size  Location     Type
  9663 ;;                  3    8[BANK0 ] float 
  9664 ;; Registers used:
  9665 ;;		wreg, status,2, status,0, cstack
  9666 ;; Tracked objects:
  9667 ;;		On entry : 0/0
  9668 ;;		On exit  : 0/0
  9669 ;;		Unchanged: 0/0
  9670 ;; Data sizes:     COMRAM   BANK0   BANK1   BANK2
  9671 ;;      Params:         0       3       0       0
  9672 ;;      Locals:         0       0       0       0
  9673 ;;      Temps:          0       0       0       0
  9674 ;;      Totals:         0       3       0       0
  9675 ;;Total ram usage:        3 bytes
  9676 ;; Hardware stack levels used:    1
  9677 ;; Hardware stack levels required when called:    1
  9678 ;; This function calls:
  9679 ;;		___ftpack
  9680 ;; This function is called by:
  9681 ;;		_high_isr
  9682 ;; This function uses a non-reentrant model
  9683 ;;
  9684                           
  9685                           	psect	text34
  9686  003002                     __ptext34:
  9687                           	opt stack 0
  9688  003002                     ___lwtoft:
  9689                           	opt stack 20
  9690                           
  9691                           ;incstack = 0
  9692  003002  C068  F060         	movff	___lwtoft@c,___ftpack@arg
  9693  003006  C069  F061         	movff	___lwtoft@c+1,___ftpack@arg+1
  9694  00300A  0100               	movlb	0	; () banked
  9695  00300C  6B62               	clrf	(___ftpack@arg+2)& (0+255),b
  9696  00300E  0E8E               	movlw	142
  9697  003010  0100               	movlb	0	; () banked
  9698  003012  6F63               	movwf	___ftpack@exp& (0+255),b
  9699  003014  0E00               	movlw	0
  9700  003016  0100               	movlb	0	; () banked
  9701  003018  6F64               	movwf	___ftpack@sign& (0+255),b
  9702  00301A  ECA3  F011         	call	___ftpack	;wreg free
  9703  00301E  C060  F068         	movff	?___ftpack,?___lwtoft
  9704  003022  C061  F069         	movff	?___ftpack+1,?___lwtoft+1
  9705  003026  C062  F06A         	movff	?___ftpack+2,?___lwtoft+2
  9706  00302A  0012               	return	
  9707  00302C                     __end_of___lwtoft:
  9708                           	opt stack 0
  9709                           pclatu	equ	0xFFB
  9710                           pclath	equ	0xFFA
  9711                           tblptru	equ	0xFF8
  9712                           tblptrh	equ	0xFF7
  9713                           tblptrl	equ	0xFF6
  9714                           tablat	equ	0xFF5
  9715                           prodh	equ	0xFF4
  9716                           prodl	equ	0xFF3
  9717                           intcon	equ	0xFF2
  9718                           intcon2	equ	0xFF1
  9719                           intcon3	equ	0xFF0
  9720                           postinc0	equ	0xFEE
  9721                           fsr0h	equ	0xFEA
  9722                           fsr0l	equ	0xFE9
  9723                           wreg	equ	0xFE8
  9724                           postinc1	equ	0xFE6
  9725                           postdec1	equ	0xFE5
  9726                           fsr1h	equ	0xFE2
  9727                           fsr1l	equ	0xFE1
  9728                           bsr	equ	0xFE0
  9729                           indf2	equ	0xFDF
  9730                           postinc2	equ	0xFDE
  9731                           postdec2	equ	0xFDD
  9732                           fsr2h	equ	0xFDA
  9733                           fsr2l	equ	0xFD9
  9734                           status	equ	0xFD8
  9735                           
  9736 ;; *************** function ___fttol *****************
  9737 ;; Defined at:
  9738 ;;		line 44 in file "C:\Program Files\Microchip\xc8\v1.35\sources\common\fttol.c"
  9739 ;; Parameters:    Size  Location     Type
  9740 ;;  f1              3   53[BANK0 ] float 
  9741 ;; Auto vars:     Size  Location     Type
  9742 ;;  lval            4   63[BANK0 ] unsigned long 
  9743 ;;  exp1            1   67[BANK0 ] unsigned char 
  9744 ;;  sign1           1   62[BANK0 ] unsigned char 
  9745 ;; Return value:  Size  Location     Type
  9746 ;;                  4   53[BANK0 ] long 
  9747 ;; Registers used:
  9748 ;;		wreg, status,2, status,0
  9749 ;; Tracked objects:
  9750 ;;		On entry : 0/0
  9751 ;;		On exit  : 0/0
  9752 ;;		Unchanged: 0/0
  9753 ;; Data sizes:     COMRAM   BANK0   BANK1   BANK2
  9754 ;;      Params:         0       4       0       0
  9755 ;;      Locals:         0       6       0       0
  9756 ;;      Temps:          0       5       0       0
  9757 ;;      Totals:         0      15       0       0
  9758 ;;Total ram usage:       15 bytes
  9759 ;; Hardware stack levels used:    1
  9760 ;; This function calls:
  9761 ;;		Nothing
  9762 ;; This function is called by:
  9763 ;;		_high_isr
  9764 ;; This function uses a non-reentrant model
  9765 ;;
  9766                           
  9767                           	psect	text35
  9768  0020D2                     __ptext35:
  9769                           	opt stack 0
  9770  0020D2                     ___fttol:
  9771                           	opt stack 21
  9772                           
  9773                           ;incstack = 0
  9774  0020D2  C097  F099         	movff	___fttol@f1+2,??___fttol
  9775  0020D6  0100               	movlb	0	; () banked
  9776  0020D8  6B9A               	clrf	(??___fttol+1)& (0+255),b
  9777  0020DA  6B9B               	clrf	(??___fttol+2)& (0+255),b
  9778  0020DC  0100               	movlb	0	; () banked
  9779  0020DE  3596               	rlcf	(___fttol@f1+1)& (0+255),w,b
  9780  0020E0  0100               	movlb	0	; () banked
  9781  0020E2  3799               	rlcf	??___fttol& (0+255),f,b
  9782  0020E4  E301               	bnc	u566_41
  9783  0020E6  819A               	bsf	(??___fttol+1)& (0+255),0,b
  9784  0020E8                     u566_41:
  9785  0020E8  0100               	movlb	0	; () banked
  9786  0020EA  5199               	movf	??___fttol& (0+255),w,b
  9787  0020EC  0100               	movlb	0	; () banked
  9788  0020EE  6FA3               	movwf	___fttol@exp1& (0+255),b
  9789  0020F0  0100               	movlb	0	; () banked
  9790  0020F2  51A3               	movf	___fttol@exp1& (0+255),w,b
  9791  0020F4  A4D8               	btfss	status,2,c
  9792  0020F6  D00A               	goto	i2l4928
  9793                           
  9794                           ; BSR set to: 0
  9795  0020F8  0E00               	movlw	0
  9796  0020FA  0100               	movlb	0	; () banked
  9797  0020FC  6F95               	movwf	?___fttol& (0+255),b
  9798  0020FE  0E00               	movlw	0
  9799  002100  6F96               	movwf	(?___fttol+1)& (0+255),b
  9800  002102  0E00               	movlw	0
  9801  002104  6F97               	movwf	(?___fttol+2)& (0+255),b
  9802  002106  0E00               	movlw	0
  9803  002108  6F98               	movwf	(?___fttol+3)& (0+255),b
  9804                           
  9805                           ; BSR set to: 0
  9806  00210A  0012               	return	
  9807  00210C                     i2l4928:
  9808                           
  9809                           ; BSR set to: 0
  9810  00210C  0E17               	movlw	23
  9811  00210E  0100               	movlb	0	; () banked
  9812  002110  6F99               	movwf	??___fttol& (0+255),b
  9813  002112  C095  F09A         	movff	___fttol@f1,??___fttol+1
  9814  002116  C096  F09B         	movff	___fttol@f1+1,??___fttol+2
  9815  00211A  C097  F09C         	movff	___fttol@f1+2,??___fttol+3
  9816  00211E  0100               	movlb	0	; () banked
  9817  002120  2999               	incf	??___fttol& (0+255),w,b
  9818  002122  0100               	movlb	0	; () banked
  9819  002124  6F9D               	movwf	(??___fttol+4)& (0+255),b
  9820  002126  D005               	goto	i2u568_40
  9821  002128                     i2u568_45:
  9822  002128  0100               	movlb	0	; () banked
  9823  00212A  90D8               	bcf	status,0,c
  9824  00212C  339C               	rrcf	(??___fttol+3)& (0+255),f,b
  9825  00212E  339B               	rrcf	(??___fttol+2)& (0+255),f,b
  9826  002130  339A               	rrcf	(??___fttol+1)& (0+255),f,b
  9827  002132                     i2u568_40:
  9828  002132  0100               	movlb	0	; () banked
  9829  002134  2F9D               	decfsz	(??___fttol+4)& (0+255),f,b
  9830  002136  D7F8               	goto	i2u568_45
  9831  002138  0100               	movlb	0	; () banked
  9832  00213A  519A               	movf	(??___fttol+1)& (0+255),w,b
  9833  00213C  0100               	movlb	0	; () banked
  9834  00213E  6F9E               	movwf	___fttol@sign1& (0+255),b
  9835                           
  9836                           ; BSR set to: 0
  9837  002140  0100               	movlb	0	; () banked
  9838  002142  8F96               	bsf	(___fttol@f1+1)& (0+255),7,b
  9839                           
  9840                           ; BSR set to: 0
  9841  002144  0EFF               	movlw	255
  9842  002146  0100               	movlb	0	; () banked
  9843  002148  1795               	andwf	___fttol@f1& (0+255),f,b
  9844  00214A  0EFF               	movlw	255
  9845  00214C  0100               	movlb	0	; () banked
  9846  00214E  1796               	andwf	(___fttol@f1+1)& (0+255),f,b
  9847  002150  0E00               	movlw	0
  9848  002152  0100               	movlb	0	; () banked
  9849  002154  1797               	andwf	(___fttol@f1+2)& (0+255),f,b
  9850                           
  9851                           ; BSR set to: 0
  9852  002156  0100               	movlb	0	; () banked
  9853  002158  5195               	movf	___fttol@f1& (0+255),w,b
  9854  00215A  0100               	movlb	0	; () banked
  9855  00215C  6F9F               	movwf	___fttol@lval& (0+255),b
  9856  00215E  0100               	movlb	0	; () banked
  9857  002160  5196               	movf	(___fttol@f1+1)& (0+255),w,b
  9858  002162  0100               	movlb	0	; () banked
  9859  002164  6FA0               	movwf	(___fttol@lval+1)& (0+255),b
  9860  002166  0100               	movlb	0	; () banked
  9861  002168  5197               	movf	(___fttol@f1+2)& (0+255),w,b
  9862  00216A  0100               	movlb	0	; () banked
  9863  00216C  6FA1               	movwf	(___fttol@lval+2)& (0+255),b
  9864  00216E  0100               	movlb	0	; () banked
  9865  002170  6BA2               	clrf	(___fttol@lval+3)& (0+255),b
  9866                           
  9867                           ; BSR set to: 0
  9868  002172  0E8E               	movlw	142
  9869  002174  0100               	movlb	0	; () banked
  9870  002176  5FA3               	subwf	___fttol@exp1& (0+255),f,b
  9871                           
  9872                           ; BSR set to: 0
  9873  002178  0100               	movlb	0	; () banked
  9874  00217A  AFA3               	btfss	___fttol@exp1& (0+255),7,b
  9875  00217C  D01A               	goto	i2l4950
  9876                           
  9877                           ; BSR set to: 0
  9878  00217E  0100               	movlb	0	; () banked
  9879  002180  51A3               	movf	___fttol@exp1& (0+255),w,b
  9880  002182  0A80               	xorlw	128
  9881  002184  0F8F               	addlw	143
  9882  002186  B0D8               	btfsc	status,0,c
  9883  002188  D00A               	goto	i2l4946
  9884                           
  9885                           ; BSR set to: 0
  9886  00218A  0E00               	movlw	0
  9887  00218C  0100               	movlb	0	; () banked
  9888  00218E  6F95               	movwf	?___fttol& (0+255),b
  9889  002190  0E00               	movlw	0
  9890  002192  6F96               	movwf	(?___fttol+1)& (0+255),b
  9891  002194  0E00               	movlw	0
  9892  002196  6F97               	movwf	(?___fttol+2)& (0+255),b
  9893  002198  0E00               	movlw	0
  9894  00219A  6F98               	movwf	(?___fttol+3)& (0+255),b
  9895                           
  9896                           ; BSR set to: 0
  9897  00219C  0012               	return	
  9898  00219E                     i2l4946:
  9899                           
  9900                           ; BSR set to: 0
  9901  00219E  0100               	movlb	0	; () banked
  9902  0021A0  90D8               	bcf	status,0,c
  9903  0021A2  33A2               	rrcf	(___fttol@lval+3)& (0+255),f,b
  9904  0021A4  33A1               	rrcf	(___fttol@lval+2)& (0+255),f,b
  9905  0021A6  33A0               	rrcf	(___fttol@lval+1)& (0+255),f,b
  9906  0021A8  339F               	rrcf	___fttol@lval& (0+255),f,b
  9907                           
  9908                           ; BSR set to: 0
  9909  0021AA  0100               	movlb	0	; () banked
  9910  0021AC  3FA3               	incfsz	___fttol@exp1& (0+255),f,b
  9911  0021AE  D7F7               	goto	i2l4946
  9912                           
  9913                           ; BSR set to: 0
  9914  0021B0  D01B               	goto	i2l4960
  9915  0021B2                     i2l4950:
  9916                           
  9917                           ; BSR set to: 0
  9918  0021B2  0E17               	movlw	23
  9919  0021B4  0100               	movlb	0	; () banked
  9920  0021B6  65A3               	cpfsgt	___fttol@exp1& (0+255),b
  9921  0021B8  D012               	goto	i2l4958
  9922                           
  9923                           ; BSR set to: 0
  9924  0021BA  0E00               	movlw	0
  9925  0021BC  0100               	movlb	0	; () banked
  9926  0021BE  6F95               	movwf	?___fttol& (0+255),b
  9927  0021C0  0E00               	movlw	0
  9928  0021C2  6F96               	movwf	(?___fttol+1)& (0+255),b
  9929  0021C4  0E00               	movlw	0
  9930  0021C6  6F97               	movwf	(?___fttol+2)& (0+255),b
  9931  0021C8  0E00               	movlw	0
  9932  0021CA  6F98               	movwf	(?___fttol+3)& (0+255),b
  9933                           
  9934                           ; BSR set to: 0
  9935  0021CC  0012               	return	
  9936  0021CE                     i2l4956:
  9937                           
  9938                           ; BSR set to: 0
  9939  0021CE  0100               	movlb	0	; () banked
  9940  0021D0  90D8               	bcf	status,0,c
  9941  0021D2  379F               	rlcf	___fttol@lval& (0+255),f,b
  9942  0021D4  37A0               	rlcf	(___fttol@lval+1)& (0+255),f,b
  9943  0021D6  37A1               	rlcf	(___fttol@lval+2)& (0+255),f,b
  9944  0021D8  37A2               	rlcf	(___fttol@lval+3)& (0+255),f,b
  9945  0021DA  0100               	movlb	0	; () banked
  9946  0021DC  07A3               	decf	___fttol@exp1& (0+255),f,b
  9947  0021DE                     i2l4958:
  9948                           
  9949                           ; BSR set to: 0
  9950  0021DE  0100               	movlb	0	; () banked
  9951  0021E0  51A3               	movf	___fttol@exp1& (0+255),w,b
  9952  0021E2  0100               	movlb	0	; () banked
  9953  0021E4  A4D8               	btfss	status,2,c
  9954  0021E6  D7F3               	goto	i2l4956
  9955  0021E8                     i2l4960:
  9956                           
  9957                           ; BSR set to: 0
  9958  0021E8  0100               	movlb	0	; () banked
  9959  0021EA  519E               	movf	___fttol@sign1& (0+255),w,b
  9960  0021EC  0100               	movlb	0	; () banked
  9961  0021EE  B4D8               	btfsc	status,2,c
  9962  0021F0  D009               	goto	i2l4964
  9963                           
  9964                           ; BSR set to: 0
  9965  0021F2  0100               	movlb	0	; () banked
  9966  0021F4  1FA2               	comf	(___fttol@lval+3)& (0+255),f,b
  9967  0021F6  1FA1               	comf	(___fttol@lval+2)& (0+255),f,b
  9968  0021F8  1FA0               	comf	(___fttol@lval+1)& (0+255),f,b
  9969  0021FA  6D9F               	negf	___fttol@lval& (0+255),b
  9970  0021FC  0E00               	movlw	0
  9971  0021FE  23A0               	addwfc	(___fttol@lval+1)& (0+255),f,b
  9972  002200  23A1               	addwfc	(___fttol@lval+2)& (0+255),f,b
  9973  002202  23A2               	addwfc	(___fttol@lval+3)& (0+255),f,b
  9974  002204                     i2l4964:
  9975                           
  9976                           ; BSR set to: 0
  9977  002204  C09F  F095         	movff	___fttol@lval,?___fttol
  9978  002208  C0A0  F096         	movff	___fttol@lval+1,?___fttol+1
  9979  00220C  C0A1  F097         	movff	___fttol@lval+2,?___fttol+2
  9980  002210  C0A2  F098         	movff	___fttol@lval+3,?___fttol+3
  9981  002214  0012               	return	
  9982  002216                     __end_of___fttol:
  9983                           	opt stack 0
  9984                           pclatu	equ	0xFFB
  9985                           pclath	equ	0xFFA
  9986                           tblptru	equ	0xFF8
  9987                           tblptrh	equ	0xFF7
  9988                           tblptrl	equ	0xFF6
  9989                           tablat	equ	0xFF5
  9990                           prodh	equ	0xFF4
  9991                           prodl	equ	0xFF3
  9992                           intcon	equ	0xFF2
  9993                           intcon2	equ	0xFF1
  9994                           intcon3	equ	0xFF0
  9995                           postinc0	equ	0xFEE
  9996                           fsr0h	equ	0xFEA
  9997                           fsr0l	equ	0xFE9
  9998                           wreg	equ	0xFE8
  9999                           postinc1	equ	0xFE6
 10000                           postdec1	equ	0xFE5
 10001                           fsr1h	equ	0xFE2
 10002                           fsr1l	equ	0xFE1
 10003                           bsr	equ	0xFE0
 10004                           indf2	equ	0xFDF
 10005                           postinc2	equ	0xFDE
 10006                           postdec2	equ	0xFDD
 10007                           fsr2h	equ	0xFDA
 10008                           fsr2l	equ	0xFD9
 10009                           status	equ	0xFD8
 10010                           
 10011 ;; *************** function ___ftneg *****************
 10012 ;; Defined at:
 10013 ;;		line 15 in file "C:\Program Files\Microchip\xc8\v1.35\sources\common\ftneg.c"
 10014 ;; Parameters:    Size  Location     Type
 10015 ;;  f1              3    0[BANK0 ] float 
 10016 ;; Auto vars:     Size  Location     Type
 10017 ;;		None
 10018 ;; Return value:  Size  Location     Type
 10019 ;;                  3    0[BANK0 ] float 
 10020 ;; Registers used:
 10021 ;;		wreg, status,2, status,0
 10022 ;; Tracked objects:
 10023 ;;		On entry : 0/0
 10024 ;;		On exit  : 0/0
 10025 ;;		Unchanged: 0/0
 10026 ;; Data sizes:     COMRAM   BANK0   BANK1   BANK2
 10027 ;;      Params:         0       3       0       0
 10028 ;;      Locals:         0       0       0       0
 10029 ;;      Temps:          0       0       0       0
 10030 ;;      Totals:         0       3       0       0
 10031 ;;Total ram usage:        3 bytes
 10032 ;; Hardware stack levels used:    1
 10033 ;; This function calls:
 10034 ;;		Nothing
 10035 ;; This function is called by:
 10036 ;;		_high_isr
 10037 ;; This function uses a non-reentrant model
 10038 ;;
 10039                           
 10040                           	psect	text36
 10041  002FD2                     __ptext36:
 10042                           	opt stack 0
 10043  002FD2                     ___ftneg:
 10044                           	opt stack 21
 10045                           
 10046                           ; BSR set to: 0
 10047                           ;incstack = 0
 10048  002FD2  0100               	movlb	0	; () banked
 10049  002FD4  5160               	movf	___ftneg@f1& (0+255),w,b
 10050  002FD6  0100               	movlb	0	; () banked
 10051  002FD8  1161               	iorwf	(___ftneg@f1+1)& (0+255),w,b
 10052  002FDA  0100               	movlb	0	; () banked
 10053  002FDC  1162               	iorwf	(___ftneg@f1+2)& (0+255),w,b
 10054  002FDE  B4D8               	btfsc	status,2,c
 10055  002FE0  D009               	goto	i2l1105
 10056                           
 10057                           ; BSR set to: 0
 10058  002FE2  0E00               	movlw	0
 10059  002FE4  0100               	movlb	0	; () banked
 10060  002FE6  1B60               	xorwf	___ftneg@f1& (0+255),f,b
 10061  002FE8  0E00               	movlw	0
 10062  002FEA  0100               	movlb	0	; () banked
 10063  002FEC  1B61               	xorwf	(___ftneg@f1+1)& (0+255),f,b
 10064  002FEE  0E80               	movlw	128
 10065  002FF0  0100               	movlb	0	; () banked
 10066  002FF2  1B62               	xorwf	(___ftneg@f1+2)& (0+255),f,b
 10067  002FF4                     i2l1105:
 10068                           
 10069                           ; BSR set to: 0
 10070  002FF4  C060  F060         	movff	___ftneg@f1,?___ftneg
 10071  002FF8  C061  F061         	movff	___ftneg@f1+1,?___ftneg+1
 10072  002FFC  C062  F062         	movff	___ftneg@f1+2,?___ftneg+2
 10073                           
 10074                           ; BSR set to: 0
 10075  003000  0012               	return		;funcret
 10076  003002                     __end_of___ftneg:
 10077                           	opt stack 0
 10078                           pclatu	equ	0xFFB
 10079                           pclath	equ	0xFFA
 10080                           tblptru	equ	0xFF8
 10081                           tblptrh	equ	0xFF7
 10082                           tblptrl	equ	0xFF6
 10083                           tablat	equ	0xFF5
 10084                           prodh	equ	0xFF4
 10085                           prodl	equ	0xFF3
 10086                           intcon	equ	0xFF2
 10087                           intcon2	equ	0xFF1
 10088                           intcon3	equ	0xFF0
 10089                           postinc0	equ	0xFEE
 10090                           fsr0h	equ	0xFEA
 10091                           fsr0l	equ	0xFE9
 10092                           wreg	equ	0xFE8
 10093                           postinc1	equ	0xFE6
 10094                           postdec1	equ	0xFE5
 10095                           fsr1h	equ	0xFE2
 10096                           fsr1l	equ	0xFE1
 10097                           bsr	equ	0xFE0
 10098                           indf2	equ	0xFDF
 10099                           postinc2	equ	0xFDE
 10100                           postdec2	equ	0xFDD
 10101                           fsr2h	equ	0xFDA
 10102                           fsr2l	equ	0xFD9
 10103                           status	equ	0xFD8
 10104                           
 10105 ;; *************** function ___ftmul *****************
 10106 ;; Defined at:
 10107 ;;		line 62 in file "C:\Program Files\Microchip\xc8\v1.35\sources\common\ftmul.c"
 10108 ;; Parameters:    Size  Location     Type
 10109 ;;  f1              3   11[BANK0 ] float 
 10110 ;;  f2              3   14[BANK0 ] float 
 10111 ;; Auto vars:     Size  Location     Type
 10112 ;;  f3_as_produc    3   21[BANK0 ] unsigned um
 10113 ;;  sign            1   25[BANK0 ] unsigned char 
 10114 ;;  cntr            1   24[BANK0 ] unsigned char 
 10115 ;;  exp             1   20[BANK0 ] unsigned char 
 10116 ;; Return value:  Size  Location     Type
 10117 ;;                  3   11[BANK0 ] float 
 10118 ;; Registers used:
 10119 ;;		wreg, status,2, status,0, cstack
 10120 ;; Tracked objects:
 10121 ;;		On entry : 0/0
 10122 ;;		On exit  : 0/0
 10123 ;;		Unchanged: 0/0
 10124 ;; Data sizes:     COMRAM   BANK0   BANK1   BANK2
 10125 ;;      Params:         0       6       0       0
 10126 ;;      Locals:         0       6       0       0
 10127 ;;      Temps:          0       3       0       0
 10128 ;;      Totals:         0      15       0       0
 10129 ;;Total ram usage:       15 bytes
 10130 ;; Hardware stack levels used:    1
 10131 ;; Hardware stack levels required when called:    1
 10132 ;; This function calls:
 10133 ;;		___ftpack
 10134 ;; This function is called by:
 10135 ;;		_high_isr
 10136 ;; This function uses a non-reentrant model
 10137 ;;
 10138                           
 10139                           	psect	text37
 10140  001E28                     __ptext37:
 10141                           	opt stack 0
 10142  001E28                     ___ftmul:
 10143                           	opt stack 20
 10144                           
 10145                           ; BSR set to: 0
 10146                           ;incstack = 0
 10147  001E28  C06D  F071         	movff	___ftmul@f1+2,??___ftmul
 10148  001E2C  0100               	movlb	0	; () banked
 10149  001E2E  6B72               	clrf	(??___ftmul+1)& (0+255),b
 10150  001E30  6B73               	clrf	(??___ftmul+2)& (0+255),b
 10151  001E32  0100               	movlb	0	; () banked
 10152  001E34  356C               	rlcf	(___ftmul@f1+1)& (0+255),w,b
 10153  001E36  0100               	movlb	0	; () banked
 10154  001E38  3771               	rlcf	??___ftmul& (0+255),f,b
 10155  001E3A  E301               	bnc	u728_41
 10156  001E3C  8172               	bsf	(??___ftmul+1)& (0+255),0,b
 10157  001E3E                     u728_41:
 10158  001E3E  0100               	movlb	0	; () banked
 10159  001E40  5171               	movf	??___ftmul& (0+255),w,b
 10160  001E42  0100               	movlb	0	; () banked
 10161  001E44  6F74               	movwf	___ftmul@exp& (0+255),b
 10162  001E46  0100               	movlb	0	; () banked
 10163  001E48  5174               	movf	___ftmul@exp& (0+255),w,b
 10164  001E4A  A4D8               	btfss	status,2,c
 10165  001E4C  D00A               	goto	i2l6176
 10166                           
 10167                           ; BSR set to: 0
 10168  001E4E  0E00               	movlw	0
 10169  001E50  0100               	movlb	0	; () banked
 10170  001E52  6F6B               	movwf	?___ftmul& (0+255),b
 10171  001E54  0E00               	movlw	0
 10172  001E56  0100               	movlb	0	; () banked
 10173  001E58  6F6C               	movwf	(?___ftmul+1)& (0+255),b
 10174  001E5A  0E00               	movlw	0
 10175  001E5C  0100               	movlb	0	; () banked
 10176  001E5E  6F6D               	movwf	(?___ftmul+2)& (0+255),b
 10177                           
 10178                           ; BSR set to: 0
 10179  001E60  0012               	return	
 10180  001E62                     i2l6176:
 10181                           
 10182                           ; BSR set to: 0
 10183  001E62  C070  F071         	movff	___ftmul@f2+2,??___ftmul
 10184  001E66  0100               	movlb	0	; () banked
 10185  001E68  6B72               	clrf	(??___ftmul+1)& (0+255),b
 10186  001E6A  6B73               	clrf	(??___ftmul+2)& (0+255),b
 10187  001E6C  0100               	movlb	0	; () banked
 10188  001E6E  356F               	rlcf	(___ftmul@f2+1)& (0+255),w,b
 10189  001E70  0100               	movlb	0	; () banked
 10190  001E72  3771               	rlcf	??___ftmul& (0+255),f,b
 10191  001E74  E301               	bnc	u730_41
 10192  001E76  8172               	bsf	(??___ftmul+1)& (0+255),0,b
 10193  001E78                     u730_41:
 10194  001E78  0100               	movlb	0	; () banked
 10195  001E7A  5171               	movf	??___ftmul& (0+255),w,b
 10196  001E7C  0100               	movlb	0	; () banked
 10197  001E7E  6F79               	movwf	___ftmul@sign& (0+255),b
 10198  001E80  0100               	movlb	0	; () banked
 10199  001E82  5179               	movf	___ftmul@sign& (0+255),w,b
 10200  001E84  A4D8               	btfss	status,2,c
 10201  001E86  D00A               	goto	i2l6182
 10202                           
 10203                           ; BSR set to: 0
 10204  001E88  0E00               	movlw	0
 10205  001E8A  0100               	movlb	0	; () banked
 10206  001E8C  6F6B               	movwf	?___ftmul& (0+255),b
 10207  001E8E  0E00               	movlw	0
 10208  001E90  0100               	movlb	0	; () banked
 10209  001E92  6F6C               	movwf	(?___ftmul+1)& (0+255),b
 10210  001E94  0E00               	movlw	0
 10211  001E96  0100               	movlb	0	; () banked
 10212  001E98  6F6D               	movwf	(?___ftmul+2)& (0+255),b
 10213                           
 10214                           ; BSR set to: 0
 10215  001E9A  0012               	return	
 10216  001E9C                     i2l6182:
 10217                           
 10218                           ; BSR set to: 0
 10219  001E9C  0100               	movlb	0	; () banked
 10220  001E9E  5179               	movf	___ftmul@sign& (0+255),w,b
 10221  001EA0  0F7B               	addlw	123
 10222  001EA2  0100               	movlb	0	; () banked
 10223  001EA4  2774               	addwf	___ftmul@exp& (0+255),f,b
 10224                           
 10225                           ; BSR set to: 0
 10226  001EA6  C06D  F079         	movff	___ftmul@f1+2,___ftmul@sign
 10227  001EAA  0100               	movlb	0	; () banked
 10228  001EAC  5170               	movf	(___ftmul@f2+2)& (0+255),w,b
 10229  001EAE  0100               	movlb	0	; () banked
 10230  001EB0  1B79               	xorwf	___ftmul@sign& (0+255),f,b
 10231  001EB2  0E80               	movlw	128
 10232  001EB4  0100               	movlb	0	; () banked
 10233  001EB6  1779               	andwf	___ftmul@sign& (0+255),f,b
 10234                           
 10235                           ; BSR set to: 0
 10236  001EB8  0100               	movlb	0	; () banked
 10237  001EBA  8F6C               	bsf	(___ftmul@f1+1)& (0+255),7,b
 10238                           
 10239                           ; BSR set to: 0
 10240  001EBC  0100               	movlb	0	; () banked
 10241  001EBE  8F6F               	bsf	(___ftmul@f2+1)& (0+255),7,b
 10242                           
 10243                           ; BSR set to: 0
 10244  001EC0  0EFF               	movlw	255
 10245  001EC2  0100               	movlb	0	; () banked
 10246  001EC4  176E               	andwf	___ftmul@f2& (0+255),f,b
 10247  001EC6  0EFF               	movlw	255
 10248  001EC8  0100               	movlb	0	; () banked
 10249  001ECA  176F               	andwf	(___ftmul@f2+1)& (0+255),f,b
 10250  001ECC  0E00               	movlw	0
 10251  001ECE  0100               	movlb	0	; () banked
 10252  001ED0  1770               	andwf	(___ftmul@f2+2)& (0+255),f,b
 10253                           
 10254                           ; BSR set to: 0
 10255  001ED2  0E00               	movlw	0
 10256  001ED4  0100               	movlb	0	; () banked
 10257  001ED6  6F75               	movwf	___ftmul@f3_as_product& (0+255),b
 10258  001ED8  0E00               	movlw	0
 10259  001EDA  0100               	movlb	0	; () banked
 10260  001EDC  6F76               	movwf	(___ftmul@f3_as_product+1)& (0+255),b
 10261  001EDE  0E00               	movlw	0
 10262  001EE0  0100               	movlb	0	; () banked
 10263  001EE2  6F77               	movwf	(___ftmul@f3_as_product+2)& (0+255),b
 10264                           
 10265                           ; BSR set to: 0
 10266  001EE4  0E07               	movlw	7
 10267  001EE6  0100               	movlb	0	; () banked
 10268  001EE8  6F78               	movwf	___ftmul@cntr& (0+255),b
 10269  001EEA                     i2l6196:
 10270                           
 10271                           ; BSR set to: 0
 10272  001EEA  0100               	movlb	0	; () banked
 10273  001EEC  A16B               	btfss	___ftmul@f1& (0+255),0,b
 10274  001EEE  D00C               	goto	i2l6200
 10275                           
 10276                           ; BSR set to: 0
 10277  001EF0  0100               	movlb	0	; () banked
 10278  001EF2  516E               	movf	___ftmul@f2& (0+255),w,b
 10279  001EF4  0100               	movlb	0	; () banked
 10280  001EF6  2775               	addwf	___ftmul@f3_as_product& (0+255),f,b
 10281  001EF8  0100               	movlb	0	; () banked
 10282  001EFA  516F               	movf	(___ftmul@f2+1)& (0+255),w,b
 10283  001EFC  0100               	movlb	0	; () banked
 10284  001EFE  2376               	addwfc	(___ftmul@f3_as_product+1)& (0+255),f,b
 10285  001F00  0100               	movlb	0	; () banked
 10286  001F02  5170               	movf	(___ftmul@f2+2)& (0+255),w,b
 10287  001F04  0100               	movlb	0	; () banked
 10288  001F06  2377               	addwfc	(___ftmul@f3_as_product+2)& (0+255),f,b
 10289  001F08                     i2l6200:
 10290                           
 10291                           ; BSR set to: 0
 10292  001F08  0100               	movlb	0	; () banked
 10293  001F0A  90D8               	bcf	status,0,c
 10294  001F0C  336D               	rrcf	(___ftmul@f1+2)& (0+255),f,b
 10295  001F0E  336C               	rrcf	(___ftmul@f1+1)& (0+255),f,b
 10296  001F10  336B               	rrcf	___ftmul@f1& (0+255),f,b
 10297  001F12  0100               	movlb	0	; () banked
 10298  001F14  90D8               	bcf	status,0,c
 10299  001F16  376E               	rlcf	___ftmul@f2& (0+255),f,b
 10300  001F18  376F               	rlcf	(___ftmul@f2+1)& (0+255),f,b
 10301  001F1A  3770               	rlcf	(___ftmul@f2+2)& (0+255),f,b
 10302                           
 10303                           ; BSR set to: 0
 10304  001F1C  0100               	movlb	0	; () banked
 10305  001F1E  2F78               	decfsz	___ftmul@cntr& (0+255),f,b
 10306  001F20  D7E4               	goto	i2l6196
 10307                           
 10308                           ; BSR set to: 0
 10309                           
 10310                           ; BSR set to: 0
 10311  001F22  0E09               	movlw	9
 10312  001F24  0100               	movlb	0	; () banked
 10313  001F26  6F78               	movwf	___ftmul@cntr& (0+255),b
 10314  001F28                     i2l6206:
 10315                           
 10316                           ; BSR set to: 0
 10317  001F28  0100               	movlb	0	; () banked
 10318  001F2A  A16B               	btfss	___ftmul@f1& (0+255),0,b
 10319  001F2C  D00C               	goto	i2l6210
 10320                           
 10321                           ; BSR set to: 0
 10322  001F2E  0100               	movlb	0	; () banked
 10323  001F30  516E               	movf	___ftmul@f2& (0+255),w,b
 10324  001F32  0100               	movlb	0	; () banked
 10325  001F34  2775               	addwf	___ftmul@f3_as_product& (0+255),f,b
 10326  001F36  0100               	movlb	0	; () banked
 10327  001F38  516F               	movf	(___ftmul@f2+1)& (0+255),w,b
 10328  001F3A  0100               	movlb	0	; () banked
 10329  001F3C  2376               	addwfc	(___ftmul@f3_as_product+1)& (0+255),f,b
 10330  001F3E  0100               	movlb	0	; () banked
 10331  001F40  5170               	movf	(___ftmul@f2+2)& (0+255),w,b
 10332  001F42  0100               	movlb	0	; () banked
 10333  001F44  2377               	addwfc	(___ftmul@f3_as_product+2)& (0+255),f,b
 10334  001F46                     i2l6210:
 10335                           
 10336                           ; BSR set to: 0
 10337  001F46  0100               	movlb	0	; () banked
 10338  001F48  90D8               	bcf	status,0,c
 10339  001F4A  336D               	rrcf	(___ftmul@f1+2)& (0+255),f,b
 10340  001F4C  336C               	rrcf	(___ftmul@f1+1)& (0+255),f,b
 10341  001F4E  336B               	rrcf	___ftmul@f1& (0+255),f,b
 10342  001F50  0100               	movlb	0	; () banked
 10343  001F52  90D8               	bcf	status,0,c
 10344  001F54  3377               	rrcf	(___ftmul@f3_as_product+2)& (0+255),f,b
 10345  001F56  3376               	rrcf	(___ftmul@f3_as_product+1)& (0+255),f,b
 10346  001F58  3375               	rrcf	___ftmul@f3_as_product& (0+255),f,b
 10347                           
 10348                           ; BSR set to: 0
 10349  001F5A  0100               	movlb	0	; () banked
 10350  001F5C  2F78               	decfsz	___ftmul@cntr& (0+255),f,b
 10351  001F5E  D7E4               	goto	i2l6206
 10352                           
 10353                           ; BSR set to: 0
 10354                           
 10355                           ; BSR set to: 0
 10356  001F60  C075  F060         	movff	___ftmul@f3_as_product,___ftpack@arg
 10357  001F64  C076  F061         	movff	___ftmul@f3_as_product+1,___ftpack@arg+1
 10358  001F68  C077  F062         	movff	___ftmul@f3_as_product+2,___ftpack@arg+2
 10359  001F6C  C074  F063         	movff	___ftmul@exp,___ftpack@exp
 10360  001F70  C079  F064         	movff	___ftmul@sign,___ftpack@sign
 10361  001F74  ECA3  F011         	call	___ftpack	;wreg free
 10362  001F78  C060  F06B         	movff	?___ftpack,?___ftmul
 10363  001F7C  C061  F06C         	movff	?___ftpack+1,?___ftmul+1
 10364  001F80  C062  F06D         	movff	?___ftpack+2,?___ftmul+2
 10365  001F84  0012               	return	
 10366  001F86                     __end_of___ftmul:
 10367                           	opt stack 0
 10368                           pclatu	equ	0xFFB
 10369                           pclath	equ	0xFFA
 10370                           tblptru	equ	0xFF8
 10371                           tblptrh	equ	0xFF7
 10372                           tblptrl	equ	0xFF6
 10373                           tablat	equ	0xFF5
 10374                           prodh	equ	0xFF4
 10375                           prodl	equ	0xFF3
 10376                           intcon	equ	0xFF2
 10377                           intcon2	equ	0xFF1
 10378                           intcon3	equ	0xFF0
 10379                           postinc0	equ	0xFEE
 10380                           fsr0h	equ	0xFEA
 10381                           fsr0l	equ	0xFE9
 10382                           wreg	equ	0xFE8
 10383                           postinc1	equ	0xFE6
 10384                           postdec1	equ	0xFE5
 10385                           fsr1h	equ	0xFE2
 10386                           fsr1l	equ	0xFE1
 10387                           bsr	equ	0xFE0
 10388                           indf2	equ	0xFDF
 10389                           postinc2	equ	0xFDE
 10390                           postdec2	equ	0xFDD
 10391                           fsr2h	equ	0xFDA
 10392                           fsr2l	equ	0xFD9
 10393                           status	equ	0xFD8
 10394                           
 10395 ;; *************** function ___ftge *****************
 10396 ;; Defined at:
 10397 ;;		line 4 in file "C:\Program Files\Microchip\xc8\v1.35\sources\common\ftge.c"
 10398 ;; Parameters:    Size  Location     Type
 10399 ;;  ff1             3    0[BANK0 ] float 
 10400 ;;  ff2             3    3[BANK0 ] float 
 10401 ;; Auto vars:     Size  Location     Type
 10402 ;;		None
 10403 ;; Return value:  Size  Location     Type
 10404 ;;		None               void
 10405 ;; Registers used:
 10406 ;;		wreg, status,2, status,0
 10407 ;; Tracked objects:
 10408 ;;		On entry : 0/0
 10409 ;;		On exit  : 0/0
 10410 ;;		Unchanged: 0/0
 10411 ;; Data sizes:     COMRAM   BANK0   BANK1   BANK2
 10412 ;;      Params:         0       6       0       0
 10413 ;;      Locals:         0       0       0       0
 10414 ;;      Temps:          0       3       0       0
 10415 ;;      Totals:         0       9       0       0
 10416 ;;Total ram usage:        9 bytes
 10417 ;; Hardware stack levels used:    1
 10418 ;; This function calls:
 10419 ;;		Nothing
 10420 ;; This function is called by:
 10421 ;;		_high_isr
 10422 ;; This function uses a non-reentrant model
 10423 ;;
 10424                           
 10425                           	psect	text38
 10426  0026F0                     __ptext38:
 10427                           	opt stack 0
 10428  0026F0                     ___ftge:
 10429                           	opt stack 21
 10430                           
 10431                           ;incstack = 0
 10432  0026F0  0100               	movlb	0	; () banked
 10433  0026F2  AF62               	btfss	(___ftge@ff1+2)& (0+255),7,b
 10434  0026F4  D01D               	goto	i2l6258
 10435                           
 10436                           ; BSR set to: 0
 10437  0026F6  C060  F066         	movff	___ftge@ff1,??___ftge
 10438  0026FA  C061  F067         	movff	___ftge@ff1+1,??___ftge+1
 10439  0026FE  C062  F068         	movff	___ftge@ff1+2,??___ftge+2
 10440  002702  0100               	movlb	0	; () banked
 10441  002704  1F66               	comf	??___ftge& (0+255),f,b
 10442  002706  1F67               	comf	(??___ftge+1)& (0+255),f,b
 10443  002708  1F68               	comf	(??___ftge+2)& (0+255),f,b
 10444  00270A  2B66               	incf	??___ftge& (0+255),f,b
 10445  00270C  0E00               	movlw	0
 10446  00270E  2367               	addwfc	(??___ftge+1)& (0+255),f,b
 10447  002710  2368               	addwfc	(??___ftge+2)& (0+255),f,b
 10448  002712  0E00               	movlw	0
 10449  002714  0100               	movlb	0	; () banked
 10450  002716  2566               	addwf	??___ftge& (0+255),w,b
 10451  002718  0100               	movlb	0	; () banked
 10452  00271A  6F60               	movwf	___ftge@ff1& (0+255),b
 10453  00271C  0E00               	movlw	0
 10454  00271E  0100               	movlb	0	; () banked
 10455  002720  2167               	addwfc	(??___ftge+1)& (0+255),w,b
 10456  002722  0100               	movlb	0	; () banked
 10457  002724  6F61               	movwf	(___ftge@ff1+1)& (0+255),b
 10458  002726  0E80               	movlw	128
 10459  002728  0100               	movlb	0	; () banked
 10460  00272A  2168               	addwfc	(??___ftge+2)& (0+255),w,b
 10461  00272C  0100               	movlb	0	; () banked
 10462  00272E  6F62               	movwf	(___ftge@ff1+2)& (0+255),b
 10463  002730                     i2l6258:
 10464                           
 10465                           ; BSR set to: 0
 10466  002730  0100               	movlb	0	; () banked
 10467  002732  AF65               	btfss	(___ftge@ff2+2)& (0+255),7,b
 10468  002734  D01D               	goto	i2l6262
 10469                           
 10470                           ; BSR set to: 0
 10471  002736  C063  F066         	movff	___ftge@ff2,??___ftge
 10472  00273A  C064  F067         	movff	___ftge@ff2+1,??___ftge+1
 10473  00273E  C065  F068         	movff	___ftge@ff2+2,??___ftge+2
 10474  002742  0100               	movlb	0	; () banked
 10475  002744  1F66               	comf	??___ftge& (0+255),f,b
 10476  002746  1F67               	comf	(??___ftge+1)& (0+255),f,b
 10477  002748  1F68               	comf	(??___ftge+2)& (0+255),f,b
 10478  00274A  2B66               	incf	??___ftge& (0+255),f,b
 10479  00274C  0E00               	movlw	0
 10480  00274E  2367               	addwfc	(??___ftge+1)& (0+255),f,b
 10481  002750  2368               	addwfc	(??___ftge+2)& (0+255),f,b
 10482  002752  0E00               	movlw	0
 10483  002754  0100               	movlb	0	; () banked
 10484  002756  2566               	addwf	??___ftge& (0+255),w,b
 10485  002758  0100               	movlb	0	; () banked
 10486  00275A  6F63               	movwf	___ftge@ff2& (0+255),b
 10487  00275C  0E00               	movlw	0
 10488  00275E  0100               	movlb	0	; () banked
 10489  002760  2167               	addwfc	(??___ftge+1)& (0+255),w,b
 10490  002762  0100               	movlb	0	; () banked
 10491  002764  6F64               	movwf	(___ftge@ff2+1)& (0+255),b
 10492  002766  0E80               	movlw	128
 10493  002768  0100               	movlb	0	; () banked
 10494  00276A  2168               	addwfc	(??___ftge+2)& (0+255),w,b
 10495  00276C  0100               	movlb	0	; () banked
 10496  00276E  6F65               	movwf	(___ftge@ff2+2)& (0+255),b
 10497  002770                     i2l6262:
 10498                           
 10499                           ; BSR set to: 0
 10500  002770  0E00               	movlw	0
 10501  002772  0100               	movlb	0	; () banked
 10502  002774  1B60               	xorwf	___ftge@ff1& (0+255),f,b
 10503  002776  0E00               	movlw	0
 10504  002778  0100               	movlb	0	; () banked
 10505  00277A  1B61               	xorwf	(___ftge@ff1+1)& (0+255),f,b
 10506  00277C  0E80               	movlw	128
 10507  00277E  0100               	movlb	0	; () banked
 10508  002780  1B62               	xorwf	(___ftge@ff1+2)& (0+255),f,b
 10509                           
 10510                           ; BSR set to: 0
 10511  002782  0E00               	movlw	0
 10512  002784  0100               	movlb	0	; () banked
 10513  002786  1B63               	xorwf	___ftge@ff2& (0+255),f,b
 10514  002788  0E00               	movlw	0
 10515  00278A  0100               	movlb	0	; () banked
 10516  00278C  1B64               	xorwf	(___ftge@ff2+1)& (0+255),f,b
 10517  00278E  0E80               	movlw	128
 10518  002790  0100               	movlb	0	; () banked
 10519  002792  1B65               	xorwf	(___ftge@ff2+2)& (0+255),f,b
 10520  002794  0100               	movlb	0	; () banked
 10521  002796  5163               	movf	___ftge@ff2& (0+255),w,b
 10522  002798  0100               	movlb	0	; () banked
 10523  00279A  5D60               	subwf	___ftge@ff1& (0+255),w,b
 10524  00279C  0100               	movlb	0	; () banked
 10525  00279E  5164               	movf	(___ftge@ff2+1)& (0+255),w,b
 10526  0027A0  0100               	movlb	0	; () banked
 10527  0027A2  5961               	subwfb	(___ftge@ff1+1)& (0+255),w,b
 10528  0027A4  0100               	movlb	0	; () banked
 10529  0027A6  5165               	movf	(___ftge@ff2+2)& (0+255),w,b
 10530  0027A8  0100               	movlb	0	; () banked
 10531  0027AA  5962               	subwfb	(___ftge@ff1+2)& (0+255),w,b
 10532  0027AC  B0D8               	btfsc	status,0,c
 10533  0027AE  D002               	goto	i2l6268
 10534                           
 10535                           ; BSR set to: 0
 10536  0027B0  90D8               	bcf	status,0,c
 10537  0027B2  0012               	return	
 10538  0027B4                     i2l6268:
 10539                           
 10540                           ; BSR set to: 0
 10541  0027B4  80D8               	bsf	status,0,c
 10542                           
 10543                           ; BSR set to: 0
 10544  0027B6  0012               	return	
 10545  0027B8                     __end_of___ftge:
 10546                           	opt stack 0
 10547                           pclatu	equ	0xFFB
 10548                           pclath	equ	0xFFA
 10549                           tblptru	equ	0xFF8
 10550                           tblptrh	equ	0xFF7
 10551                           tblptrl	equ	0xFF6
 10552                           tablat	equ	0xFF5
 10553                           prodh	equ	0xFF4
 10554                           prodl	equ	0xFF3
 10555                           intcon	equ	0xFF2
 10556                           intcon2	equ	0xFF1
 10557                           intcon3	equ	0xFF0
 10558                           postinc0	equ	0xFEE
 10559                           fsr0h	equ	0xFEA
 10560                           fsr0l	equ	0xFE9
 10561                           wreg	equ	0xFE8
 10562                           postinc1	equ	0xFE6
 10563                           postdec1	equ	0xFE5
 10564                           fsr1h	equ	0xFE2
 10565                           fsr1l	equ	0xFE1
 10566                           bsr	equ	0xFE0
 10567                           indf2	equ	0xFDF
 10568                           postinc2	equ	0xFDE
 10569                           postdec2	equ	0xFDD
 10570                           fsr2h	equ	0xFDA
 10571                           fsr2l	equ	0xFD9
 10572                           status	equ	0xFD8
 10573                           
 10574 ;; *************** function ___ftdiv *****************
 10575 ;; Defined at:
 10576 ;;		line 54 in file "C:\Program Files\Microchip\xc8\v1.35\sources\common\ftdiv.c"
 10577 ;; Parameters:    Size  Location     Type
 10578 ;;  f1              3   26[BANK0 ] float 
 10579 ;;  f2              3   29[BANK0 ] float 
 10580 ;; Auto vars:     Size  Location     Type
 10581 ;;  f3              3   36[BANK0 ] float 
 10582 ;;  sign            1   40[BANK0 ] unsigned char 
 10583 ;;  exp             1   39[BANK0 ] unsigned char 
 10584 ;;  cntr            1   35[BANK0 ] unsigned char 
 10585 ;; Return value:  Size  Location     Type
 10586 ;;                  3   26[BANK0 ] float 
 10587 ;; Registers used:
 10588 ;;		wreg, status,2, status,0, cstack
 10589 ;; Tracked objects:
 10590 ;;		On entry : 0/0
 10591 ;;		On exit  : 0/0
 10592 ;;		Unchanged: 0/0
 10593 ;; Data sizes:     COMRAM   BANK0   BANK1   BANK2
 10594 ;;      Params:         0       6       0       0
 10595 ;;      Locals:         0       6       0       0
 10596 ;;      Temps:          0       3       0       0
 10597 ;;      Totals:         0      15       0       0
 10598 ;;Total ram usage:       15 bytes
 10599 ;; Hardware stack levels used:    1
 10600 ;; Hardware stack levels required when called:    1
 10601 ;; This function calls:
 10602 ;;		___ftpack
 10603 ;; This function is called by:
 10604 ;;		_high_isr
 10605 ;; This function uses a non-reentrant model
 10606 ;;
 10607                           
 10608                           	psect	text39
 10609  001F86                     __ptext39:
 10610                           	opt stack 0
 10611  001F86                     ___ftdiv:
 10612                           	opt stack 20
 10613                           
 10614                           ; BSR set to: 0
 10615                           ;incstack = 0
 10616  001F86  C07C  F080         	movff	___ftdiv@f1+2,??___ftdiv
 10617  001F8A  0100               	movlb	0	; () banked
 10618  001F8C  6B81               	clrf	(??___ftdiv+1)& (0+255),b
 10619  001F8E  6B82               	clrf	(??___ftdiv+2)& (0+255),b
 10620  001F90  0100               	movlb	0	; () banked
 10621  001F92  357B               	rlcf	(___ftdiv@f1+1)& (0+255),w,b
 10622  001F94  0100               	movlb	0	; () banked
 10623  001F96  3780               	rlcf	??___ftdiv& (0+255),f,b
 10624  001F98  E301               	bnc	u723_41
 10625  001F9A  8181               	bsf	(??___ftdiv+1)& (0+255),0,b
 10626  001F9C                     u723_41:
 10627  001F9C  0100               	movlb	0	; () banked
 10628  001F9E  5180               	movf	??___ftdiv& (0+255),w,b
 10629  001FA0  0100               	movlb	0	; () banked
 10630  001FA2  6F87               	movwf	___ftdiv@exp& (0+255),b
 10631  001FA4  0100               	movlb	0	; () banked
 10632  001FA6  5187               	movf	___ftdiv@exp& (0+255),w,b
 10633  001FA8  A4D8               	btfss	status,2,c
 10634  001FAA  D00A               	goto	i2l6130
 10635                           
 10636                           ; BSR set to: 0
 10637  001FAC  0E00               	movlw	0
 10638  001FAE  0100               	movlb	0	; () banked
 10639  001FB0  6F7A               	movwf	?___ftdiv& (0+255),b
 10640  001FB2  0E00               	movlw	0
 10641  001FB4  0100               	movlb	0	; () banked
 10642  001FB6  6F7B               	movwf	(?___ftdiv+1)& (0+255),b
 10643  001FB8  0E00               	movlw	0
 10644  001FBA  0100               	movlb	0	; () banked
 10645  001FBC  6F7C               	movwf	(?___ftdiv+2)& (0+255),b
 10646                           
 10647                           ; BSR set to: 0
 10648  001FBE  0012               	return	
 10649  001FC0                     i2l6130:
 10650                           
 10651                           ; BSR set to: 0
 10652  001FC0  C07F  F080         	movff	___ftdiv@f2+2,??___ftdiv
 10653  001FC4  0100               	movlb	0	; () banked
 10654  001FC6  6B81               	clrf	(??___ftdiv+1)& (0+255),b
 10655  001FC8  6B82               	clrf	(??___ftdiv+2)& (0+255),b
 10656  001FCA  0100               	movlb	0	; () banked
 10657  001FCC  357E               	rlcf	(___ftdiv@f2+1)& (0+255),w,b
 10658  001FCE  0100               	movlb	0	; () banked
 10659  001FD0  3780               	rlcf	??___ftdiv& (0+255),f,b
 10660  001FD2  E301               	bnc	u725_41
 10661  001FD4  8181               	bsf	(??___ftdiv+1)& (0+255),0,b
 10662  001FD6                     u725_41:
 10663  001FD6  0100               	movlb	0	; () banked
 10664  001FD8  5180               	movf	??___ftdiv& (0+255),w,b
 10665  001FDA  0100               	movlb	0	; () banked
 10666  001FDC  6F88               	movwf	___ftdiv@sign& (0+255),b
 10667  001FDE  0100               	movlb	0	; () banked
 10668  001FE0  5188               	movf	___ftdiv@sign& (0+255),w,b
 10669  001FE2  A4D8               	btfss	status,2,c
 10670  001FE4  D00A               	goto	i2l6136
 10671                           
 10672                           ; BSR set to: 0
 10673  001FE6  0E00               	movlw	0
 10674  001FE8  0100               	movlb	0	; () banked
 10675  001FEA  6F7A               	movwf	?___ftdiv& (0+255),b
 10676  001FEC  0E00               	movlw	0
 10677  001FEE  0100               	movlb	0	; () banked
 10678  001FF0  6F7B               	movwf	(?___ftdiv+1)& (0+255),b
 10679  001FF2  0E00               	movlw	0
 10680  001FF4  0100               	movlb	0	; () banked
 10681  001FF6  6F7C               	movwf	(?___ftdiv+2)& (0+255),b
 10682                           
 10683                           ; BSR set to: 0
 10684  001FF8  0012               	return	
 10685  001FFA                     i2l6136:
 10686                           
 10687                           ; BSR set to: 0
 10688  001FFA  0E00               	movlw	0
 10689  001FFC  0100               	movlb	0	; () banked
 10690  001FFE  6F84               	movwf	___ftdiv@f3& (0+255),b
 10691  002000  0E00               	movlw	0
 10692  002002  0100               	movlb	0	; () banked
 10693  002004  6F85               	movwf	(___ftdiv@f3+1)& (0+255),b
 10694  002006  0E00               	movlw	0
 10695  002008  0100               	movlb	0	; () banked
 10696  00200A  6F86               	movwf	(___ftdiv@f3+2)& (0+255),b
 10697                           
 10698                           ; BSR set to: 0
 10699  00200C  0100               	movlb	0	; () banked
 10700  00200E  5188               	movf	___ftdiv@sign& (0+255),w,b
 10701  002010  0F89               	addlw	137
 10702  002012  0100               	movlb	0	; () banked
 10703  002014  5F87               	subwf	___ftdiv@exp& (0+255),f,b
 10704                           
 10705                           ; BSR set to: 0
 10706  002016  C07C  F088         	movff	___ftdiv@f1+2,___ftdiv@sign
 10707                           
 10708                           ; BSR set to: 0
 10709  00201A  0100               	movlb	0	; () banked
 10710  00201C  517F               	movf	(___ftdiv@f2+2)& (0+255),w,b
 10711  00201E  0100               	movlb	0	; () banked
 10712  002020  1B88               	xorwf	___ftdiv@sign& (0+255),f,b
 10713                           
 10714                           ; BSR set to: 0
 10715  002022  0E80               	movlw	128
 10716  002024  0100               	movlb	0	; () banked
 10717  002026  1788               	andwf	___ftdiv@sign& (0+255),f,b
 10718                           
 10719                           ; BSR set to: 0
 10720  002028  0100               	movlb	0	; () banked
 10721  00202A  8F7B               	bsf	(___ftdiv@f1+1)& (0+255),7,b
 10722                           
 10723                           ; BSR set to: 0
 10724  00202C  0EFF               	movlw	255
 10725  00202E  0100               	movlb	0	; () banked
 10726  002030  177A               	andwf	___ftdiv@f1& (0+255),f,b
 10727  002032  0EFF               	movlw	255
 10728  002034  0100               	movlb	0	; () banked
 10729  002036  177B               	andwf	(___ftdiv@f1+1)& (0+255),f,b
 10730  002038  0E00               	movlw	0
 10731  00203A  0100               	movlb	0	; () banked
 10732  00203C  177C               	andwf	(___ftdiv@f1+2)& (0+255),f,b
 10733                           
 10734                           ; BSR set to: 0
 10735  00203E  0100               	movlb	0	; () banked
 10736  002040  8F7E               	bsf	(___ftdiv@f2+1)& (0+255),7,b
 10737                           
 10738                           ; BSR set to: 0
 10739  002042  0EFF               	movlw	255
 10740  002044  0100               	movlb	0	; () banked
 10741  002046  177D               	andwf	___ftdiv@f2& (0+255),f,b
 10742  002048  0EFF               	movlw	255
 10743  00204A  0100               	movlb	0	; () banked
 10744  00204C  177E               	andwf	(___ftdiv@f2+1)& (0+255),f,b
 10745  00204E  0E00               	movlw	0
 10746  002050  0100               	movlb	0	; () banked
 10747  002052  177F               	andwf	(___ftdiv@f2+2)& (0+255),f,b
 10748                           
 10749                           ; BSR set to: 0
 10750  002054  0E18               	movlw	24
 10751  002056  0100               	movlb	0	; () banked
 10752  002058  6F83               	movwf	___ftdiv@cntr& (0+255),b
 10753  00205A                     i2l6156:
 10754                           
 10755                           ; BSR set to: 0
 10756  00205A  0100               	movlb	0	; () banked
 10757  00205C  90D8               	bcf	status,0,c
 10758  00205E  3784               	rlcf	___ftdiv@f3& (0+255),f,b
 10759  002060  3785               	rlcf	(___ftdiv@f3+1)& (0+255),f,b
 10760  002062  3786               	rlcf	(___ftdiv@f3+2)& (0+255),f,b
 10761                           
 10762                           ; BSR set to: 0
 10763  002064  0100               	movlb	0	; () banked
 10764  002066  517D               	movf	___ftdiv@f2& (0+255),w,b
 10765  002068  0100               	movlb	0	; () banked
 10766  00206A  5D7A               	subwf	___ftdiv@f1& (0+255),w,b
 10767  00206C  0100               	movlb	0	; () banked
 10768  00206E  517E               	movf	(___ftdiv@f2+1)& (0+255),w,b
 10769  002070  0100               	movlb	0	; () banked
 10770  002072  597B               	subwfb	(___ftdiv@f1+1)& (0+255),w,b
 10771  002074  0100               	movlb	0	; () banked
 10772  002076  517F               	movf	(___ftdiv@f2+2)& (0+255),w,b
 10773  002078  0100               	movlb	0	; () banked
 10774  00207A  597C               	subwfb	(___ftdiv@f1+2)& (0+255),w,b
 10775  00207C  A0D8               	btfss	status,0,c
 10776  00207E  D00E               	goto	i2l1083
 10777                           
 10778                           ; BSR set to: 0
 10779  002080  0100               	movlb	0	; () banked
 10780  002082  517D               	movf	___ftdiv@f2& (0+255),w,b
 10781  002084  0100               	movlb	0	; () banked
 10782  002086  5F7A               	subwf	___ftdiv@f1& (0+255),f,b
 10783  002088  0100               	movlb	0	; () banked
 10784  00208A  517E               	movf	(___ftdiv@f2+1)& (0+255),w,b
 10785  00208C  0100               	movlb	0	; () banked
 10786  00208E  5B7B               	subwfb	(___ftdiv@f1+1)& (0+255),f,b
 10787  002090  0100               	movlb	0	; () banked
 10788  002092  517F               	movf	(___ftdiv@f2+2)& (0+255),w,b
 10789  002094  0100               	movlb	0	; () banked
 10790  002096  5B7C               	subwfb	(___ftdiv@f1+2)& (0+255),f,b
 10791                           
 10792                           ; BSR set to: 0
 10793  002098  0100               	movlb	0	; () banked
 10794  00209A  8184               	bsf	___ftdiv@f3& (0+255),0,b
 10795  00209C                     i2l1083:
 10796                           
 10797                           ; BSR set to: 0
 10798  00209C  0100               	movlb	0	; () banked
 10799  00209E  90D8               	bcf	status,0,c
 10800  0020A0  377A               	rlcf	___ftdiv@f1& (0+255),f,b
 10801  0020A2  377B               	rlcf	(___ftdiv@f1+1)& (0+255),f,b
 10802  0020A4  377C               	rlcf	(___ftdiv@f1+2)& (0+255),f,b
 10803                           
 10804                           ; BSR set to: 0
 10805  0020A6  0100               	movlb	0	; () banked
 10806  0020A8  2F83               	decfsz	___ftdiv@cntr& (0+255),f,b
 10807  0020AA  D7D7               	goto	i2l6156
 10808                           
 10809                           ; BSR set to: 0
 10810                           
 10811                           ; BSR set to: 0
 10812  0020AC  C084  F060         	movff	___ftdiv@f3,___ftpack@arg
 10813  0020B0  C085  F061         	movff	___ftdiv@f3+1,___ftpack@arg+1
 10814  0020B4  C086  F062         	movff	___ftdiv@f3+2,___ftpack@arg+2
 10815  0020B8  C087  F063         	movff	___ftdiv@exp,___ftpack@exp
 10816  0020BC  C088  F064         	movff	___ftdiv@sign,___ftpack@sign
 10817  0020C0  ECA3  F011         	call	___ftpack	;wreg free
 10818  0020C4  C060  F07A         	movff	?___ftpack,?___ftdiv
 10819  0020C8  C061  F07B         	movff	?___ftpack+1,?___ftdiv+1
 10820  0020CC  C062  F07C         	movff	?___ftpack+2,?___ftdiv+2
 10821  0020D0  0012               	return	
 10822  0020D2                     __end_of___ftdiv:
 10823                           	opt stack 0
 10824                           pclatu	equ	0xFFB
 10825                           pclath	equ	0xFFA
 10826                           tblptru	equ	0xFF8
 10827                           tblptrh	equ	0xFF7
 10828                           tblptrl	equ	0xFF6
 10829                           tablat	equ	0xFF5
 10830                           prodh	equ	0xFF4
 10831                           prodl	equ	0xFF3
 10832                           intcon	equ	0xFF2
 10833                           intcon2	equ	0xFF1
 10834                           intcon3	equ	0xFF0
 10835                           postinc0	equ	0xFEE
 10836                           fsr0h	equ	0xFEA
 10837                           fsr0l	equ	0xFE9
 10838                           wreg	equ	0xFE8
 10839                           postinc1	equ	0xFE6
 10840                           postdec1	equ	0xFE5
 10841                           fsr1h	equ	0xFE2
 10842                           fsr1l	equ	0xFE1
 10843                           bsr	equ	0xFE0
 10844                           indf2	equ	0xFDF
 10845                           postinc2	equ	0xFDE
 10846                           postdec2	equ	0xFDD
 10847                           fsr2h	equ	0xFDA
 10848                           fsr2l	equ	0xFD9
 10849                           status	equ	0xFD8
 10850                           
 10851 ;; *************** function ___ftadd *****************
 10852 ;; Defined at:
 10853 ;;		line 86 in file "C:\Program Files\Microchip\xc8\v1.35\sources\common\ftadd.c"
 10854 ;; Parameters:    Size  Location     Type
 10855 ;;  f1              3   41[BANK0 ] float 
 10856 ;;  f2              3   44[BANK0 ] float 
 10857 ;; Auto vars:     Size  Location     Type
 10858 ;;  exp1            1   52[BANK0 ] unsigned char 
 10859 ;;  exp2            1   51[BANK0 ] unsigned char 
 10860 ;;  sign            1   50[BANK0 ] unsigned char 
 10861 ;; Return value:  Size  Location     Type
 10862 ;;                  3   41[BANK0 ] float 
 10863 ;; Registers used:
 10864 ;;		wreg, status,2, status,0, cstack
 10865 ;; Tracked objects:
 10866 ;;		On entry : 0/0
 10867 ;;		On exit  : 0/0
 10868 ;;		Unchanged: 0/0
 10869 ;; Data sizes:     COMRAM   BANK0   BANK1   BANK2
 10870 ;;      Params:         0       6       0       0
 10871 ;;      Locals:         0       3       0       0
 10872 ;;      Temps:          0       3       0       0
 10873 ;;      Totals:         0      12       0       0
 10874 ;;Total ram usage:       12 bytes
 10875 ;; Hardware stack levels used:    1
 10876 ;; Hardware stack levels required when called:    1
 10877 ;; This function calls:
 10878 ;;		___ftpack
 10879 ;; This function is called by:
 10880 ;;		_high_isr
 10881 ;; This function uses a non-reentrant model
 10882 ;;
 10883                           
 10884                           	psect	text40
 10885  001558                     __ptext40:
 10886                           	opt stack 0
 10887  001558                     ___ftadd:
 10888                           	opt stack 20
 10889                           
 10890                           ;incstack = 0
 10891  001558  C08B  F08F         	movff	___ftadd@f1+2,??___ftadd
 10892  00155C  0100               	movlb	0	; () banked
 10893  00155E  6B90               	clrf	(??___ftadd+1)& (0+255),b
 10894  001560  6B91               	clrf	(??___ftadd+2)& (0+255),b
 10895  001562  0100               	movlb	0	; () banked
 10896  001564  358A               	rlcf	(___ftadd@f1+1)& (0+255),w,b
 10897  001566  0100               	movlb	0	; () banked
 10898  001568  378F               	rlcf	??___ftadd& (0+255),f,b
 10899  00156A  E301               	bnc	u702_41
 10900  00156C  8190               	bsf	(??___ftadd+1)& (0+255),0,b
 10901  00156E                     u702_41:
 10902  00156E  0100               	movlb	0	; () banked
 10903  001570  518F               	movf	??___ftadd& (0+255),w,b
 10904  001572  0100               	movlb	0	; () banked
 10905  001574  6F94               	movwf	___ftadd@exp1& (0+255),b
 10906  001576  C08E  F08F         	movff	___ftadd@f2+2,??___ftadd
 10907  00157A  0100               	movlb	0	; () banked
 10908  00157C  6B90               	clrf	(??___ftadd+1)& (0+255),b
 10909  00157E  6B91               	clrf	(??___ftadd+2)& (0+255),b
 10910  001580  0100               	movlb	0	; () banked
 10911  001582  358D               	rlcf	(___ftadd@f2+1)& (0+255),w,b
 10912  001584  0100               	movlb	0	; () banked
 10913  001586  378F               	rlcf	??___ftadd& (0+255),f,b
 10914  001588  E301               	bnc	u703_41
 10915  00158A  8190               	bsf	(??___ftadd+1)& (0+255),0,b
 10916  00158C                     u703_41:
 10917  00158C  0100               	movlb	0	; () banked
 10918  00158E  518F               	movf	??___ftadd& (0+255),w,b
 10919  001590  0100               	movlb	0	; () banked
 10920  001592  6F93               	movwf	___ftadd@exp2& (0+255),b
 10921                           
 10922                           ; BSR set to: 0
 10923  001594  0100               	movlb	0	; () banked
 10924  001596  5194               	movf	___ftadd@exp1& (0+255),w,b
 10925  001598  0100               	movlb	0	; () banked
 10926  00159A  B4D8               	btfsc	status,2,c
 10927  00159C  D011               	goto	i2l1048
 10928                           
 10929                           ; BSR set to: 0
 10930  00159E  0100               	movlb	0	; () banked
 10931  0015A0  5193               	movf	___ftadd@exp2& (0+255),w,b
 10932  0015A2  0100               	movlb	0	; () banked
 10933  0015A4  5D94               	subwf	___ftadd@exp1& (0+255),w,b
 10934  0015A6  B0D8               	btfsc	status,0,c
 10935  0015A8  D012               	goto	i2l6062
 10936                           
 10937                           ; BSR set to: 0
 10938  0015AA  0100               	movlb	0	; () banked
 10939  0015AC  5194               	movf	___ftadd@exp1& (0+255),w,b
 10940  0015AE  0800               	sublw	0
 10941  0015B0  0100               	movlb	0	; () banked
 10942  0015B2  2593               	addwf	___ftadd@exp2& (0+255),w,b
 10943  0015B4  0100               	movlb	0	; () banked
 10944  0015B6  6F8F               	movwf	??___ftadd& (0+255),b
 10945  0015B8  0E18               	movlw	24
 10946  0015BA  0100               	movlb	0	; () banked
 10947  0015BC  658F               	cpfsgt	??___ftadd& (0+255),b
 10948  0015BE  D007               	goto	i2l6062
 10949  0015C0                     i2l1048:
 10950                           
 10951                           ; BSR set to: 0
 10952  0015C0  C08C  F089         	movff	___ftadd@f2,?___ftadd
 10953  0015C4  C08D  F08A         	movff	___ftadd@f2+1,?___ftadd+1
 10954  0015C8  C08E  F08B         	movff	___ftadd@f2+2,?___ftadd+2
 10955  0015CC  0012               	return	
 10956  0015CE                     i2l6062:
 10957                           
 10958                           ; BSR set to: 0
 10959  0015CE  0100               	movlb	0	; () banked
 10960  0015D0  5193               	movf	___ftadd@exp2& (0+255),w,b
 10961  0015D2  0100               	movlb	0	; () banked
 10962  0015D4  B4D8               	btfsc	status,2,c
 10963  0015D6  D011               	goto	i2l1052
 10964                           
 10965                           ; BSR set to: 0
 10966  0015D8  0100               	movlb	0	; () banked
 10967  0015DA  5194               	movf	___ftadd@exp1& (0+255),w,b
 10968  0015DC  0100               	movlb	0	; () banked
 10969  0015DE  5D93               	subwf	___ftadd@exp2& (0+255),w,b
 10970  0015E0  B0D8               	btfsc	status,0,c
 10971  0015E2  D012               	goto	i2l6068
 10972                           
 10973                           ; BSR set to: 0
 10974  0015E4  0100               	movlb	0	; () banked
 10975  0015E6  5193               	movf	___ftadd@exp2& (0+255),w,b
 10976  0015E8  0800               	sublw	0
 10977  0015EA  0100               	movlb	0	; () banked
 10978  0015EC  2594               	addwf	___ftadd@exp1& (0+255),w,b
 10979  0015EE  0100               	movlb	0	; () banked
 10980  0015F0  6F8F               	movwf	??___ftadd& (0+255),b
 10981  0015F2  0E18               	movlw	24
 10982  0015F4  0100               	movlb	0	; () banked
 10983  0015F6  658F               	cpfsgt	??___ftadd& (0+255),b
 10984  0015F8  D007               	goto	i2l6068
 10985  0015FA                     i2l1052:
 10986                           
 10987                           ; BSR set to: 0
 10988  0015FA  C089  F089         	movff	___ftadd@f1,?___ftadd
 10989  0015FE  C08A  F08A         	movff	___ftadd@f1+1,?___ftadd+1
 10990  001602  C08B  F08B         	movff	___ftadd@f1+2,?___ftadd+2
 10991  001606  0012               	return	
 10992  001608                     i2l6068:
 10993                           
 10994                           ; BSR set to: 0
 10995  001608  0E06               	movlw	6
 10996  00160A  0100               	movlb	0	; () banked
 10997  00160C  6F92               	movwf	___ftadd@sign& (0+255),b
 10998                           
 10999                           ; BSR set to: 0
 11000  00160E  0100               	movlb	0	; () banked
 11001  001610  AF8B               	btfss	(___ftadd@f1+2)& (0+255),7,b
 11002  001612  D002               	goto	i2l6074
 11003                           
 11004                           ; BSR set to: 0
 11005  001614  0100               	movlb	0	; () banked
 11006  001616  8F92               	bsf	___ftadd@sign& (0+255),7,b
 11007  001618                     i2l6074:
 11008                           
 11009                           ; BSR set to: 0
 11010  001618  0100               	movlb	0	; () banked
 11011  00161A  AF8E               	btfss	(___ftadd@f2+2)& (0+255),7,b
 11012  00161C  D002               	goto	i2l1054
 11013                           
 11014                           ; BSR set to: 0
 11015  00161E  0100               	movlb	0	; () banked
 11016  001620  8D92               	bsf	___ftadd@sign& (0+255),6,b
 11017  001622                     i2l1054:
 11018                           
 11019                           ; BSR set to: 0
 11020  001622  0100               	movlb	0	; () banked
 11021  001624  8F8A               	bsf	(___ftadd@f1+1)& (0+255),7,b
 11022                           
 11023                           ; BSR set to: 0
 11024  001626  0EFF               	movlw	255
 11025  001628  0100               	movlb	0	; () banked
 11026  00162A  1789               	andwf	___ftadd@f1& (0+255),f,b
 11027  00162C  0EFF               	movlw	255
 11028  00162E  0100               	movlb	0	; () banked
 11029  001630  178A               	andwf	(___ftadd@f1+1)& (0+255),f,b
 11030  001632  0E00               	movlw	0
 11031  001634  0100               	movlb	0	; () banked
 11032  001636  178B               	andwf	(___ftadd@f1+2)& (0+255),f,b
 11033  001638  0100               	movlb	0	; () banked
 11034  00163A  8F8D               	bsf	(___ftadd@f2+1)& (0+255),7,b
 11035                           
 11036                           ; BSR set to: 0
 11037  00163C  0EFF               	movlw	255
 11038  00163E  0100               	movlb	0	; () banked
 11039  001640  178C               	andwf	___ftadd@f2& (0+255),f,b
 11040  001642  0EFF               	movlw	255
 11041  001644  0100               	movlb	0	; () banked
 11042  001646  178D               	andwf	(___ftadd@f2+1)& (0+255),f,b
 11043  001648  0E00               	movlw	0
 11044  00164A  0100               	movlb	0	; () banked
 11045  00164C  178E               	andwf	(___ftadd@f2+2)& (0+255),f,b
 11046                           
 11047                           ; BSR set to: 0
 11048  00164E  0100               	movlb	0	; () banked
 11049  001650  5193               	movf	___ftadd@exp2& (0+255),w,b
 11050  001652  0100               	movlb	0	; () banked
 11051  001654  5D94               	subwf	___ftadd@exp1& (0+255),w,b
 11052  001656  B0D8               	btfsc	status,0,c
 11053  001658  D025               	goto	i2l6094
 11054  00165A                     i2l6084:
 11055                           
 11056                           ; BSR set to: 0
 11057  00165A  0100               	movlb	0	; () banked
 11058  00165C  90D8               	bcf	status,0,c
 11059  00165E  378C               	rlcf	___ftadd@f2& (0+255),f,b
 11060  001660  378D               	rlcf	(___ftadd@f2+1)& (0+255),f,b
 11061  001662  378E               	rlcf	(___ftadd@f2+2)& (0+255),f,b
 11062  001664  0100               	movlb	0	; () banked
 11063  001666  0793               	decf	___ftadd@exp2& (0+255),f,b
 11064                           
 11065                           ; BSR set to: 0
 11066  001668  0100               	movlb	0	; () banked
 11067  00166A  5194               	movf	___ftadd@exp1& (0+255),w,b
 11068  00166C  0100               	movlb	0	; () banked
 11069  00166E  1993               	xorwf	___ftadd@exp2& (0+255),w,b
 11070  001670  B4D8               	btfsc	status,2,c
 11071  001672  D011               	goto	i2l6092
 11072                           
 11073                           ; BSR set to: 0
 11074  001674  0100               	movlb	0	; () banked
 11075  001676  0792               	decf	___ftadd@sign& (0+255),f,b
 11076  001678  C092  F08F         	movff	___ftadd@sign,??___ftadd
 11077  00167C  0E07               	movlw	7
 11078  00167E  0100               	movlb	0	; () banked
 11079  001680  178F               	andwf	??___ftadd& (0+255),f,b
 11080  001682  B4D8               	btfsc	status,2,c
 11081  001684  D008               	goto	i2l6092
 11082  001686  D7E9               	goto	i2l6084
 11083  001688                     i2l6090:
 11084                           
 11085                           ; BSR set to: 0
 11086  001688  0100               	movlb	0	; () banked
 11087  00168A  90D8               	bcf	status,0,c
 11088  00168C  338B               	rrcf	(___ftadd@f1+2)& (0+255),f,b
 11089  00168E  338A               	rrcf	(___ftadd@f1+1)& (0+255),f,b
 11090  001690  3389               	rrcf	___ftadd@f1& (0+255),f,b
 11091  001692  0100               	movlb	0	; () banked
 11092  001694  2B94               	incf	___ftadd@exp1& (0+255),f,b
 11093  001696                     i2l6092:
 11094                           
 11095                           ; BSR set to: 0
 11096  001696  0100               	movlb	0	; () banked
 11097  001698  5193               	movf	___ftadd@exp2& (0+255),w,b
 11098  00169A  0100               	movlb	0	; () banked
 11099  00169C  1994               	xorwf	___ftadd@exp1& (0+255),w,b
 11100  00169E  B4D8               	btfsc	status,2,c
 11101  0016A0  D02B               	goto	i2l1063
 11102  0016A2  D7F2               	goto	i2l6090
 11103  0016A4                     i2l6094:
 11104                           
 11105                           ; BSR set to: 0
 11106  0016A4  0100               	movlb	0	; () banked
 11107  0016A6  5194               	movf	___ftadd@exp1& (0+255),w,b
 11108  0016A8  0100               	movlb	0	; () banked
 11109  0016AA  5D93               	subwf	___ftadd@exp2& (0+255),w,b
 11110  0016AC  B0D8               	btfsc	status,0,c
 11111  0016AE  D024               	goto	i2l1063
 11112  0016B0                     i2l6096:
 11113                           
 11114                           ; BSR set to: 0
 11115  0016B0  0100               	movlb	0	; () banked
 11116  0016B2  90D8               	bcf	status,0,c
 11117  0016B4  3789               	rlcf	___ftadd@f1& (0+255),f,b
 11118  0016B6  378A               	rlcf	(___ftadd@f1+1)& (0+255),f,b
 11119  0016B8  378B               	rlcf	(___ftadd@f1+2)& (0+255),f,b
 11120  0016BA  0100               	movlb	0	; () banked
 11121  0016BC  0794               	decf	___ftadd@exp1& (0+255),f,b
 11122                           
 11123                           ; BSR set to: 0
 11124  0016BE  0100               	movlb	0	; () banked
 11125  0016C0  5194               	movf	___ftadd@exp1& (0+255),w,b
 11126  0016C2  0100               	movlb	0	; () banked
 11127  0016C4  1993               	xorwf	___ftadd@exp2& (0+255),w,b
 11128  0016C6  B4D8               	btfsc	status,2,c
 11129  0016C8  D011               	goto	i2l6104
 11130                           
 11131                           ; BSR set to: 0
 11132  0016CA  0100               	movlb	0	; () banked
 11133  0016CC  0792               	decf	___ftadd@sign& (0+255),f,b
 11134  0016CE  C092  F08F         	movff	___ftadd@sign,??___ftadd
 11135  0016D2  0E07               	movlw	7
 11136  0016D4  0100               	movlb	0	; () banked
 11137  0016D6  178F               	andwf	??___ftadd& (0+255),f,b
 11138  0016D8  B4D8               	btfsc	status,2,c
 11139  0016DA  D008               	goto	i2l6104
 11140  0016DC  D7E9               	goto	i2l6096
 11141  0016DE                     i2l6102:
 11142                           
 11143                           ; BSR set to: 0
 11144  0016DE  0100               	movlb	0	; () banked
 11145  0016E0  90D8               	bcf	status,0,c
 11146  0016E2  338E               	rrcf	(___ftadd@f2+2)& (0+255),f,b
 11147  0016E4  338D               	rrcf	(___ftadd@f2+1)& (0+255),f,b
 11148  0016E6  338C               	rrcf	___ftadd@f2& (0+255),f,b
 11149  0016E8  0100               	movlb	0	; () banked
 11150  0016EA  2B93               	incf	___ftadd@exp2& (0+255),f,b
 11151  0016EC                     i2l6104:
 11152                           
 11153                           ; BSR set to: 0
 11154  0016EC  0100               	movlb	0	; () banked
 11155  0016EE  5193               	movf	___ftadd@exp2& (0+255),w,b
 11156  0016F0  0100               	movlb	0	; () banked
 11157  0016F2  1994               	xorwf	___ftadd@exp1& (0+255),w,b
 11158  0016F4  A4D8               	btfss	status,2,c
 11159  0016F6  D7F3               	goto	i2l6102
 11160  0016F8                     i2l1063:
 11161                           
 11162                           ; BSR set to: 0
 11163  0016F8  0100               	movlb	0	; () banked
 11164  0016FA  AF92               	btfss	___ftadd@sign& (0+255),7,b
 11165  0016FC  D012               	goto	i2l1072
 11166                           
 11167                           ; BSR set to: 0
 11168  0016FE  0EFF               	movlw	255
 11169  001700  0100               	movlb	0	; () banked
 11170  001702  1B89               	xorwf	___ftadd@f1& (0+255),f,b
 11171  001704  0EFF               	movlw	255
 11172  001706  0100               	movlb	0	; () banked
 11173  001708  1B8A               	xorwf	(___ftadd@f1+1)& (0+255),f,b
 11174  00170A  0EFF               	movlw	255
 11175  00170C  0100               	movlb	0	; () banked
 11176  00170E  1B8B               	xorwf	(___ftadd@f1+2)& (0+255),f,b
 11177  001710  0E01               	movlw	1
 11178  001712  0100               	movlb	0	; () banked
 11179  001714  2789               	addwf	___ftadd@f1& (0+255),f,b
 11180  001716  0E00               	movlw	0
 11181  001718  0100               	movlb	0	; () banked
 11182  00171A  238A               	addwfc	(___ftadd@f1+1)& (0+255),f,b
 11183  00171C  0E00               	movlw	0
 11184  00171E  0100               	movlb	0	; () banked
 11185  001720  238B               	addwfc	(___ftadd@f1+2)& (0+255),f,b
 11186  001722                     i2l1072:
 11187                           
 11188                           ; BSR set to: 0
 11189  001722  0100               	movlb	0	; () banked
 11190  001724  AD92               	btfss	___ftadd@sign& (0+255),6,b
 11191  001726  D012               	goto	i2l6110
 11192                           
 11193                           ; BSR set to: 0
 11194  001728  0EFF               	movlw	255
 11195  00172A  0100               	movlb	0	; () banked
 11196  00172C  1B8C               	xorwf	___ftadd@f2& (0+255),f,b
 11197  00172E  0EFF               	movlw	255
 11198  001730  0100               	movlb	0	; () banked
 11199  001732  1B8D               	xorwf	(___ftadd@f2+1)& (0+255),f,b
 11200  001734  0EFF               	movlw	255
 11201  001736  0100               	movlb	0	; () banked
 11202  001738  1B8E               	xorwf	(___ftadd@f2+2)& (0+255),f,b
 11203  00173A  0E01               	movlw	1
 11204  00173C  0100               	movlb	0	; () banked
 11205  00173E  278C               	addwf	___ftadd@f2& (0+255),f,b
 11206  001740  0E00               	movlw	0
 11207  001742  0100               	movlb	0	; () banked
 11208  001744  238D               	addwfc	(___ftadd@f2+1)& (0+255),f,b
 11209  001746  0E00               	movlw	0
 11210  001748  0100               	movlb	0	; () banked
 11211  00174A  238E               	addwfc	(___ftadd@f2+2)& (0+255),f,b
 11212  00174C                     i2l6110:
 11213                           
 11214                           ; BSR set to: 0
 11215  00174C  0E00               	movlw	0
 11216  00174E  0100               	movlb	0	; () banked
 11217  001750  6F92               	movwf	___ftadd@sign& (0+255),b
 11218                           
 11219                           ; BSR set to: 0
 11220  001752  0100               	movlb	0	; () banked
 11221  001754  5189               	movf	___ftadd@f1& (0+255),w,b
 11222  001756  0100               	movlb	0	; () banked
 11223  001758  278C               	addwf	___ftadd@f2& (0+255),f,b
 11224  00175A  0100               	movlb	0	; () banked
 11225  00175C  518A               	movf	(___ftadd@f1+1)& (0+255),w,b
 11226  00175E  0100               	movlb	0	; () banked
 11227  001760  238D               	addwfc	(___ftadd@f2+1)& (0+255),f,b
 11228  001762  0100               	movlb	0	; () banked
 11229  001764  518B               	movf	(___ftadd@f1+2)& (0+255),w,b
 11230  001766  0100               	movlb	0	; () banked
 11231  001768  238E               	addwfc	(___ftadd@f2+2)& (0+255),f,b
 11232                           
 11233                           ; BSR set to: 0
 11234  00176A  0100               	movlb	0	; () banked
 11235  00176C  AF8E               	btfss	(___ftadd@f2+2)& (0+255),7,b
 11236  00176E  D015               	goto	i2l6120
 11237                           
 11238                           ; BSR set to: 0
 11239  001770  0EFF               	movlw	255
 11240  001772  0100               	movlb	0	; () banked
 11241  001774  1B8C               	xorwf	___ftadd@f2& (0+255),f,b
 11242  001776  0EFF               	movlw	255
 11243  001778  0100               	movlb	0	; () banked
 11244  00177A  1B8D               	xorwf	(___ftadd@f2+1)& (0+255),f,b
 11245  00177C  0EFF               	movlw	255
 11246  00177E  0100               	movlb	0	; () banked
 11247  001780  1B8E               	xorwf	(___ftadd@f2+2)& (0+255),f,b
 11248  001782  0E01               	movlw	1
 11249  001784  0100               	movlb	0	; () banked
 11250  001786  278C               	addwf	___ftadd@f2& (0+255),f,b
 11251  001788  0E00               	movlw	0
 11252  00178A  0100               	movlb	0	; () banked
 11253  00178C  238D               	addwfc	(___ftadd@f2+1)& (0+255),f,b
 11254  00178E  0E00               	movlw	0
 11255  001790  0100               	movlb	0	; () banked
 11256  001792  238E               	addwfc	(___ftadd@f2+2)& (0+255),f,b
 11257                           
 11258                           ; BSR set to: 0
 11259  001794  0E01               	movlw	1
 11260  001796  0100               	movlb	0	; () banked
 11261  001798  6F92               	movwf	___ftadd@sign& (0+255),b
 11262  00179A                     i2l6120:
 11263                           
 11264                           ; BSR set to: 0
 11265  00179A  C08C  F060         	movff	___ftadd@f2,___ftpack@arg
 11266  00179E  C08D  F061         	movff	___ftadd@f2+1,___ftpack@arg+1
 11267  0017A2  C08E  F062         	movff	___ftadd@f2+2,___ftpack@arg+2
 11268  0017A6  C094  F063         	movff	___ftadd@exp1,___ftpack@exp
 11269  0017AA  C092  F064         	movff	___ftadd@sign,___ftpack@sign
 11270  0017AE  ECA3  F011         	call	___ftpack	;wreg free
 11271  0017B2  C060  F089         	movff	?___ftpack,?___ftadd
 11272  0017B6  C061  F08A         	movff	?___ftpack+1,?___ftadd+1
 11273  0017BA  C062  F08B         	movff	?___ftpack+2,?___ftadd+2
 11274  0017BE  0012               	return	
 11275  0017C0                     __end_of___ftadd:
 11276                           	opt stack 0
 11277                           pclatu	equ	0xFFB
 11278                           pclath	equ	0xFFA
 11279                           tblptru	equ	0xFF8
 11280                           tblptrh	equ	0xFF7
 11281                           tblptrl	equ	0xFF6
 11282                           tablat	equ	0xFF5
 11283                           prodh	equ	0xFF4
 11284                           prodl	equ	0xFF3
 11285                           intcon	equ	0xFF2
 11286                           intcon2	equ	0xFF1
 11287                           intcon3	equ	0xFF0
 11288                           postinc0	equ	0xFEE
 11289                           fsr0h	equ	0xFEA
 11290                           fsr0l	equ	0xFE9
 11291                           wreg	equ	0xFE8
 11292                           postinc1	equ	0xFE6
 11293                           postdec1	equ	0xFE5
 11294                           fsr1h	equ	0xFE2
 11295                           fsr1l	equ	0xFE1
 11296                           bsr	equ	0xFE0
 11297                           indf2	equ	0xFDF
 11298                           postinc2	equ	0xFDE
 11299                           postdec2	equ	0xFDD
 11300                           fsr2h	equ	0xFDA
 11301                           fsr2l	equ	0xFD9
 11302                           status	equ	0xFD8
 11303                           
 11304 ;; *************** function ___ftpack *****************
 11305 ;; Defined at:
 11306 ;;		line 62 in file "C:\Program Files\Microchip\xc8\v1.35\sources\common\float.c"
 11307 ;; Parameters:    Size  Location     Type
 11308 ;;  arg             3    0[BANK0 ] unsigned um
 11309 ;;  exp             1    3[BANK0 ] unsigned char 
 11310 ;;  sign            1    4[BANK0 ] unsigned char 
 11311 ;; Auto vars:     Size  Location     Type
 11312 ;;		None
 11313 ;; Return value:  Size  Location     Type
 11314 ;;                  3    0[BANK0 ] float 
 11315 ;; Registers used:
 11316 ;;		wreg, status,2, status,0
 11317 ;; Tracked objects:
 11318 ;;		On entry : 0/0
 11319 ;;		On exit  : 0/0
 11320 ;;		Unchanged: 0/0
 11321 ;; Data sizes:     COMRAM   BANK0   BANK1   BANK2
 11322 ;;      Params:         0       5       0       0
 11323 ;;      Locals:         0       0       0       0
 11324 ;;      Temps:          0       3       0       0
 11325 ;;      Totals:         0       8       0       0
 11326 ;;Total ram usage:        8 bytes
 11327 ;; Hardware stack levels used:    1
 11328 ;; This function calls:
 11329 ;;		Nothing
 11330 ;; This function is called by:
 11331 ;;		___ftadd
 11332 ;;		___ftdiv
 11333 ;;		___ftmul
 11334 ;;		___lwtoft
 11335 ;; This function uses a non-reentrant model
 11336 ;;
 11337                           
 11338                           	psect	text41
 11339  002346                     __ptext41:
 11340                           	opt stack 0
 11341  002346                     ___ftpack:
 11342                           	opt stack 20
 11343                           
 11344                           ;incstack = 0
 11345  002346  0100               	movlb	0	; () banked
 11346  002348  5163               	movf	___ftpack@exp& (0+255),w,b
 11347  00234A  0100               	movlb	0	; () banked
 11348  00234C  B4D8               	btfsc	status,2,c
 11349  00234E  D008               	goto	i2l5672
 11350                           
 11351                           ; BSR set to: 0
 11352  002350  0100               	movlb	0	; () banked
 11353  002352  5160               	movf	___ftpack@arg& (0+255),w,b
 11354  002354  0100               	movlb	0	; () banked
 11355  002356  1161               	iorwf	(___ftpack@arg+1)& (0+255),w,b
 11356  002358  0100               	movlb	0	; () banked
 11357  00235A  1162               	iorwf	(___ftpack@arg+2)& (0+255),w,b
 11358  00235C  A4D8               	btfss	status,2,c
 11359  00235E  D011               	goto	i2l5678
 11360  002360                     i2l5672:
 11361                           
 11362                           ; BSR set to: 0
 11363  002360  0E00               	movlw	0
 11364  002362  0100               	movlb	0	; () banked
 11365  002364  6F60               	movwf	?___ftpack& (0+255),b
 11366  002366  0E00               	movlw	0
 11367  002368  0100               	movlb	0	; () banked
 11368  00236A  6F61               	movwf	(?___ftpack+1)& (0+255),b
 11369  00236C  0E00               	movlw	0
 11370  00236E  0100               	movlb	0	; () banked
 11371  002370  6F62               	movwf	(?___ftpack+2)& (0+255),b
 11372                           
 11373                           ; BSR set to: 0
 11374  002372  0012               	return	
 11375  002374                     i2l5676:
 11376                           
 11377                           ; BSR set to: 0
 11378  002374  0100               	movlb	0	; () banked
 11379  002376  2B63               	incf	___ftpack@exp& (0+255),f,b
 11380  002378  0100               	movlb	0	; () banked
 11381  00237A  90D8               	bcf	status,0,c
 11382  00237C  3362               	rrcf	(___ftpack@arg+2)& (0+255),f,b
 11383  00237E  3361               	rrcf	(___ftpack@arg+1)& (0+255),f,b
 11384  002380  3360               	rrcf	___ftpack@arg& (0+255),f,b
 11385  002382                     i2l5678:
 11386                           
 11387                           ; BSR set to: 0
 11388  002382  0E00               	movlw	0
 11389  002384  0100               	movlb	0	; () banked
 11390  002386  1560               	andwf	___ftpack@arg& (0+255),w,b
 11391  002388  0100               	movlb	0	; () banked
 11392  00238A  6F65               	movwf	??___ftpack& (0+255),b
 11393  00238C  0E00               	movlw	0
 11394  00238E  0100               	movlb	0	; () banked
 11395  002390  1561               	andwf	(___ftpack@arg+1)& (0+255),w,b
 11396  002392  0100               	movlb	0	; () banked
 11397  002394  6F66               	movwf	(??___ftpack+1)& (0+255),b
 11398  002396  0EFE               	movlw	254
 11399  002398  0100               	movlb	0	; () banked
 11400  00239A  1562               	andwf	(___ftpack@arg+2)& (0+255),w,b
 11401  00239C  0100               	movlb	0	; () banked
 11402  00239E  6F67               	movwf	(??___ftpack+2)& (0+255),b
 11403  0023A0  0100               	movlb	0	; () banked
 11404  0023A2  5165               	movf	??___ftpack& (0+255),w,b
 11405  0023A4  0100               	movlb	0	; () banked
 11406  0023A6  1166               	iorwf	(??___ftpack+1)& (0+255),w,b
 11407  0023A8  0100               	movlb	0	; () banked
 11408  0023AA  1167               	iorwf	(??___ftpack+2)& (0+255),w,b
 11409  0023AC  B4D8               	btfsc	status,2,c
 11410  0023AE  D011               	goto	i2l5684
 11411  0023B0  D7E1               	goto	i2l5676
 11412  0023B2                     i2l5680:
 11413                           
 11414                           ; BSR set to: 0
 11415  0023B2  0100               	movlb	0	; () banked
 11416  0023B4  2B63               	incf	___ftpack@exp& (0+255),f,b
 11417                           
 11418                           ; BSR set to: 0
 11419  0023B6  0E01               	movlw	1
 11420  0023B8  0100               	movlb	0	; () banked
 11421  0023BA  2760               	addwf	___ftpack@arg& (0+255),f,b
 11422  0023BC  0E00               	movlw	0
 11423  0023BE  0100               	movlb	0	; () banked
 11424  0023C0  2361               	addwfc	(___ftpack@arg+1)& (0+255),f,b
 11425  0023C2  0E00               	movlw	0
 11426  0023C4  0100               	movlb	0	; () banked
 11427  0023C6  2362               	addwfc	(___ftpack@arg+2)& (0+255),f,b
 11428  0023C8  0100               	movlb	0	; () banked
 11429  0023CA  90D8               	bcf	status,0,c
 11430  0023CC  3362               	rrcf	(___ftpack@arg+2)& (0+255),f,b
 11431  0023CE  3361               	rrcf	(___ftpack@arg+1)& (0+255),f,b
 11432  0023D0  3360               	rrcf	___ftpack@arg& (0+255),f,b
 11433  0023D2                     i2l5684:
 11434                           
 11435                           ; BSR set to: 0
 11436  0023D2  0E00               	movlw	0
 11437  0023D4  0100               	movlb	0	; () banked
 11438  0023D6  1560               	andwf	___ftpack@arg& (0+255),w,b
 11439  0023D8  0100               	movlb	0	; () banked
 11440  0023DA  6F65               	movwf	??___ftpack& (0+255),b
 11441  0023DC  0E00               	movlw	0
 11442  0023DE  0100               	movlb	0	; () banked
 11443  0023E0  1561               	andwf	(___ftpack@arg+1)& (0+255),w,b
 11444  0023E2  0100               	movlb	0	; () banked
 11445  0023E4  6F66               	movwf	(??___ftpack+1)& (0+255),b
 11446  0023E6  0EFF               	movlw	255
 11447  0023E8  0100               	movlb	0	; () banked
 11448  0023EA  1562               	andwf	(___ftpack@arg+2)& (0+255),w,b
 11449  0023EC  0100               	movlb	0	; () banked
 11450  0023EE  6F67               	movwf	(??___ftpack+2)& (0+255),b
 11451  0023F0  0100               	movlb	0	; () banked
 11452  0023F2  5165               	movf	??___ftpack& (0+255),w,b
 11453  0023F4  0100               	movlb	0	; () banked
 11454  0023F6  1166               	iorwf	(??___ftpack+1)& (0+255),w,b
 11455  0023F8  0100               	movlb	0	; () banked
 11456  0023FA  1167               	iorwf	(??___ftpack+2)& (0+255),w,b
 11457  0023FC  B4D8               	btfsc	status,2,c
 11458  0023FE  D008               	goto	i2l5688
 11459  002400  D7D8               	goto	i2l5680
 11460  002402                     i2l5686:
 11461                           
 11462                           ; BSR set to: 0
 11463  002402  0100               	movlb	0	; () banked
 11464  002404  0763               	decf	___ftpack@exp& (0+255),f,b
 11465  002406  0100               	movlb	0	; () banked
 11466  002408  90D8               	bcf	status,0,c
 11467  00240A  3760               	rlcf	___ftpack@arg& (0+255),f,b
 11468  00240C  3761               	rlcf	(___ftpack@arg+1)& (0+255),f,b
 11469  00240E  3762               	rlcf	(___ftpack@arg+2)& (0+255),f,b
 11470  002410                     i2l5688:
 11471                           
 11472                           ; BSR set to: 0
 11473  002410  0100               	movlb	0	; () banked
 11474  002412  BF61               	btfsc	(___ftpack@arg+1)& (0+255),7,b
 11475  002414  D004               	goto	i2l1025
 11476                           
 11477                           ; BSR set to: 0
 11478  002416  0E02               	movlw	2
 11479  002418  0100               	movlb	0	; () banked
 11480  00241A  6163               	cpfslt	___ftpack@exp& (0+255),b
 11481  00241C  D7F2               	goto	i2l5686
 11482  00241E                     i2l1025:
 11483                           
 11484                           ; BSR set to: 0
 11485  00241E  0100               	movlb	0	; () banked
 11486  002420  B163               	btfsc	___ftpack@exp& (0+255),0,b
 11487  002422  D002               	goto	i2l5694
 11488                           
 11489                           ; BSR set to: 0
 11490  002424  0100               	movlb	0	; () banked
 11491  002426  9F61               	bcf	(___ftpack@arg+1)& (0+255),7,b
 11492  002428                     i2l5694:
 11493                           
 11494                           ; BSR set to: 0
 11495  002428  0100               	movlb	0	; () banked
 11496  00242A  90D8               	bcf	status,0,c
 11497  00242C  3363               	rrcf	___ftpack@exp& (0+255),f,b
 11498  00242E  0100               	movlb	0	; () banked
 11499  002430  5163               	movf	___ftpack@exp& (0+255),w,b
 11500  002432  0100               	movlb	0	; () banked
 11501  002434  1362               	iorwf	(___ftpack@arg+2)& (0+255),f,b
 11502                           
 11503                           ; BSR set to: 0
 11504  002436  0100               	movlb	0	; () banked
 11505  002438  5164               	movf	___ftpack@sign& (0+255),w,b
 11506  00243A  0100               	movlb	0	; () banked
 11507  00243C  B4D8               	btfsc	status,2,c
 11508  00243E  D002               	goto	i2l5700
 11509                           
 11510                           ; BSR set to: 0
 11511  002440  0100               	movlb	0	; () banked
 11512  002442  8F62               	bsf	(___ftpack@arg+2)& (0+255),7,b
 11513  002444                     i2l5700:
 11514                           
 11515                           ; BSR set to: 0
 11516  002444  C060  F060         	movff	___ftpack@arg,?___ftpack
 11517  002448  C061  F061         	movff	___ftpack@arg+1,?___ftpack+1
 11518  00244C  C062  F062         	movff	___ftpack@arg+2,?___ftpack+2
 11519  002450  0012               	return	
 11520  002452                     __end_of___ftpack:
 11521                           	opt stack 0
 11522                           pclatu	equ	0xFFB
 11523                           pclath	equ	0xFFA
 11524                           tblptru	equ	0xFF8
 11525                           tblptrh	equ	0xFF7
 11526                           tblptrl	equ	0xFF6
 11527                           tablat	equ	0xFF5
 11528                           prodh	equ	0xFF4
 11529                           prodl	equ	0xFF3
 11530                           intcon	equ	0xFF2
 11531                           intcon2	equ	0xFF1
 11532                           intcon3	equ	0xFF0
 11533                           postinc0	equ	0xFEE
 11534                           fsr0h	equ	0xFEA
 11535                           fsr0l	equ	0xFE9
 11536                           wreg	equ	0xFE8
 11537                           postinc1	equ	0xFE6
 11538                           postdec1	equ	0xFE5
 11539                           fsr1h	equ	0xFE2
 11540                           fsr1l	equ	0xFE1
 11541                           bsr	equ	0xFE0
 11542                           indf2	equ	0xFDF
 11543                           postinc2	equ	0xFDE
 11544                           postdec2	equ	0xFDD
 11545                           fsr2h	equ	0xFDA
 11546                           fsr2l	equ	0xFD9
 11547                           status	equ	0xFD8
 11548                           
 11549 ;; *************** function ___awmod *****************
 11550 ;; Defined at:
 11551 ;;		line 8 in file "C:\Program Files\Microchip\xc8\v1.35\sources\common\awmod.c"
 11552 ;; Parameters:    Size  Location     Type
 11553 ;;  dividend        2   76[BANK0 ] int 
 11554 ;;  divisor         2   78[BANK0 ] int 
 11555 ;; Auto vars:     Size  Location     Type
 11556 ;;  sign            1   81[BANK0 ] unsigned char 
 11557 ;;  counter         1   80[BANK0 ] unsigned char 
 11558 ;; Return value:  Size  Location     Type
 11559 ;;                  2   76[BANK0 ] int 
 11560 ;; Registers used:
 11561 ;;		wreg, status,2, status,0
 11562 ;; Tracked objects:
 11563 ;;		On entry : 0/0
 11564 ;;		On exit  : 0/0
 11565 ;;		Unchanged: 0/0
 11566 ;; Data sizes:     COMRAM   BANK0   BANK1   BANK2
 11567 ;;      Params:         0       4       0       0
 11568 ;;      Locals:         0       2       0       0
 11569 ;;      Temps:          0       0       0       0
 11570 ;;      Totals:         0       6       0       0
 11571 ;;Total ram usage:        6 bytes
 11572 ;; Hardware stack levels used:    1
 11573 ;; This function calls:
 11574 ;;		Nothing
 11575 ;; This function is called by:
 11576 ;;		_high_isr
 11577 ;; This function uses a non-reentrant model
 11578 ;;
 11579                           
 11580                           	psect	text42
 11581  002934                     __ptext42:
 11582                           	opt stack 0
 11583  002934                     ___awmod:
 11584                           	opt stack 21
 11585                           
 11586                           ; BSR set to: 0
 11587                           ;incstack = 0
 11588  002934  0E00               	movlw	0
 11589  002936  0100               	movlb	0	; () banked
 11590  002938  6FB1               	movwf	___awmod@sign& (0+255),b
 11591                           
 11592                           ; BSR set to: 0
 11593  00293A  0100               	movlb	0	; () banked
 11594  00293C  AFAD               	btfss	(___awmod@dividend+1)& (0+255),7,b
 11595  00293E  D008               	goto	i2l6226
 11596                           
 11597                           ; BSR set to: 0
 11598  002940  0100               	movlb	0	; () banked
 11599  002942  6DAC               	negf	___awmod@dividend& (0+255),b
 11600  002944  1FAD               	comf	(___awmod@dividend+1)& (0+255),f,b
 11601  002946  B0D8               	btfsc	status,0,c
 11602  002948  2BAD               	incf	(___awmod@dividend+1)& (0+255),f,b
 11603                           
 11604                           ; BSR set to: 0
 11605  00294A  0E01               	movlw	1
 11606  00294C  0100               	movlb	0	; () banked
 11607  00294E  6FB1               	movwf	___awmod@sign& (0+255),b
 11608  002950                     i2l6226:
 11609                           
 11610                           ; BSR set to: 0
 11611  002950  0100               	movlb	0	; () banked
 11612  002952  AFAF               	btfss	(___awmod@divisor+1)& (0+255),7,b
 11613  002954  D005               	goto	i2l6230
 11614                           
 11615                           ; BSR set to: 0
 11616  002956  0100               	movlb	0	; () banked
 11617  002958  6DAE               	negf	___awmod@divisor& (0+255),b
 11618  00295A  1FAF               	comf	(___awmod@divisor+1)& (0+255),f,b
 11619  00295C  B0D8               	btfsc	status,0,c
 11620  00295E  2BAF               	incf	(___awmod@divisor+1)& (0+255),f,b
 11621  002960                     i2l6230:
 11622                           
 11623                           ; BSR set to: 0
 11624  002960  0100               	movlb	0	; () banked
 11625  002962  51AE               	movf	___awmod@divisor& (0+255),w,b
 11626  002964  0100               	movlb	0	; () banked
 11627  002966  11AF               	iorwf	(___awmod@divisor+1)& (0+255),w,b
 11628  002968  B4D8               	btfsc	status,2,c
 11629  00296A  D026               	goto	i2l6246
 11630                           
 11631                           ; BSR set to: 0
 11632  00296C  0E01               	movlw	1
 11633  00296E  0100               	movlb	0	; () banked
 11634  002970  6FB0               	movwf	___awmod@counter& (0+255),b
 11635  002972  D006               	goto	i2l6236
 11636  002974                     i2l6234:
 11637                           
 11638                           ; BSR set to: 0
 11639  002974  0100               	movlb	0	; () banked
 11640  002976  90D8               	bcf	status,0,c
 11641  002978  37AE               	rlcf	___awmod@divisor& (0+255),f,b
 11642  00297A  37AF               	rlcf	(___awmod@divisor+1)& (0+255),f,b
 11643  00297C  0100               	movlb	0	; () banked
 11644  00297E  2BB0               	incf	___awmod@counter& (0+255),f,b
 11645  002980                     i2l6236:
 11646                           
 11647                           ; BSR set to: 0
 11648  002980  0100               	movlb	0	; () banked
 11649  002982  AFAF               	btfss	(___awmod@divisor+1)& (0+255),7,b
 11650  002984  D7F7               	goto	i2l6234
 11651  002986                     i2l6238:
 11652                           
 11653                           ; BSR set to: 0
 11654  002986  0100               	movlb	0	; () banked
 11655  002988  51AE               	movf	___awmod@divisor& (0+255),w,b
 11656  00298A  0100               	movlb	0	; () banked
 11657  00298C  5DAC               	subwf	___awmod@dividend& (0+255),w,b
 11658  00298E  0100               	movlb	0	; () banked
 11659  002990  51AF               	movf	(___awmod@divisor+1)& (0+255),w,b
 11660  002992  0100               	movlb	0	; () banked
 11661  002994  59AD               	subwfb	(___awmod@dividend+1)& (0+255),w,b
 11662  002996  A0D8               	btfss	status,0,c
 11663  002998  D008               	goto	i2l6242
 11664                           
 11665                           ; BSR set to: 0
 11666  00299A  0100               	movlb	0	; () banked
 11667  00299C  51AE               	movf	___awmod@divisor& (0+255),w,b
 11668  00299E  0100               	movlb	0	; () banked
 11669  0029A0  5FAC               	subwf	___awmod@dividend& (0+255),f,b
 11670  0029A2  0100               	movlb	0	; () banked
 11671  0029A4  51AF               	movf	(___awmod@divisor+1)& (0+255),w,b
 11672  0029A6  0100               	movlb	0	; () banked
 11673  0029A8  5BAD               	subwfb	(___awmod@dividend+1)& (0+255),f,b
 11674  0029AA                     i2l6242:
 11675                           
 11676                           ; BSR set to: 0
 11677  0029AA  0100               	movlb	0	; () banked
 11678  0029AC  90D8               	bcf	status,0,c
 11679  0029AE  33AF               	rrcf	(___awmod@divisor+1)& (0+255),f,b
 11680  0029B0  33AE               	rrcf	___awmod@divisor& (0+255),f,b
 11681                           
 11682                           ; BSR set to: 0
 11683  0029B2  0100               	movlb	0	; () banked
 11684  0029B4  2FB0               	decfsz	___awmod@counter& (0+255),f,b
 11685  0029B6  D7E7               	goto	i2l6238
 11686  0029B8                     i2l6246:
 11687                           
 11688                           ; BSR set to: 0
 11689  0029B8  0100               	movlb	0	; () banked
 11690  0029BA  51B1               	movf	___awmod@sign& (0+255),w,b
 11691  0029BC  0100               	movlb	0	; () banked
 11692  0029BE  B4D8               	btfsc	status,2,c
 11693  0029C0  D005               	goto	i2l6250
 11694                           
 11695                           ; BSR set to: 0
 11696  0029C2  0100               	movlb	0	; () banked
 11697  0029C4  6DAC               	negf	___awmod@dividend& (0+255),b
 11698  0029C6  1FAD               	comf	(___awmod@dividend+1)& (0+255),f,b
 11699  0029C8  B0D8               	btfsc	status,0,c
 11700  0029CA  2BAD               	incf	(___awmod@dividend+1)& (0+255),f,b
 11701  0029CC                     i2l6250:
 11702                           
 11703                           ; BSR set to: 0
 11704  0029CC  C0AC  F0AC         	movff	___awmod@dividend,?___awmod
 11705  0029D0  C0AD  F0AD         	movff	___awmod@dividend+1,?___awmod+1
 11706  0029D4  0012               	return	
 11707  0029D6                     __end_of___awmod:
 11708                           	opt stack 0
 11709                           pclatu	equ	0xFFB
 11710                           pclath	equ	0xFFA
 11711                           tblptru	equ	0xFF8
 11712                           tblptrh	equ	0xFF7
 11713                           tblptrl	equ	0xFF6
 11714                           tablat	equ	0xFF5
 11715                           prodh	equ	0xFF4
 11716                           prodl	equ	0xFF3
 11717                           intcon	equ	0xFF2
 11718                           intcon2	equ	0xFF1
 11719                           intcon3	equ	0xFF0
 11720                           postinc0	equ	0xFEE
 11721                           fsr0h	equ	0xFEA
 11722                           fsr0l	equ	0xFE9
 11723                           wreg	equ	0xFE8
 11724                           postinc1	equ	0xFE6
 11725                           postdec1	equ	0xFE5
 11726                           fsr1h	equ	0xFE2
 11727                           fsr1l	equ	0xFE1
 11728                           bsr	equ	0xFE0
 11729                           indf2	equ	0xFDF
 11730                           postinc2	equ	0xFDE
 11731                           postdec2	equ	0xFDD
 11732                           fsr2h	equ	0xFDA
 11733                           fsr2l	equ	0xFD9
 11734                           status	equ	0xFD8
 11735                           pclatu	equ	0xFFB
 11736                           pclath	equ	0xFFA
 11737                           tblptru	equ	0xFF8
 11738                           tblptrh	equ	0xFF7
 11739                           tblptrl	equ	0xFF6
 11740                           tablat	equ	0xFF5
 11741                           prodh	equ	0xFF4
 11742                           prodl	equ	0xFF3
 11743                           intcon	equ	0xFF2
 11744                           intcon2	equ	0xFF1
 11745                           intcon3	equ	0xFF0
 11746                           postinc0	equ	0xFEE
 11747                           fsr0h	equ	0xFEA
 11748                           fsr0l	equ	0xFE9
 11749                           wreg	equ	0xFE8
 11750                           postinc1	equ	0xFE6
 11751                           postdec1	equ	0xFE5
 11752                           fsr1h	equ	0xFE2
 11753                           fsr1l	equ	0xFE1
 11754                           bsr	equ	0xFE0
 11755                           indf2	equ	0xFDF
 11756                           postinc2	equ	0xFDE
 11757                           postdec2	equ	0xFDD
 11758                           fsr2h	equ	0xFDA
 11759                           fsr2l	equ	0xFD9
 11760                           status	equ	0xFD8
 11761                           
 11762                           	psect	param0
 11763  0000                     pclatu	equ	0xFFB
 11764                           pclath	equ	0xFFA
 11765                           tblptru	equ	0xFF8
 11766                           tblptrh	equ	0xFF7
 11767                           tblptrl	equ	0xFF6
 11768                           tablat	equ	0xFF5
 11769                           prodh	equ	0xFF4
 11770                           prodl	equ	0xFF3
 11771                           intcon	equ	0xFF2
 11772                           intcon2	equ	0xFF1
 11773                           intcon3	equ	0xFF0
 11774                           postinc0	equ	0xFEE
 11775                           fsr0h	equ	0xFEA
 11776                           fsr0l	equ	0xFE9
 11777                           wreg	equ	0xFE8
 11778                           postinc1	equ	0xFE6
 11779                           postdec1	equ	0xFE5
 11780                           fsr1h	equ	0xFE2
 11781                           fsr1l	equ	0xFE1
 11782                           bsr	equ	0xFE0
 11783                           indf2	equ	0xFDF
 11784                           postinc2	equ	0xFDE
 11785                           postdec2	equ	0xFDD
 11786                           fsr2h	equ	0xFDA
 11787                           fsr2l	equ	0xFD9
 11788                           status	equ	0xFD8
 11789                           
 11790                           	psect	temp
 11791  000041                     btemp:
 11792                           	opt stack 0
 11793  000041                     	ds	1
 11794  0000                     int$flags	set	btemp
 11795                           pclatu	equ	0xFFB
 11796                           pclath	equ	0xFFA
 11797                           tblptru	equ	0xFF8
 11798                           tblptrh	equ	0xFF7
 11799                           tblptrl	equ	0xFF6
 11800                           tablat	equ	0xFF5
 11801                           prodh	equ	0xFF4
 11802                           prodl	equ	0xFF3
 11803                           intcon	equ	0xFF2
 11804                           intcon2	equ	0xFF1
 11805                           intcon3	equ	0xFF0
 11806                           postinc0	equ	0xFEE
 11807                           fsr0h	equ	0xFEA
 11808                           fsr0l	equ	0xFE9
 11809                           wreg	equ	0xFE8
 11810                           postinc1	equ	0xFE6
 11811                           postdec1	equ	0xFE5
 11812                           fsr1h	equ	0xFE2
 11813                           fsr1l	equ	0xFE1
 11814                           bsr	equ	0xFE0
 11815                           indf2	equ	0xFDF
 11816                           postinc2	equ	0xFDE
 11817                           postdec2	equ	0xFDD
 11818                           fsr2h	equ	0xFDA
 11819                           fsr2l	equ	0xFD9
 11820                           status	equ	0xFD8


Data Sizes:
    Strings     77
    Constant    0
    Data        3
    BSS         268
    Persistent  9
    Stack       0

Auto Spaces:
    Space          Size  Autos    Used
    COMRAM           94     33      64
    BANK0           160    104     142
    BANK1           256     17     228
    BANK2           256      0       0

Pointer List with Targets:

    strcpy@from	PTR const unsigned char  size(2) Largest target is 17
		 -> STR_9(CODE[4]), STR_8(CODE[3]), STR_7(CODE[5]), STR_6(CODE[7]), 
		 -> STR_5(CODE[8]), STR_4(CODE[17]), STR_3(CODE[13]), STR_2(CODE[11]), 
		 -> STR_1(CODE[9]), 

    strcpy@to	PTR unsigned char  size(2) Largest target is 32
		 -> lcd_string(BANK1[32]), 

    strcpy@cp	PTR unsigned char  size(2) Largest target is 32
		 -> lcd_string(BANK1[32]), 

    i2c_read@i2c_data	PTR unsigned char  size(2) Largest target is 1
		 -> dsth01_status(COMRAM[1]), humH(COMRAM[1]), humL(COMRAM[1]), tempH(COMRAM[1]), 
		 -> tempL(COMRAM[1]), 

    ptr_lcd_string	PTR unsigned char  size(2) Largest target is 32
		 -> NULL(NULL[0]), lcd_string(BANK1[32]), 

    write_str_lcd@ptr_char	PTR unsigned char  size(2) Largest target is 32
		 -> lcd_string(BANK1[32]), 

    sp__strcpy	PTR unsigned char  size(2) Largest target is 32
		 -> lcd_string(BANK1[32]), 


Critical Paths under _main in COMRAM

    None.

Critical Paths under _high_isr in COMRAM

    None.

Critical Paths under _low_isr in COMRAM

    _bin_udp->___lwmod
    ___lwmod->___lwdiv
    _bin_io_lcd->i1_write_str_lcd
    i1_write_str_lcd->i1_delay_us
    i1_write_com_lcd->i1_delay_us
    i1_delay_ms->i1___wmul
    _write_char_lcd->i1_delay_us
    i1_delay_us->i1___awdiv

Critical Paths under _main in BANK0

    None.

Critical Paths under _high_isr in BANK0

    _high_isr->___awmod
    i2___lwmod->i2___lwdiv
    i2___awdiv->___fttol
    _read_dsth01->_i2c_read
    ___lwtoft->___ftpack
    ___fttol->___ftadd
    ___ftmul->___lwtoft
    ___ftdiv->___ftmul
    ___ftadd->___ftdiv
    ___awmod->i2___awdiv

Critical Paths under _low_isr in BANK0

    None.

Critical Paths under _main in BANK1

    _main->_write_str_lcd
    _write_str_lcd->_delay_us
    _write_com_lcd->_delay_us
    _init_lcd->_delay_us
    _delay_us->___awdiv
    _delay_ms->___wmul

Critical Paths under _high_isr in BANK1

    None.

Critical Paths under _low_isr in BANK1

    None.

Critical Paths under _main in BANK2

    None.

Critical Paths under _high_isr in BANK2

    None.

Critical Paths under _low_isr in BANK2

    None.

Call Graph Tables:

 ---------------------------------------------------------------------------------
 (Depth) Function   	        Calls       Base Space   Used Autos Params    Refs
 ---------------------------------------------------------------------------------
 (0) _main                                                 1     1      0   13234
                                             16 BANK1      1     1      0
                           _i2c_init
                               _init
                           _init_lcd
                         _rs232_init
                             _setint
                             _strcpy
                      _write_com_lcd
                      _write_str_lcd
 ---------------------------------------------------------------------------------
 (1) _write_str_lcd                                        3     1      2    3854
                                             13 BANK1      3     1      2
                           _delay_us
 ---------------------------------------------------------------------------------
 (1) _write_com_lcd                                        1     1      0    4047
                                             13 BANK1      1     1      0
                           _delay_ms
                           _delay_us
 ---------------------------------------------------------------------------------
 (1) _strcpy                                               6     2      4    1215
                                              0 BANK1      6     2      4
 ---------------------------------------------------------------------------------
 (1) _setint                                               0     0      0       0
 ---------------------------------------------------------------------------------
 (1) _rs232_init                                           0     0      0       0
 ---------------------------------------------------------------------------------
 (1) _init_lcd                                             0     0      0    3954
                           _delay_ms
                           _delay_us
 ---------------------------------------------------------------------------------
 (2) _delay_us                                             5     3      2    3109
                                              8 BANK1      5     3      2
                            ___awdiv
 ---------------------------------------------------------------------------------
 (3) ___awdiv                                              8     4      4    1187
                                              0 BANK1      8     4      4
 ---------------------------------------------------------------------------------
 (2) _delay_ms                                             5     3      2     845
                                              6 BANK1      5     3      2
                             ___wmul
 ---------------------------------------------------------------------------------
 (3) ___wmul                                               6     2      4     392
                                              0 BANK1      6     2      4
 ---------------------------------------------------------------------------------
 (1) _init                                                 1     1      0     161
                                              0 BANK1      1     1      0
 ---------------------------------------------------------------------------------
 (1) _i2c_init                                             0     0      0       0
 ---------------------------------------------------------------------------------
 Estimated maximum stack depth 3
 ---------------------------------------------------------------------------------
 (Depth) Function   	        Calls       Base Space   Used Autos Params    Refs
 ---------------------------------------------------------------------------------
 (4) _low_isr                                             17    17      0    3992
                                             16 COMRAM    17    17      0
                             _bin_io
                         _bin_io_lcd
                            _bin_udp
 ---------------------------------------------------------------------------------
 (5) _bin_udp                                              0     0      0    1137
                            ___lwdiv
                            ___lwmod
 ---------------------------------------------------------------------------------
 (6) ___lwmod                                              5     1      4     567
                                              7 COMRAM     5     1      4
                            ___lwdiv (ARG)
 ---------------------------------------------------------------------------------
 (6) ___lwdiv                                              7     3      4     570
                                              0 COMRAM     7     3      4
 ---------------------------------------------------------------------------------
 (5) _bin_io_lcd                                           0     0      0    2855
                     _write_char_lcd
                           i1_strcpy
                    i1_write_com_lcd
                    i1_write_str_lcd
 ---------------------------------------------------------------------------------
 (6) i1_write_str_lcd                                      3     1      2     893
                                             13 COMRAM     3     1      2
                         i1_delay_us
 ---------------------------------------------------------------------------------
 (6) i1_write_com_lcd                                      1     1      0    1002
                                             13 COMRAM     1     1      0
                         i1_delay_ms
                         i1_delay_us
 ---------------------------------------------------------------------------------
 (7) i1_delay_ms                                           5     3      2     281
                                              6 COMRAM     5     3      2
                           i1___wmul
 ---------------------------------------------------------------------------------
 (8) i1___wmul                                             6     2      4     209
                                              0 COMRAM     6     2      4
 ---------------------------------------------------------------------------------
 (6) i1_strcpy                                             6     2      4     283
                                              0 COMRAM     6     2      4
 ---------------------------------------------------------------------------------
 (6) _write_char_lcd                                       1     1      0     677
                                             13 COMRAM     1     1      0
                         i1_delay_us
 ---------------------------------------------------------------------------------
 (7) i1_delay_us                                           5     3      2     655
                                              8 COMRAM     5     3      2
                          i1___awdiv
 ---------------------------------------------------------------------------------
 (8) i1___awdiv                                            8     4      4     352
                                              0 COMRAM     8     4      4
 ---------------------------------------------------------------------------------
 (5) _bin_io                                               0     0      0       0
 ---------------------------------------------------------------------------------
 Estimated maximum stack depth 8
 ---------------------------------------------------------------------------------
 (Depth) Function   	        Calls       Base Space   Used Autos Params    Refs
 ---------------------------------------------------------------------------------
 (9) _high_isr                                            22    22      0   23988
                                             82 BANK0     22    22      0
                            ___awmod
                            ___ftadd
                            ___ftdiv
                             ___ftge
                            ___ftmul
                            ___ftneg
                            ___fttol
                           ___lwtoft
                        _read_dsth01
                          i2___awdiv
                          i2___lwdiv
                          i2___lwmod
 ---------------------------------------------------------------------------------
 (10) i2___lwmod                                           5     1      4     372
                                              7 BANK0      5     1      4
                          i2___lwdiv (ARG)
 ---------------------------------------------------------------------------------
 (10) i2___lwdiv                                           7     3      4     381
                                              0 BANK0      7     3      4
 ---------------------------------------------------------------------------------
 (10) i2___awdiv                                           8     4      4     935
                                             68 BANK0      8     4      4
                            ___fttol (ARG)
 ---------------------------------------------------------------------------------
 (10) _read_dsth01                                         0     0      0     740
                           _i2c_read
                          _i2c_write
 ---------------------------------------------------------------------------------
 (11) _i2c_write                                           2     1      1     216
                                              0 BANK0      2     1      1
 ---------------------------------------------------------------------------------
 (11) _i2c_read                                            3     1      2     524
                                              0 BANK0      3     1      2
 ---------------------------------------------------------------------------------
 (10) ___lwtoft                                            3     0      3    3034
                                              8 BANK0      3     0      3
                           ___ftpack
 ---------------------------------------------------------------------------------
 (10) ___fttol                                            15    11      4    1340
                                             53 BANK0     15    11      4
                            ___ftadd (ARG)
                            ___ftdiv (ARG)
                            ___ftmul (ARG)
                           ___lwtoft (ARG)
 ---------------------------------------------------------------------------------
 (10) ___ftneg                                             3     0      3     219
                                              0 BANK0      3     0      3
 ---------------------------------------------------------------------------------
 (10) ___ftmul                                            15     9      6    4452
                                             11 BANK0     15     9      6
                           ___ftpack
                           ___lwtoft (ARG)
 ---------------------------------------------------------------------------------
 (10) ___ftge                                              9     3      6    1892
                                              0 BANK0      9     3      6
 ---------------------------------------------------------------------------------
 (10) ___ftdiv                                            15     9      6    3460
                                             26 BANK0     15     9      6
                            ___ftmul (ARG)
                            ___ftneg (ARG)
                           ___ftpack
                           ___lwtoft (ARG)
 ---------------------------------------------------------------------------------
 (10) ___ftadd                                            12     6      6    4841
                                             41 BANK0     12     6      6
                            ___ftdiv (ARG)
                            ___ftneg (ARG)
                           ___ftpack
                           ___lwtoft (ARG)
 ---------------------------------------------------------------------------------
 (11) ___ftpack                                            8     3      5    2464
                                              0 BANK0      8     3      5
 ---------------------------------------------------------------------------------
 (10) ___awmod                                             6     2      4    2127
                                             76 BANK0      6     2      4
                            ___ftmul (ARG)
                            ___fttol (ARG)
                          i2___awdiv (ARG)
 ---------------------------------------------------------------------------------
 Estimated maximum stack depth 11
 ---------------------------------------------------------------------------------

 Call Graph Graphs:

 _main (ROOT)
   _i2c_init
   _init
   _init_lcd
     _delay_ms
       ___wmul
     _delay_us
       ___awdiv
   _rs232_init
   _setint
   _strcpy
   _write_com_lcd
     _delay_ms
       ___wmul
     _delay_us
       ___awdiv
   _write_str_lcd
     _delay_us
       ___awdiv

 _low_isr (ROOT)
   _bin_io
   _bin_io_lcd
     _write_char_lcd
       i1_delay_us
         i1___awdiv
     i1_strcpy
     i1_write_com_lcd
       i1_delay_ms
         i1___wmul
       i1_delay_us
         i1___awdiv
     i1_write_str_lcd
       i1_delay_us
         i1___awdiv
   _bin_udp
     ___lwdiv
     ___lwmod
       ___lwdiv (ARG)

 _high_isr (ROOT)
   ___awmod
     ___ftmul (ARG)
       ___ftpack
       ___lwtoft (ARG)
         ___ftpack
     ___fttol (ARG)
       ___ftadd (ARG)
         ___ftdiv (ARG)
           ___ftmul (ARG)
             ___ftpack
             ___lwtoft (ARG)
               ___ftpack
           ___ftneg (ARG)
           ___ftpack (ARG)
           ___lwtoft (ARG)
             ___ftpack
         ___ftneg (ARG)
         ___ftpack (ARG)
         ___lwtoft (ARG)
           ___ftpack
       ___ftdiv (ARG)
         ___ftmul (ARG)
           ___ftpack
           ___lwtoft (ARG)
             ___ftpack
         ___ftneg (ARG)
         ___ftpack (ARG)
         ___lwtoft (ARG)
           ___ftpack
       ___ftmul (ARG)
         ___ftpack
         ___lwtoft (ARG)
           ___ftpack
       ___lwtoft (ARG)
         ___ftpack
     i2___awdiv (ARG)
       ___fttol (ARG)
         ___ftadd (ARG)
           ___ftdiv (ARG)
             ___ftmul (ARG)
               ___ftpack
               ___lwtoft (ARG)
                 ___ftpack
             ___ftneg (ARG)
             ___ftpack (ARG)
             ___lwtoft (ARG)
               ___ftpack
           ___ftneg (ARG)
           ___ftpack (ARG)
           ___lwtoft (ARG)
             ___ftpack
         ___ftdiv (ARG)
           ___ftmul (ARG)
             ___ftpack
             ___lwtoft (ARG)
               ___ftpack
           ___ftneg (ARG)
           ___ftpack (ARG)
           ___lwtoft (ARG)
             ___ftpack
         ___ftmul (ARG)
           ___ftpack
           ___lwtoft (ARG)
             ___ftpack
         ___lwtoft (ARG)
           ___ftpack
   ___ftadd
     ___ftdiv (ARG)
       ___ftmul (ARG)
         ___ftpack
         ___lwtoft (ARG)
           ___ftpack
       ___ftneg (ARG)
       ___ftpack (ARG)
       ___lwtoft (ARG)
         ___ftpack
     ___ftneg (ARG)
     ___ftpack (ARG)
     ___lwtoft (ARG)
       ___ftpack
   ___ftdiv
     ___ftmul (ARG)
       ___ftpack
       ___lwtoft (ARG)
         ___ftpack
     ___ftneg (ARG)
     ___ftpack (ARG)
     ___lwtoft (ARG)
       ___ftpack
   ___ftge
   ___ftmul
     ___ftpack
     ___lwtoft (ARG)
       ___ftpack
   ___ftneg
   ___fttol
     ___ftadd (ARG)
       ___ftdiv (ARG)
         ___ftmul (ARG)
           ___ftpack
           ___lwtoft (ARG)
             ___ftpack
         ___ftneg (ARG)
         ___ftpack (ARG)
         ___lwtoft (ARG)
           ___ftpack
       ___ftneg (ARG)
       ___ftpack (ARG)
       ___lwtoft (ARG)
         ___ftpack
     ___ftdiv (ARG)
       ___ftmul (ARG)
         ___ftpack
         ___lwtoft (ARG)
           ___ftpack
       ___ftneg (ARG)
       ___ftpack (ARG)
       ___lwtoft (ARG)
         ___ftpack
     ___ftmul (ARG)
       ___ftpack
       ___lwtoft (ARG)
         ___ftpack
     ___lwtoft (ARG)
       ___ftpack
   ___lwtoft
     ___ftpack
   _read_dsth01
     _i2c_read
     _i2c_write
   i2___awdiv
     ___fttol (ARG)
       ___ftadd (ARG)
         ___ftdiv (ARG)
           ___ftmul (ARG)
             ___ftpack
             ___lwtoft (ARG)
               ___ftpack
           ___ftneg (ARG)
           ___ftpack (ARG)
           ___lwtoft (ARG)
             ___ftpack
         ___ftneg (ARG)
         ___ftpack (ARG)
         ___lwtoft (ARG)
           ___ftpack
       ___ftdiv (ARG)
         ___ftmul (ARG)
           ___ftpack
           ___lwtoft (ARG)
             ___ftpack
         ___ftneg (ARG)
         ___ftpack (ARG)
         ___lwtoft (ARG)
           ___ftpack
       ___ftmul (ARG)
         ___ftpack
         ___lwtoft (ARG)
           ___ftpack
       ___lwtoft (ARG)
         ___ftpack
   i2___lwdiv
   i2___lwmod
     i2___lwdiv (ARG)

 Address spaces:
Name               Size   Autos  Total    Cost      Usage
BIGRAM             2FF      0       0      10        0.0%
EEDATA             100      0       0       0        0.0%
BITBANK2           100      0       0       7        0.0%
BANK2              100      0       0       8        0.0%
BITBANK1           100      0       0       5        0.0%
BANK1              100     11      E4       6       89.1%
BITBANK0            A0      0       0       3        0.0%
BANK0               A0     68      8E       4       88.8%
BITCOMRAM           5E      0       0       0        0.0%
COMRAM              5E     21      40       1       68.1%
BITSFR_3             0      0       0      40        0.0%
SFR_3                0      0       0      40        0.0%
BITSFR_2             0      0       0      40        0.0%
SFR_2                0      0       0      40        0.0%
BITSFR_1             0      0       0      40        0.0%
SFR_1                0      0       0      40        0.0%
BITSFR               0      0       0      40        0.0%
SFR                  0      0       0      40        0.0%
STACK                0      0       0       2        0.0%
NULL                 0      0       0       0        0.0%
ABS                  0      0     1B2       9        0.0%
DATA                 0      0     1B2      11        0.0%
CODE                 0      0       0       0        0.0%


Microchip Technology PIC18 Macro Assembler V1.35 build -356382666 
Symbol Table                                                                                   Thu Mar 16 17:21:58 2017

              _SSPSTATbits 000FC7               _wind_dir_dec 00E3               ___awdiv@sign 01D8  
                       bsr 000FE0        ___wmul@multiplicand 01D5         i2___lwdiv@dividend 0060  
              __CFG_BORV$2 000000           i1___wmul@product 0005               __CFG_CP0$OFF 000000  
             __CFG_CP1$OFF 000000                __CFG_OSC$HS 000000               ___ftadd@exp1 0094  
             ___ftadd@exp2 0093               ___ftadd@sign 0092                __CFG_WDT$ON 000000  
                      l225 1B48                        l219 1A3A                        l263 1D90  
            _wind_dir_data 00D7               __CFG_CPB$OFF 000000                        _PR2 000FCB  
             __CFG_CPD$OFF 000000                 i1_delay_ms 2ECC                 i1_delay_us 2E8C  
             ___awmod@sign 00B1                        prod 000FF3                        wreg 000FE8  
             __CFG_LVP$OFF 000000               ___ftdiv@cntr 0083               ___ftdiv@sign 0088  
                     l5430 2808                       l5432 2814                       l5424 27EA  
                     l5450 286C                       l5442 284A                       l5434 281A  
                     l5418 27D4                       l5710 1D38                       l5446 2858  
                     l6414 1B04                       l6406 1AC0                       l5456 2DCA  
                     l5464 2CF4                       l5706 1D2E                       l5458 2DD0  
                     l5466 2CFA                       l6418 1B0C                       l6382 1A20  
                     l6398 1A7E                       l5962 2F44                       l5964 2F50  
                     l5956 2C56                       l5972 2A6A                       l5958 2C66  
                     l5968 2A60                       STR_1 032A                       STR_2 031F  
                     STR_3 0312                       STR_4 0301                       STR_5 0333  
                     STR_6 033B                       STR_7 0342                       STR_8 034B  
                     STR_9 0347                       _LATE 000F8D                       _IPR1 000F9F  
                     _PIE1 000F9D                       _IPR3 000FA5                       _PIE3 000FA3  
                     _PIR1 000F9E                       _RCON 000FD0                       _TMR0 000FD6  
                     _TMR1 000FCE                       _TMR2 000FCC                       _main 19CA  
                     _humH 003A                       _humL 003B               ___ftpack@arg 0060  
                     _init 1CBE               ___ftpack@exp 0063                       fsr0h 000FEA  
                     fsr1h 000FE2         i2___lwdiv@quotient 0065                       fsr0l 000FE9  
                     fsr2h 000FDA                       fsr1l 000FE1                       indf2 000FDF  
                     fsr2l 000FD9                       btemp 0041                       pclat 000FFA  
                     prodh 000FF4                       prodl 000FF3                       start 0126  
            __CFG_IESO$OFF 000000              __CFG_MCLRE$ON 000000               ___ftmul@cntr 0078  
             ___param_bank 000000               ___ftmul@sign 0079               ___fttol@exp1 00A3  
             ___fttol@lval 009F                      ?_main 0001             i1___awdiv@sign 0006  
                    ?_init 0001            __end_of___awdiv 2876            __end_of___ftadd 17C0  
          __end_of___awmod 29D6            __end_of___ftdiv 20D2            __end_of___ftneg 3002  
          __end_of___ftmul 1F86                      _T0CON 000FD5            ___awdiv@divisor 01D5  
                    _T1CON 000FCD            __end_of___fttol 2216            __end_of___lwdiv 2D6E  
          _wind_dir_data_h 0033            _wind_dir_data_l 0034            _wind_dir_data_m 0035  
                    i1l402 1814                      i1l411 182C                      i1l420 1844  
                    i1l501 1924                      i1l405 181C                      i1l510 193C  
                    i1l414 1834                      i1l423 184C                      i1l504 192C  
                    i1l432 1864                      i1l408 1824                      i1l600 11CE  
                    i1l513 1944                      i1l441 187C                      i1l417 183C  
          __end_of___lwmod 2E8C                      i1l522 195C                      i1l450 1898  
                    i1l426 1854                      i1l531 1974                      i1l507 1934  
                    i1l435 186C                      i1l603 11E2                      i2l300 26CE  
                    i1l540 198C                      i1l516 194C                      i1l444 1888  
                    i1l372 17C4                      i1l612 121E                      i1l525 1964  
                    i1l453 18A0                      i1l429 185C                      i1l381 17DC  
                    i1l621 125A                      i1l534 197C                      i1l462 18B8  
                    i1l438 1874                      i1l390 17F4                      i1l702 1476  
                    i1l630 1296                      i1l606 11F6                      i1l543 1994  
                    i1l519 1954                      i1l471 18D4                      i1l447 1890  
                    i1l375 17CC                      i1l711 14B2                      i1l615 1232  
                    i1l552 19AC                      i1l528 196C                      i1l480 18EC  
                    i1l456 18A8                      i1l384 17E4                      i1l720 1524  
                    i1l624 126E                      i1l800 00DE                      i2l313 2256  
                    i1l561 19C4                      i1l537 1984                      i1l465 18C0  
                    i1l393 17FC                      i1l705 148A                      i1l633 12AA  
                    i1l609 120A                      i2l314 224C                      i1l546 199C  
                    i1l474 18DC                      i1l378 17D4                      i1l714 14C6  
                    i1l642 12E6                      i1l618 1246                      i1l570 1106  
                    i2l323 22A0                      i1l555 19B4                      i1l483 18F4  
                    i1l459 18B0                      i1l387 17EC                      i1l723 1542  
                    i1l651 1322                      i1l627 1282                      i2l340 2308  
                    i2l332 22CC                      i2l324 2296                      i2l308 2236  
                    i1l492 190C                      i1l468 18C8                      i1l396 1804  
                    i1l708 149E                      i1l660 135E                      i1l636 12BE  
                    i2l309 222C                      i1l549 19A4                      i1l477 18E4  
                    i1l717 14F2                      i1l645 12FA                      i1l573 111A  
                    i2l318 227C                      i1l558 19BC                      i1l486 18FC  
                    i1l726 154A                      i1l654 1336                      i1l582 1156  
                    i2l343 232E                      i2l335 22E6                      i2l327 22C0  
                    i2l319 2272                      i1l495 1914                      i1l399 180C  
                    i1l663 1372                      i1l639 12D2                      i1l591 1192  
                    i1l567 10F2                      i2l344 2324                      i2l336 22DC  
                    i2l328 22B6                      i2l280 263E                      i1l672 13AE  
                    i1l648 130E                      i1l576 112E                      i1l489 1904  
                    i1l729 1552                      i1l681 13EA                      i1l657 134A  
                    i1l585 116A                      i2l290 2684                      i1l498 191C  
                    i1l690 1426                      i1l666 1386                      i1l594 11A6  
                    i2l339 2312                      i1l675 13C2                      i1l579 1142  
                    i2l284 2668                      i1l684 13FE                      i1l588 117E  
                    i2l285 265E                      i1l693 143A                      i1l669 139A  
                    i1l597 11BA                      i2l294 26B4                      i1l678 13D6  
                    i1l790 0096                      i2l295 26AA                      i2l279 2648  
                    i2l359 24C8                      i1l687 1412                      i1l696 144E  
                    i2l289 268E                      i2l299 26D8                      i1l699 1462  
                    i1l795 00C0                      i1l799 00DC                      i2l736 03A6  
                    i2l758 0B12                      i2l783 10A4            ___awdiv@counter 01D7  
           write_com_lcd@c 01E0                      _RCSTA 000FAB                      _SPBRG 000FAF  
                    _PORTD 000F83            _wind_dir_buffer 017D                      _TRISD 000F95  
                    _TXREG 000FAD                      _TXSTA 000FAC              __CFG_PWRT$OFF 000000  
          __end_of_bin_udp 1558              __CFG_WRT0$OFF 000000              __CFG_WRT1$OFF 000000  
             ?_read_dsth01 0001             __CFG_EBTR0$OFF 000000             __CFG_FCMEN$OFF 000000  
           __CFG_EBTR1$OFF 000000              __CFG_WRTB$OFF 000000              __CFG_WRTC$OFF 000000  
            __CFG_WRTD$OFF 000000             __CFG_EBTRB$OFF 000000                i1delay_ms@c 000A  
              i1delay_us@c 000C                      _rain_ 00DE                      _tempH 003C  
                    _tempL 003D              ___ftpack@sign 0064                      main@c 01E3  
          __end_of_low_isr 0126                      tablat 000FF5           __end_ofi1___wmul 3052  
                    status 000FD8        i1___wmul@multiplier 0001         __size_ofi1___awdiv 0084  
       __size_ofi2___awdiv 00BE         __size_ofi2___lwdiv 0078           __end_ofi1_strcpy 2FD2  
       __size_ofi2___lwmod 0062            __initialization 2C76               __end_of_main 1B4C  
             __end_of_init 1E28   __size_ofi1_write_com_lcd 0050           __end_of_i2c_init 3074  
         __end_of_i2c_read 2346           ??_write_char_lcd 000E            write_char_lcd@c 000E  
                   ??_main 01E3              ___fttol@sign1 009E                     ??_init 01D3  
               i1strcpy@cp 0005                 i1strcpy@to 0001              __activetblptr 000001  
              ?i1_delay_ms 0007                ?i1_delay_us 0009   __size_ofi1_write_str_lcd 0066  
                   _ADRESH 000FC4                     _ADRESL 000FC3           ___awdiv@dividend 01D3  
          __CFG_BBSIZ$1024 000000           __end_of___ftpack 2452                     i1l1203 2D64  
                   i1l1213 2E82                     i1l3432 29EA                     i1l3520 2ED6  
                   i2l1025 241E                     i2l1105 2FF4                     i1l3530 2EB6  
                   i1l3522 2EDA                     i2l1203 2B46                     i2l1052 15FA  
                   i1l3444 2A10                     i1l3460 2A42                     i2l1213 2C0E  
                   i2l1054 1622                     i1l3446 2A18                     i1l3438 29FA  
                   i2l1063 16F8                     i2l1072 1722                     i2l1048 15C0  
                   i1l3464 2A50                     i1l3456 2A38                     i1l3448 2A1C  
                   i1l3528 2EB2                     i1l3800 2D3A                     i1l3810 2D5A  
                   i1l3802 2D3E                     i2l1083 209C                     i1l3820 2E60  
                   i1l3822 2E64                     i1l3832 2B54                     i1l3826 2E78  
                   i1l3818 2E58                     i1l3836 2B5C                     i1l3870 2DA2  
                   i1l5382 00A6                     i1l3872 2DB0                     i1l5394 00CC  
                   i1l3876 2FAC                     i1l3878 2FB4                     i1l3798 2D32  
                   i1l5398 00D8                     i2l6000 246E                     i2l6110 174C  
                   i2l6102 16DE                     i2l6030 24E8                     i2l6014 24AC  
                   i2l6006 248A                     i2l6120 179A                     i2l6104 16EC  
                   i2l6200 1F08                     i2l6130 1FC0                     i2l6210 1F46  
                   i2l6050 2542                     i2l6044 2526                     i2l6036 2504  
                   i2l6028 24E2                     i2l6300 28C6                     i2l6230 2960  
                   i2l6062 15CE                     i2l6206 1F28                     i2l6302 28D2  
                   i2l6136 1FFA                     i2l6320 292A                     i2l6312 2908  
                   i2l6304 28D8                     i2l6250 29CC                     i2l6242 29AA  
                   i2l6234 2974                     i2l6226 2950                     i2l6090 1688  
                   i2l6074 1618                     i2l5530 26E0                     i2l6330 2AF6  
                   i2l6236 2980                     i2l5700 2444                     i2l6092 1696  
                   i2l6084 165A                     i2l6068 1608                     i2l6156 205A  
                   i2l6316 2916                     i2l6332 2B02                     i2l6238 2986  
                   i2l6246 29B8                     i2l6094 16A4                     i2l6262 2770  
                   i2l6182 1E9C                     i2l5542 26EC                     i2l5534 26E4  
                   i2l6342 2B38                     i2l6334 2B08                     i2l6350 2BCA  
                   i2l6096 16B0                     i2l6176 1E62                     i2l6352 2BD6  
                   i2l6258 2730                     i2l5538 26E8                     i2l6354 2BDC  
                   i2l6602 0E1C                     i2l6268 27B4                     i2l6196 1EEA  
                   i2l5652 2336                     i2l5660 233E                     i2l6620 0FFA  
                   i2l6604 0E20                     i2l6532 08E8                     i2l4950 21B2  
                   i2l6294 28A8                     i2l6358 2C00                     i2l6542 098C  
                   i2l6470 057E                     i2l6462 04FA                     i2l6454 0476  
                   i2l5680 23B2                     i2l5672 2360                     i2l4960 21E8  
                   i2l4928 210C                     i2l5664 2342                     i2l5656 233A  
                   i2l6288 2892                     i2l6640 1060                     i2l6632 1038  
                   i2l6624 1010                     i2l6560 0B06                     i2l6528 08DE  
                   i2l4946 219E                     i2l6554 0AEE                     i2l6570 0B1A  
                   i2l6490 06F6                     i2l6482 0644                     i2l6474 05C0  
                   i2l6466 053C                     i2l6458 04B8                     i2l5684 23D2  
                   i2l5676 2374                     i2l4964 2204                     i2l4956 21CE  
                   i2l6644 1074                     i2l6636 104E                     i2l6628 1022  
                   i2l6492 0710                     i2l5694 2428                     i2l5686 2402  
                   i2l5678 2382                     i2l4958 21DE                     i2l6654 1098  
                   i2l6486 0694                     i2l6478 0602                     i2l5688 2410  
                   i2l6584 0C80                     i2l6576 0C14                     i2l6648 108C  
                   i2l5998 2468           __end_of___lwtoft 302C                     u702_41 156E  
                   u703_41 158C                     u730_41 1E78                     u723_41 1F9C  
                   u725_41 1FD6                     u566_41 20E8                     u728_41 1E3E  
                   _SSPADD 000FC8                     _SSPBUF 000FC9         __size_of_i2c_write 00C8  
          delay_ms@t_delay 01D9           __end_of_delay_ms 2E08           __end_of_delay_us 2D1C  
         _wind_dir_instant 00D9             __CFG_XINST$OFF 000000           __end_of_high_isr 10E2  
                   ___ftge 26F0                     ___wmul 2F04                  ??___awdiv 01D7  
                ??___ftadd 008F             __CFG_STVREN$ON 000000                  ??___awmod 00B0  
         _wind_dir_voltage 00CE                  ??___ftdiv 0080                  ??___ftneg 0063  
                   _bin_io 17C0                  ??___ftmul 0071                  ??___fttol 0099  
                ??___lwdiv 0005                  ??___lwmod 000C                     _en_udp 003E  
          _wind_vel_data_f 0036            _wind_vel_data_h 0037            _wind_vel_data_l 0038  
         __end_of_init_lcd 1CBE                     clear_0 2C7C                     clear_1 2C88  
                   clear_2 2C94           ___awdiv@quotient 01D9            ___awmod@divisor 00AE  
                ??_bin_udp 000D                     _setint 2E08            ___awmod@counter 00B0  
                   _strcpy 2F3A             i2___awdiv@sign 00A9      ___ftmul@f3_as_product 0075  
        __end_ofi1___awdiv 2A5A               __pdataCOMRAM 003E          __end_ofi2___awdiv 2934  
        __end_ofi2___lwdiv 2B50               __mediumconst 0000          __end_ofi2___lwmod 2C18  
                ??_low_isr 0011                     tblptrh 000FF7                     tblptrl 000FF6  
                   tblptru 000FF8                 __accesstop 0060    __end_of__initialization 2CB8  
          __CFG_PBADEN$OFF 000000                 ___ftadd@f1 0089                 ___ftadd@f2 008C  
               ___ftge@ff1 0060                 ___ftge@ff2 0063              ___rparam_used 000000  
               ___ftdiv@f1 007A                 ___ftdiv@f2 007D                 ___ftdiv@f3 0084  
          delay_us@t_delay 01DB                 ___ftneg@f1 0060        __size_ofi1_delay_ms 0038  
      __size_ofi1_delay_us 0040                 ___ftmul@f1 006B                 ___ftmul@f2 006E  
               ___fttol@f1 0095         i2___lwmod@dividend 0067             __pcstackCOMRAM 0001  
               ___lwtoft@c 0068                  ?i1___wmul 0001     __size_of_write_com_lcd 005E  
        __end_of_i2c_write 26F0          ??i1_write_com_lcd 000E                 _rs232_init 3074  
                ?i1_strcpy 0001       __size_of_read_dsth01 00F4     __size_of_write_str_lcd 007E  
               __pbssBANK0 00C8                 __pbssBANK1 0100          ??i1_write_str_lcd 0010  
      _inte_sample_counter 00DD                  ?_i2c_init 0001                  ?_i2c_read 0060  
      high_isr@temporary_i 00C7                 _bin_io_lcd 2546                    ?___ftge 0060  
                  ?___wmul 01D3    i1write_str_lcd@ptr_char 000E                 _dew_data_f 0026  
               _dew_data_h 00DB                 _dew_data_l 0027                 _dew_data_m 0028  
                  ?_bin_io 0001                    _BAUDCON 000FB8                  ?___ftpack 0060  
                  ?_setint 0001                 ??i1___wmul 0005                    ?_strcpy 01D3  
                ?___lwtoft 0068         i1___awdiv@dividend 0001                  ?_delay_ms 01D9  
                ?_delay_us 01DB                 ??i1_strcpy 0005            __CFG_WDTPS$4096 000000  
               _lcd_string 01B3                  ?_high_isr 0001                 ??_i2c_init 01D3  
               ??_i2c_read 0062                  ?_init_lcd 0001           i1write_com_lcd@c 000E  
            _write_com_lcd 2C18            i2c_read@i2c_add 0062                    __Hparam 0000  
                  __Lparam 0000         i1___awdiv@quotient 0007                 _dsth_error 00DC  
          __size_of___ftge 00C8                    ___awdiv 27B8                    ___ftadd 1558  
                  ___awmod 2934                    ___ftdiv 1F86                    ___ftneg 2FD2  
          __size_of___wmul 0036                    ___ftmul 1E28                    ___fttol 20D2  
            _write_str_lcd 2A5A                    ___lwdiv 2D1C            __size_of_bin_io 020A  
                  ___lwmod 2E4A               __psmallconst 0300                    __pcinit 2C76  
               ??___ftpack 0065                    _bin_udp 10E2                    __ramtop 0300  
                  __ptext0 19CA                    __ptext1 2A5A                    __ptext2 2C18  
                  __ptext3 2F3A                    __ptext4 2E08                    __ptext5 3074  
                  __ptext6 1B4C                    __ptext7 2CCA                    __ptext8 27B8  
                  __ptext9 2DBE            __size_of_setint 0042                 ??___lwtoft 006B  
               _hum_data_h 002A                 _hum_data_l 002B                 _hum_data_m 002C  
                _T0CONbits 000FD5            __size_of_strcpy 0034               ??i1_delay_ms 0009  
             ??i1_delay_us 000B                  _T1CONbits 000FCD                 _hum_buffer 014B  
                _T2CONbits 000FCA                  _T3CONbits 000FB1                 _rain_count 00DF  
         ___awmod@dividend 00AC                ?_rs232_init 0001                    _low_isr 0018  
               ??_delay_ms 01DB                 ??_delay_us 01DD                    _tx_char 0032  
               ??_high_isr 00B2             __pintcode_body 0350       end_of_initialization 2CB8  
           ?_write_com_lcd 0001                 ??_init_lcd 01E0                    int_func 0350  
              ?_bin_io_lcd 0001         __end_ofi1_delay_ms 2F04         __end_ofi1_delay_us 2ECC  
                  postdec1 000FE5                    postdec2 000FDD             ?_write_str_lcd 01E0  
                  postinc0 000FEE                    postinc1 000FE6                    postinc2 000FDE  
    i1___wmul@multiplicand 0003      write_str_lcd@ptr_char 01E0                  _PORTBbits 000F81  
                _PORTCbits 000F82                  _PORTEbits 000F84                  _TRISAbits 000F92  
                _TRISBbits 000F93                  _TRISCbits 000F94                  _TRISEbits 000F96  
                i1___awdiv 29D6        _temp_buffer_instant 00CB                 _wind_count 00E1  
                i2___awdiv 2876          i2___lwdiv@divisor 0062                  i2___lwdiv 2AD8  
                i2___lwmod 2BB6          i2___lwdiv@counter 0064                ___ftdiv@exp 0087  
                _TXSTAbits 000FAC         i2___awdiv@dividend 00A4                ___ftmul@exp 0074  
          i1_write_com_lcd 2D6E        __size_of_rs232_init 0016             __end_of___ftge 27B8  
           __end_of___wmul 2F3A             __end_of_bin_io 19CA              __pidataCOMRAM 308A  
        _inte_data_counter 0024            i1_write_str_lcd 2B50             __end_of_setint 2E4A  
           __end_of_strcpy 2F6E        start_initialization 2C76          __size_ofi1___wmul 0026  
      __size_of_bin_io_lcd 00E2         i2___awdiv@quotient 00AA    __size_of_write_char_lcd 0034  
               ?i1___awdiv 0001                  _i2c_write 2628        __CFG_BOREN$BOACTIVE 000000  
               ?i2___awdiv 00A4                 ?i2___lwdiv 0060                 ?i2___lwmod 0067  
          ??_write_com_lcd 01E0          __size_ofi1_strcpy 0030          __size_of_i2c_init 0022  
        __size_of_i2c_read 0130            ??_write_str_lcd 01E2                   ??___ftge 0066  
                 ??___wmul 01D7                   ??_bin_io 0001           __CFG_LPT1OSC$OFF 000000  
             i1strcpy@from 0003                   ??_setint 01D3                   ??_strcpy 01D7  
        __size_of___ftpack 010C                __pbssCOMRAM 0022              ??_read_dsth01 0063  
        __size_of___lwtoft 002A              __pcstackBANK0 0060              __pcstackBANK1 01D3  
        i2___lwmod@divisor 0069                 ?_i2c_write 0060          i2___lwmod@counter 006B  
        __size_of_delay_ms 004A          __size_of_delay_us 0052          __size_of_high_isr 10DA  
  __end_ofi1_write_com_lcd 2DBE                  __pnvBANK0 00E5            init@temporary_i 01D3  
        __size_of_init_lcd 0172           ___lwdiv@dividend 0001                  __pintcode 0008  
                 ?___awdiv 01D3                   ?___ftadd 0089                   ?___awmod 00AC  
  __end_ofi1_write_str_lcd 2BB6                   ?___ftdiv 007A                   ?___ftneg 0060  
                 ?___ftmul 006B                   ?___fttol 0095                   ?___lwdiv 0001  
                 ?___lwmod 0008          i1___awdiv@divisor 0003                __pintcodelo 0018  
        i1___awdiv@counter 0005                   ?_bin_udp 0001         _hum_buffer_instant 00D1  
              __smallconst 0300               ??_rs232_init 01D3                   ?_low_isr 0001  
              ??i1___awdiv 0005           ___lwdiv@quotient 0005                ??i2___awdiv 00A8  
              ??i2___lwdiv 0064                ??i2___lwmod 006B        __end_of_read_dsth01 2546  
           ___wmul@product 01D7                  delay_ms@c 01DC                  delay_us@c 01DE  
             ??_bin_io_lcd 0011                   _PIR1bits 000F9E                   i2u568_40 2132  
                 i2u568_45 2128                   i2u764_45 03CA                  _temp_data 00EB  
                 i2u776_45 0754                  _temp_sign 0031                  _temp_word 00D5  
             _extend_timer 01AF         __end_of_rs232_init 308A                  _wind_dirH 003F  
                _wind_dirL 0040                 _ADCON0bits 000FC2                 _ADCON1bits 000FC1  
               _ADCON2bits 000FC0          ___wmul@multiplier 01D3                   i1___wmul 302C  
        i2___awdiv@divisor 00A6          i2___awdiv@counter 00A8             _write_char_lcd 2F6E  
       __end_of_bin_io_lcd 2628                   i1_strcpy 2FA2                ??_i2c_write 0061  
              _INTCON2bits 000FF1                _INTCON3bits 000FF0                   _i2c_init 3052  
                 _i2c_read 2216          i1delay_ms@t_delay 0007           ?i1_write_com_lcd 0001  
                 __Hparam0 0000           i2c_read@i2c_data 0060                   __Lparam0 0000  
             __Lsmallconst 0300           ?i1_write_str_lcd 000E           __size_of___awdiv 00BE  
         __size_of___ftadd 0268           __size_of___awmod 00A2           __size_of___ftdiv 014C  
         __size_of___ftneg 0030           __size_of___ftmul 015E           __size_of___fttol 0144  
         __size_of___lwdiv 0052           __size_of___lwmod 0042                   ___ftpack 2346  
         __size_of_bin_udp 0476                   ___lwtoft 3002     __end_of_write_char_lcd 2FA2  
  write_str_lcd@count_char 01E2                   _checksum 0022                   _delay_ms 2DBE  
                 _delay_us 2CCA                _read_dsth01 2452            ___lwdiv@divisor 0003  
                 _dew_data 00C8            ___lwdiv@counter 0007           __size_of_low_isr 010E  
                 __ptext10 2F04                   __ptext11 1CBE                   __ptext20 2ECC  
                 __ptext12 3052                   __ptext21 302C                   __ptext30 2876  
                 __ptext22 2FA2                   __ptext14 10E2                   __ptext31 2452  
                 __ptext23 2F6E                   __ptext15 2E4A                   __ptext40 1558  
                 __ptext32 2628                   __ptext24 2E8C                   __ptext16 2D1C  
                 __ptext41 2346                   __ptext33 2216                   __ptext25 29D6  
                 __ptext17 2546                   __ptext42 2934                   __ptext34 3002  
                 __ptext26 17C0                   __ptext18 2B50                   __ptext35 20D2  
                 __ptext19 2D6E                   __ptext36 2FD2                   __ptext28 2BB6  
                 __ptext37 1E28                   __ptext29 2AD8                   __ptext38 26F0  
                 __ptext39 1F86                   _dew_sign 0029                   _high_isr 0008  
               strcpy@from 01D5  i1write_str_lcd@count_char 0010          i1delay_us@t_delay 0009  
                 _init_lcd 1B4C              __size_of_main 0182              __size_of_init 016A  
                 _hum_data 00E8                   _hum_word 00D3                   int$flags 0041  
                 _wind_vel 00E5          i2c_write@i2c_data 0060            ?_write_char_lcd 0001  
               _INTCONbits 000FF2              _dsth01_status 0039                   intlevel1 0000  
                 intlevel2 0000              _high_isr$2251 00C4      __end_of_write_com_lcd 2C76  
         ___lwmod@dividend 0008      __end_of_write_str_lcd 2AD8                _temp_data_f 002D  
              _temp_data_h 002E                _temp_data_l 002F                _temp_data_m 0030  
              _temp_buffer 0100           i2c_write@i2c_add 0061            ___lwmod@divisor 000A  
                 strcpy@cp 01D7                   strcpy@to 01D3            ___lwmod@counter 000C  
              _SSPCON1bits 000FC6                _SSPCON2bits 000FC5             _ptr_lcd_string 01B1  
